	.section __DWARF,__debug_frame,regular,debug
Lsection__debug_frame:
	.section __DWARF,__debug_info,regular,debug
Lsection__debug_info:
	.section __DWARF,__debug_abbrev,regular,debug
Lsection__debug_abbrev:
	.section __DWARF,__debug_aranges,regular,debug
Lsection__debug_aranges:
	.section __DWARF,__debug_macinfo,regular,debug
Lsection__debug_macinfo:
	.section __DWARF,__debug_line,regular,debug
Lsection__debug_line:
	.section __DWARF,__debug_loc,regular,debug
Lsection__debug_loc:
	.section __DWARF,__debug_pubnames,regular,debug
Lsection__debug_pubnames:
	.section __DWARF,__debug_pubtypes,regular,debug
Lsection__debug_pubtypes:
	.section __DWARF,__debug_inlined,regular,debug
Lsection__debug_inlined:
	.section __DWARF,__debug_str,regular,debug
Lsection__debug_str:
	.section __DWARF,__debug_ranges,regular,debug
Lsection__debug_ranges:
	.section __DWARF,__debug_abbrev,regular,debug
Ldebug_abbrev0:
	.section __DWARF,__debug_info,regular,debug
Ldebug_info0:
	.section __DWARF,__debug_line,regular,debug
Ldebug_line0:
	.text
Ltext0:
	.mod_init_func
	.align 3
	.quad	__GLOBAL__I_SELECT_CMD
	.section __TEXT,__textcoal_nt,coalesced,pure_instructions
.globl __ZnwmPv
	.weak_definition __ZnwmPv
__ZnwmPv:
LFB243:
	.file 1 "/Developer/SDKs/MacOSX10.6.sdk/usr/include/c++/4.2.1/new"
	.loc 1 105 0
	nop
	nop
	nop
	nop
	nop
	nop
	pushq	%rbp
LCFI0:
	movq	%rsp, %rbp
LCFI1:
	movq	%rdi, -8(%rbp)
	movq	%rsi, -16(%rbp)
	.loc 1 105 0
	movq	-16(%rbp), %rax
	leave
	ret
LFE243:
.globl __ZdlPvS_
	.weak_definition __ZdlPvS_
__ZdlPvS_:
LFB245:
	.loc 1 109 0
	nop
	nop
	nop
	nop
	nop
	nop
	pushq	%rbp
LCFI2:
	movq	%rsp, %rbp
LCFI3:
	movq	%rdi, -8(%rbp)
	movq	%rsi, -16(%rbp)
	.loc 1 109 0
	leave
	ret
LFE245:
.globl __ZStorSt13_Ios_OpenmodeS_
	.weak_definition __ZStorSt13_Ios_OpenmodeS_
__ZStorSt13_Ios_OpenmodeS_:
LFB952:
	.file 2 "/Developer/SDKs/MacOSX10.6.sdk/usr/include/c++/4.2.1/bits/ios_base.h"
	.loc 2 123 0
	nop
	nop
	nop
	nop
	nop
	nop
	pushq	%rbp
LCFI4:
	movq	%rsp, %rbp
LCFI5:
	movl	%edi, -4(%rbp)
	movl	%esi, -8(%rbp)
	.loc 2 124 0
	movl	-4(%rbp), %edx
	movl	-8(%rbp), %eax
	orl	%edx, %eax
	leave
	ret
LFE952:
.globl __ZNSt18_Rb_tree_node_base10_S_minimumEPS_
	.weak_definition __ZNSt18_Rb_tree_node_base10_S_minimumEPS_
	.private_extern __ZNSt18_Rb_tree_node_base10_S_minimumEPS_
__ZNSt18_Rb_tree_node_base10_S_minimumEPS_:
LFB1769:
	.file 3 "/Developer/SDKs/MacOSX10.6.sdk/usr/include/c++/4.2.1/bits/stl_tree.h"
	.loc 3 106 0
	nop
	nop
	nop
	nop
	nop
	nop
	pushq	%rbp
LCFI6:
	movq	%rsp, %rbp
LCFI7:
	movq	%rdi, -8(%rbp)
	.loc 3 108 0
	jmp	L8
L9:
	movq	-8(%rbp), %rax
	movq	16(%rax), %rax
	movq	%rax, -8(%rbp)
L8:
	movq	-8(%rbp), %rax
	movq	16(%rax), %rax
	testq	%rax, %rax
	jne	L9
	.loc 3 109 0
	movq	-8(%rbp), %rax
	.loc 3 110 0
	leave
	ret
LFE1769:
.globl __ZNSt18_Rb_tree_node_base10_S_maximumEPS_
	.weak_definition __ZNSt18_Rb_tree_node_base10_S_maximumEPS_
	.private_extern __ZNSt18_Rb_tree_node_base10_S_maximumEPS_
__ZNSt18_Rb_tree_node_base10_S_maximumEPS_:
LFB1771:
	.loc 3 120 0
	nop
	nop
	nop
	nop
	nop
	nop
	pushq	%rbp
LCFI8:
	movq	%rsp, %rbp
LCFI9:
	movq	%rdi, -8(%rbp)
	.loc 3 122 0
	jmp	L13
L14:
	movq	-8(%rbp), %rax
	movq	24(%rax), %rax
	movq	%rax, -8(%rbp)
L13:
	movq	-8(%rbp), %rax
	movq	24(%rax), %rax
	testq	%rax, %rax
	jne	L14
	.loc 3 123 0
	movq	-8(%rbp), %rax
	.loc 3 124 0
	leave
	ret
LFE1771:
.globl __ZSt3minImERKT_S2_S2_
	.weak_definition __ZSt3minImERKT_S2_S2_
__ZSt3minImERKT_S2_S2_:
LFB2002:
	.file 4 "/Developer/SDKs/MacOSX10.6.sdk/usr/include/c++/4.2.1/bits/stl_algobase.h"
	.loc 4 182 0
	nop
	nop
	nop
	nop
	nop
	nop
	pushq	%rbp
LCFI10:
	movq	%rsp, %rbp
LCFI11:
	movq	%rdi, -8(%rbp)
	movq	%rsi, -16(%rbp)
	.loc 4 187 0
	movq	-16(%rbp), %rax
	movq	(%rax), %rdx
	movq	-8(%rbp), %rax
	movq	(%rax), %rax
	cmpq	%rax, %rdx
	jae	L18
	.loc 4 188 0
	movq	-16(%rbp), %rax
	movq	%rax, -24(%rbp)
	jmp	L20
L18:
	.loc 4 189 0
	movq	-8(%rbp), %rax
	movq	%rax, -24(%rbp)
L20:
	movq	-24(%rbp), %rax
	leave
	ret
LFE2002:
	.text
__ZStL17__verify_groupingPKcmRKSs:
LFB1407:
	.file 5 "/Developer/SDKs/MacOSX10.6.sdk/usr/include/c++/4.2.1/bits/locale_facets.tcc"
	.loc 5 2558 0
	nop
	nop
	nop
	nop
	nop
	nop
	pushq	%rbp
LCFI12:
	movq	%rsp, %rbp
LCFI13:
	pushq	%rbx
LCFI14:
	subq	$88, %rsp
LCFI15:
	movq	%rdi, -72(%rbp)
	movq	%rsi, -80(%rbp)
	movq	%rdx, -88(%rbp)
LBB2:
	.loc 5 2560 0
	movq	-88(%rbp), %rdi
	call	__ZNKSs4sizeEv
	decq	%rax
	movq	%rax, -32(%rbp)
	.loc 5 2561 0
	movq	-80(%rbp), %rax
	decq	%rax
	movq	%rax, -48(%rbp)
	leaq	-48(%rbp), %rsi
	leaq	-32(%rbp), %rdi
	call	__ZSt3minImERKT_S2_S2_
	movq	(%rax), %rax
	movq	%rax, -40(%rbp)
	.loc 5 2562 0
	movq	-32(%rbp), %rax
	movq	%rax, -56(%rbp)
	.loc 5 2563 0
	movb	$1, -17(%rbp)
LBB3:
	.loc 5 2568 0
	movq	$0, -64(%rbp)
	jmp	L23
L24:
	.loc 5 2569 0
	movq	-56(%rbp), %rsi
	movq	-88(%rbp), %rdi
	call	__ZNKSsixEm
	movzbl	(%rax), %edx
	movq	-64(%rbp), %rax
	addq	-72(%rbp), %rax
	movzbl	(%rax), %eax
	cmpb	%al, %dl
	sete	%al
	movb	%al, -17(%rbp)
	.loc 5 2568 0
	decq	-56(%rbp)
	incq	-64(%rbp)
L23:
	movq	-64(%rbp), %rax
	cmpq	-40(%rbp), %rax
	jae	L27
	cmpb	$0, -17(%rbp)
	jne	L24
	.loc 5 2570 0
	jmp	L27
L28:
LBE3:
	.loc 5 2571 0
	movq	-56(%rbp), %rsi
	movq	-88(%rbp), %rdi
	call	__ZNKSsixEm
	movzbl	(%rax), %edx
	movq	-40(%rbp), %rax
	addq	-72(%rbp), %rax
	movzbl	(%rax), %eax
	cmpb	%al, %dl
	sete	%al
	movb	%al, -17(%rbp)
	.loc 5 2570 0
	decq	-56(%rbp)
L27:
	cmpq	$0, -56(%rbp)
	je	L29
	cmpb	$0, -17(%rbp)
	jne	L28
L29:
	.loc 5 2575 0
	movq	-40(%rbp), %rax
	addq	-72(%rbp), %rax
	movzbl	(%rax), %eax
	testb	%al, %al
	jle	L31
	.loc 5 2576 0
	movzbl	-17(%rbp), %ebx
	movq	-88(%rbp), %rdi
	movl	$0, %esi
	call	__ZNKSsixEm
	movzbl	(%rax), %edx
	movq	-40(%rbp), %rax
	addq	-72(%rbp), %rax
	movzbl	(%rax), %eax
	cmpb	%al, %dl
	setle	%al
	movzbl	%al, %eax
	andl	%ebx, %eax
	testl	%eax, %eax
	setne	%al
	movb	%al, -17(%rbp)
L31:
	.loc 5 2577 0
	movzbl	-17(%rbp), %eax
LBE2:
	.loc 5 2578 0
	addq	$88, %rsp
	popq	%rbx
	leave
	ret
LFE1407:
	.section __TEXT,__textcoal_nt,coalesced,pure_instructions
	.align 1
.globl __ZNSt15binary_functionISsSsbEC2Ev
	.weak_definition __ZNSt15binary_functionISsSsbEC2Ev
	.private_extern __ZNSt15binary_functionISsSsbEC2Ev
__ZNSt15binary_functionISsSsbEC2Ev:
LFB2043:
	.file 6 "/Developer/SDKs/MacOSX10.6.sdk/usr/include/c++/4.2.1/bits/stl_function.h"
	.loc 6 115 0
	nop
	nop
	nop
	nop
	nop
	nop
	pushq	%rbp
LCFI16:
	movq	%rsp, %rbp
LCFI17:
	movq	%rdi, -8(%rbp)
	.loc 6 115 0
	leave
	ret
LFE2043:
	.align 1
.globl __ZNSt4lessISsEC1Ev
	.weak_definition __ZNSt4lessISsEC1Ev
	.private_extern __ZNSt4lessISsEC1Ev
__ZNSt4lessISsEC1Ev:
LFB2046:
	.loc 6 224 0
	nop
	nop
	nop
	nop
	nop
	nop
	pushq	%rbp
LCFI18:
	movq	%rsp, %rbp
LCFI19:
	subq	$16, %rsp
LCFI20:
	movq	%rdi, -8(%rbp)
LBB4:
	.loc 6 224 0
	movq	-8(%rbp), %rdi
	call	__ZNSt15binary_functionISsSsbEC2Ev
LBE4:
	leave
	ret
LFE2046:
	.align 1
.globl __ZNSt17_Rb_tree_iteratorISt4pairIKSs5TableEEC1Ev
	.weak_definition __ZNSt17_Rb_tree_iteratorISt4pairIKSs5TableEEC1Ev
	.private_extern __ZNSt17_Rb_tree_iteratorISt4pairIKSs5TableEEC1Ev
__ZNSt17_Rb_tree_iteratorISt4pairIKSs5TableEEC1Ev:
LFB2051:
	.loc 3 167 0
	nop
	nop
	nop
	nop
	nop
	nop
	pushq	%rbp
LCFI21:
	movq	%rsp, %rbp
LCFI22:
	movq	%rdi, -8(%rbp)
LBB5:
	.loc 3 168 0
	movq	-8(%rbp), %rax
	movq	$0, (%rax)
LBE5:
	leave
	ret
LFE2051:
	.align 1
.globl __ZNSt17_Rb_tree_iteratorISt4pairIKSsiEEC1Ev
	.weak_definition __ZNSt17_Rb_tree_iteratorISt4pairIKSsiEEC1Ev
	.private_extern __ZNSt17_Rb_tree_iteratorISt4pairIKSsiEEC1Ev
__ZNSt17_Rb_tree_iteratorISt4pairIKSsiEEC1Ev:
LFB2054:
	.loc 3 167 0
	nop
	nop
	nop
	nop
	nop
	nop
	pushq	%rbp
LCFI23:
	movq	%rsp, %rbp
LCFI24:
	movq	%rdi, -8(%rbp)
LBB6:
	.loc 3 168 0
	movq	-8(%rbp), %rax
	movq	$0, (%rax)
LBE6:
	leave
	ret
LFE2054:
	.text
.globl __Z7hasNextv
__Z7hasNextv:
LFB1992:
	.file 7 "/Users/provdk/Documents/cppdb/main.cpp"
	.loc 7 78 0
	nop
	nop
	nop
	nop
	nop
	nop
	pushq	%rbp
LCFI25:
	movq	%rsp, %rbp
LCFI26:
	pushq	%rbx
LCFI27:
	subq	$40, %rsp
LCFI28:
LBB7:
LBB8:
	.loc 7 79 0
	movq	_bi@GOTPCREL(%rip), %rax
	movl	(%rax), %eax
	movl	%eax, -20(%rbp)
	jmp	L43
L44:
	.loc 7 80 0
	movl	-20(%rbp), %eax
	movslq	%eax,%rsi
	movq	_buffer@GOTPCREL(%rip), %rdi
	call	__ZNSs2atEm
	movzbl	(%rax), %eax
	cmpb	$32, %al
	setne	%al
	testb	%al, %al
	je	L45
	.loc 7 81 0
	movl	$1, -36(%rbp)
	jmp	L47
L45:
	.loc 7 79 0
	incl	-20(%rbp)
L43:
	movl	-20(%rbp), %eax
	movslq	%eax,%rbx
	movq	_buffer@GOTPCREL(%rip), %rdi
	call	__ZNKSs6lengthEv
	cmpq	%rax, %rbx
	setb	%al
	testb	%al, %al
	jne	L44
LBE8:
	.loc 7 84 0
	movl	$0, -36(%rbp)
L47:
	movl	-36(%rbp), %eax
LBE7:
	.loc 7 85 0
	addq	$40, %rsp
	popq	%rbx
	leave
	ret
LFE1992:
.globl __Z5blankv
__Z5blankv:
LFB1989:
	.loc 7 57 0
	nop
	nop
	nop
	nop
	nop
	nop
	pushq	%rbp
LCFI29:
	movq	%rsp, %rbp
LCFI30:
	pushq	%rbx
LCFI31:
	subq	$24, %rsp
LCFI32:
	.loc 7 58 0
	jmp	L51
L52:
	.loc 7 59 0
	movq	_bi@GOTPCREL(%rip), %rax
	movl	(%rax), %eax
	leal	1(%rax), %edx
	movq	_bi@GOTPCREL(%rip), %rax
	movl	%edx, (%rax)
L51:
	.loc 7 58 0
	movq	_bi@GOTPCREL(%rip), %rax
	movl	(%rax), %eax
	movslq	%eax,%rbx
	movq	_buffer@GOTPCREL(%rip), %rdi
	call	__ZNKSs6lengthEv
	cmpq	%rax, %rbx
	jae	L53
	movq	_bi@GOTPCREL(%rip), %rax
	movl	(%rax), %eax
	movslq	%eax,%rsi
	movq	_buffer@GOTPCREL(%rip), %rdi
	call	__ZNSs2atEm
	movzbl	(%rax), %eax
	cmpb	$32, %al
	jne	L53
	movb	$1, -17(%rbp)
	jmp	L56
L53:
	movb	$0, -17(%rbp)
L56:
	movzbl	-17(%rbp), %eax
	testb	%al, %al
	jne	L52
	.loc 7 61 0
	addq	$24, %rsp
	popq	%rbx
	leave
	ret
LFE1989:
.globl __Z2eqSsSs
__Z2eqSsSs:
LFB1993:
	.loc 7 87 0
	nop
	nop
	nop
	nop
	nop
	nop
	pushq	%rbp
LCFI33:
	movq	%rsp, %rbp
LCFI34:
	subq	$16, %rsp
LCFI35:
	movq	%rdi, -8(%rbp)
	movq	%rsi, -16(%rbp)
	.loc 7 88 0
	movq	-16(%rbp), %rsi
	movq	-8(%rbp), %rdi
	call	__ZNKSs7compareERKSs
	testl	%eax, %eax
	sete	%al
	movzbl	%al, %eax
	.loc 7 89 0
	leave
	ret
LFE1993:
	.section __TEXT,__textcoal_nt,coalesced,pure_instructions
	.align 1
.globl __ZNKSt6vectorISsSaISsEE4sizeEv
	.weak_definition __ZNKSt6vectorISsSaISsEE4sizeEv
	.private_extern __ZNKSt6vectorISsSaISsEE4sizeEv
__ZNKSt6vectorISsSaISsEE4sizeEv:
LFB2107:
	.file 8 "/Developer/SDKs/MacOSX10.6.sdk/usr/include/c++/4.2.1/bits/stl_vector.h"
	.loc 8 399 0
	nop
	nop
	nop
	nop
	nop
	nop
	pushq	%rbp
LCFI36:
	movq	%rsp, %rbp
LCFI37:
	movq	%rdi, -8(%rbp)
	.loc 8 400 0
	movq	-8(%rbp), %rax
	movq	8(%rax), %rax
	movq	%rax, %rdx
	movq	-8(%rbp), %rax
	movq	(%rax), %rax
	movq	%rdx, %rcx
	subq	%rax, %rcx
	movq	%rcx, %rax
	sarq	$3, %rax
	leave
	ret
LFE2107:
	.align 1
.globl __ZNKSt17_Rb_tree_iteratorISt4pairIKSsiEEneERKS3_
	.weak_definition __ZNKSt17_Rb_tree_iteratorISt4pairIKSsiEEneERKS3_
	.private_extern __ZNKSt17_Rb_tree_iteratorISt4pairIKSsiEEneERKS3_
__ZNKSt17_Rb_tree_iteratorISt4pairIKSsiEEneERKS3_:
LFB2112:
	.loc 3 217 0
	nop
	nop
	nop
	nop
	nop
	nop
	pushq	%rbp
LCFI38:
	movq	%rsp, %rbp
LCFI39:
	movq	%rdi, -8(%rbp)
	movq	%rsi, -16(%rbp)
	.loc 3 218 0
	movq	-8(%rbp), %rax
	movq	(%rax), %rdx
	movq	-16(%rbp), %rax
	movq	(%rax), %rax
	cmpq	%rax, %rdx
	setne	%al
	movzbl	%al, %eax
	leave
	ret
LFE2112:
	.align 1
.globl __ZNKSt17_Rb_tree_iteratorISt4pairIKSsiEEdeEv
	.weak_definition __ZNKSt17_Rb_tree_iteratorISt4pairIKSsiEEdeEv
	.private_extern __ZNKSt17_Rb_tree_iteratorISt4pairIKSsiEEdeEv
__ZNKSt17_Rb_tree_iteratorISt4pairIKSsiEEdeEv:
LFB2114:
	.loc 3 175 0
	nop
	nop
	nop
	nop
	nop
	nop
	pushq	%rbp
LCFI40:
	movq	%rsp, %rbp
LCFI41:
	movq	%rdi, -8(%rbp)
	.loc 3 176 0
	movq	-8(%rbp), %rax
	movq	(%rax), %rax
	addq	$32, %rax
	leave
	ret
LFE2114:
	.align 1
.globl __ZNKSt6vectorIS_ISsSaISsEESaIS1_EE4sizeEv
	.weak_definition __ZNKSt6vectorIS_ISsSaISsEESaIS1_EE4sizeEv
	.private_extern __ZNKSt6vectorIS_ISsSaISsEESaIS1_EE4sizeEv
__ZNKSt6vectorIS_ISsSaISsEESaIS1_EE4sizeEv:
LFB2115:
	.loc 8 399 0
	nop
	nop
	nop
	nop
	nop
	nop
	pushq	%rbp
LCFI42:
	movq	%rsp, %rbp
LCFI43:
	movq	%rdi, -8(%rbp)
	.loc 8 400 0
	movq	-8(%rbp), %rax
	movq	8(%rax), %rax
	movq	%rax, %rdx
	movq	-8(%rbp), %rax
	movq	(%rax), %rax
	movq	%rdx, %rcx
	subq	%rax, %rcx
	movq	%rcx, %rax
	movq	%rax, %rdx
	sarq	$3, %rdx
	movabsq	$-6148914691236517205, %rax
	imulq	%rdx, %rax
	leave
	ret
LFE2115:
	.align 1
.globl __ZNSt4pairIKSsiED1Ev
	.weak_definition __ZNSt4pairIKSsiED1Ev
	.private_extern __ZNSt4pairIKSsiED1Ev
__ZNSt4pairIKSsiED1Ev:
LFB2121:
	.file 9 "/Developer/SDKs/MacOSX10.6.sdk/usr/include/c++/4.2.1/bits/stl_pair.h"
	.loc 9 69 0
	nop
	nop
	nop
	nop
	nop
	nop
	pushq	%rbp
LCFI44:
	movq	%rsp, %rbp
LCFI45:
	subq	$16, %rsp
LCFI46:
	movq	%rdi, -8(%rbp)
	.loc 9 69 0
	movq	-8(%rbp), %rax
	movq	%rax, %rdi
	call	__ZNSsD1Ev
	leave
	ret
LFE2121:
	.align 1
.globl __ZNKSt17_Rb_tree_iteratorISt4pairIKSs5TableEEneERKS4_
	.weak_definition __ZNKSt17_Rb_tree_iteratorISt4pairIKSs5TableEEneERKS4_
	.private_extern __ZNKSt17_Rb_tree_iteratorISt4pairIKSs5TableEEneERKS4_
__ZNKSt17_Rb_tree_iteratorISt4pairIKSs5TableEEneERKS4_:
LFB2142:
	.loc 3 217 0
	nop
	nop
	nop
	nop
	nop
	nop
	pushq	%rbp
LCFI47:
	movq	%rsp, %rbp
LCFI48:
	movq	%rdi, -8(%rbp)
	movq	%rsi, -16(%rbp)
	.loc 3 218 0
	movq	-8(%rbp), %rax
	movq	(%rax), %rdx
	movq	-16(%rbp), %rax
	movq	(%rax), %rax
	cmpq	%rax, %rdx
	setne	%al
	movzbl	%al, %eax
	leave
	ret
LFE2142:
	.align 1
.globl __ZNKSt17_Rb_tree_iteratorISt4pairIKSs5TableEEdeEv
	.weak_definition __ZNKSt17_Rb_tree_iteratorISt4pairIKSs5TableEEdeEv
	.private_extern __ZNKSt17_Rb_tree_iteratorISt4pairIKSs5TableEEdeEv
__ZNKSt17_Rb_tree_iteratorISt4pairIKSs5TableEEdeEv:
LFB2144:
	.loc 3 175 0
	nop
	nop
	nop
	nop
	nop
	nop
	pushq	%rbp
LCFI49:
	movq	%rsp, %rbp
LCFI50:
	movq	%rdi, -8(%rbp)
	.loc 3 176 0
	movq	-8(%rbp), %rax
	movq	(%rax), %rax
	addq	$32, %rax
	leave
	ret
LFE2144:
	.align 1
.globl __ZNSt4pairIKiSsED1Ev
	.weak_definition __ZNSt4pairIKiSsED1Ev
	.private_extern __ZNSt4pairIKiSsED1Ev
__ZNSt4pairIKiSsED1Ev:
LFB2149:
	.loc 9 69 0
	nop
	nop
	nop
	nop
	nop
	nop
	pushq	%rbp
LCFI51:
	movq	%rsp, %rbp
LCFI52:
	subq	$16, %rsp
LCFI53:
	movq	%rdi, -8(%rbp)
	.loc 9 69 0
	movq	-8(%rbp), %rdi
	addq	$8, %rdi
	call	__ZNSsD1Ev
	leave
	ret
LFE2149:
	.align 1
.globl __ZNSt15binary_functionIiibEC2Ev
	.weak_definition __ZNSt15binary_functionIiibEC2Ev
	.private_extern __ZNSt15binary_functionIiibEC2Ev
__ZNSt15binary_functionIiibEC2Ev:
LFB2159:
	.loc 6 115 0
	nop
	nop
	nop
	nop
	nop
	nop
	pushq	%rbp
LCFI54:
	movq	%rsp, %rbp
LCFI55:
	movq	%rdi, -8(%rbp)
	.loc 6 115 0
	leave
	ret
LFE2159:
	.align 1
.globl __ZNSt4lessIiEC1Ev
	.weak_definition __ZNSt4lessIiEC1Ev
	.private_extern __ZNSt4lessIiEC1Ev
__ZNSt4lessIiEC1Ev:
LFB2162:
	.loc 6 224 0
	nop
	nop
	nop
	nop
	nop
	nop
	pushq	%rbp
LCFI56:
	movq	%rsp, %rbp
LCFI57:
	subq	$16, %rsp
LCFI58:
	movq	%rdi, -8(%rbp)
LBB9:
	.loc 6 224 0
	movq	-8(%rbp), %rdi
	call	__ZNSt15binary_functionIiibEC2Ev
LBE9:
	leave
	ret
LFE2162:
	.align 1
.globl __ZNSt8_Rb_treeISsSt4pairIKSsiESt10_Select1stIS2_ESt4lessISsESaIS2_EE8_M_beginEv
	.weak_definition __ZNSt8_Rb_treeISsSt4pairIKSsiESt10_Select1stIS2_ESt4lessISsESaIS2_EE8_M_beginEv
	.private_extern __ZNSt8_Rb_treeISsSt4pairIKSsiESt10_Select1stIS2_ESt4lessISsESaIS2_EE8_M_beginEv
__ZNSt8_Rb_treeISsSt4pairIKSsiESt10_Select1stIS2_ESt4lessISsESaIS2_EE8_M_beginEv:
LFB2202:
	.loc 3 476 0
	nop
	nop
	nop
	nop
	nop
	nop
	pushq	%rbp
LCFI59:
	movq	%rsp, %rbp
LCFI60:
	movq	%rdi, -8(%rbp)
	.loc 3 477 0
	movq	-8(%rbp), %rax
	movq	16(%rax), %rax
	leave
	ret
LFE2202:
	.align 1
.globl __ZNSt8_Rb_treeIiSt4pairIKiSsESt10_Select1stIS2_ESt4lessIiESaIS2_EE8_M_beginEv
	.weak_definition __ZNSt8_Rb_treeIiSt4pairIKiSsESt10_Select1stIS2_ESt4lessIiESaIS2_EE8_M_beginEv
	.private_extern __ZNSt8_Rb_treeIiSt4pairIKiSsESt10_Select1stIS2_ESt4lessIiESaIS2_EE8_M_beginEv
__ZNSt8_Rb_treeIiSt4pairIKiSsESt10_Select1stIS2_ESt4lessIiESaIS2_EE8_M_beginEv:
LFB2207:
	.loc 3 476 0
	nop
	nop
	nop
	nop
	nop
	nop
	pushq	%rbp
LCFI61:
	movq	%rsp, %rbp
LCFI62:
	movq	%rdi, -8(%rbp)
	.loc 3 477 0
	movq	-8(%rbp), %rax
	movq	16(%rax), %rax
	leave
	ret
LFE2207:
	.align 1
.globl __ZNSt12_Vector_baseISt6vectorISsSaISsEESaIS2_EE19_M_get_Tp_allocatorEv
	.weak_definition __ZNSt12_Vector_baseISt6vectorISsSaISsEESaIS2_EE19_M_get_Tp_allocatorEv
	.private_extern __ZNSt12_Vector_baseISt6vectorISsSaISsEESaIS2_EE19_M_get_Tp_allocatorEv
__ZNSt12_Vector_baseISt6vectorISsSaISsEESaIS2_EE19_M_get_Tp_allocatorEv:
LFB2214:
	.loc 8 96 0
	nop
	nop
	nop
	nop
	nop
	nop
	pushq	%rbp
LCFI63:
	movq	%rsp, %rbp
LCFI64:
	movq	%rdi, -8(%rbp)
	.loc 8 97 0
	movq	-8(%rbp), %rax
	leave
	ret
LFE2214:
	.align 1
.globl __ZN9__gnu_cxx13new_allocatorISsEC2Ev
	.weak_definition __ZN9__gnu_cxx13new_allocatorISsEC2Ev
	.private_extern __ZN9__gnu_cxx13new_allocatorISsEC2Ev
__ZN9__gnu_cxx13new_allocatorISsEC2Ev:
LFB2238:
	.file 10 "/Developer/SDKs/MacOSX10.6.sdk/usr/include/c++/4.2.1/ext/new_allocator.h"
	.loc 10 68 0
	nop
	nop
	nop
	nop
	nop
	nop
	pushq	%rbp
LCFI65:
	movq	%rsp, %rbp
LCFI66:
	movq	%rdi, -8(%rbp)
	.loc 10 68 0
	leave
	ret
LFE2238:
	.align 1
.globl __ZNSaISsEC1Ev
	.weak_definition __ZNSaISsEC1Ev
	.private_extern __ZNSaISsEC1Ev
__ZNSaISsEC1Ev:
LFB2057:
	.file 11 "/Developer/SDKs/MacOSX10.6.sdk/usr/include/c++/4.2.1/bits/allocator.h"
	.loc 11 100 0
	nop
	nop
	nop
	nop
	nop
	nop
	pushq	%rbp
LCFI67:
	movq	%rsp, %rbp
LCFI68:
	subq	$16, %rsp
LCFI69:
	movq	%rdi, -8(%rbp)
	.loc 11 100 0
	movq	-8(%rbp), %rdi
	call	__ZN9__gnu_cxx13new_allocatorISsEC2Ev
	leave
	ret
LFE2057:
	.align 1
.globl __ZN9__gnu_cxx13new_allocatorISsED2Ev
	.weak_definition __ZN9__gnu_cxx13new_allocatorISsED2Ev
	.private_extern __ZN9__gnu_cxx13new_allocatorISsED2Ev
__ZN9__gnu_cxx13new_allocatorISsED2Ev:
LFB2241:
	.loc 10 75 0
	nop
	nop
	nop
	nop
	nop
	nop
	pushq	%rbp
LCFI70:
	movq	%rsp, %rbp
LCFI71:
	movq	%rdi, -8(%rbp)
	.loc 10 75 0
	leave
	ret
LFE2241:
	.align 1
.globl __ZNSaISsED1Ev
	.weak_definition __ZNSaISsED1Ev
	.private_extern __ZNSaISsED1Ev
__ZNSaISsED1Ev:
LFB2060:
	.loc 11 108 0
	nop
	nop
	nop
	nop
	nop
	nop
	pushq	%rbp
LCFI72:
	movq	%rsp, %rbp
LCFI73:
	subq	$16, %rsp
LCFI74:
	movq	%rdi, -8(%rbp)
	.loc 11 108 0
	movq	-8(%rbp), %rdi
	call	__ZN9__gnu_cxx13new_allocatorISsED2Ev
	leave
	ret
LFE2060:
	.align 1
.globl __ZNSaISsED2Ev
	.weak_definition __ZNSaISsED2Ev
	.private_extern __ZNSaISsED2Ev
__ZNSaISsED2Ev:
LFB2059:
	.loc 11 108 0
	nop
	nop
	nop
	nop
	nop
	nop
	pushq	%rbp
LCFI75:
	movq	%rsp, %rbp
LCFI76:
	subq	$16, %rsp
LCFI77:
	movq	%rdi, -8(%rbp)
	.loc 11 108 0
	movq	-8(%rbp), %rdi
	call	__ZN9__gnu_cxx13new_allocatorISsED2Ev
	leave
	ret
LFE2059:
	.align 1
.globl __ZN9__gnu_cxx13new_allocatorISsEC2ERKS1_
	.weak_definition __ZN9__gnu_cxx13new_allocatorISsEC2ERKS1_
	.private_extern __ZN9__gnu_cxx13new_allocatorISsEC2ERKS1_
__ZN9__gnu_cxx13new_allocatorISsEC2ERKS1_:
LFB2244:
	.loc 10 70 0
	nop
	nop
	nop
	nop
	nop
	nop
	pushq	%rbp
LCFI78:
	movq	%rsp, %rbp
LCFI79:
	movq	%rdi, -8(%rbp)
	movq	%rsi, -16(%rbp)
	.loc 10 70 0
	leave
	ret
LFE2244:
	.align 1
.globl __ZNSaISsEC2ERKS_
	.weak_definition __ZNSaISsEC2ERKS_
	.private_extern __ZNSaISsEC2ERKS_
__ZNSaISsEC2ERKS_:
LFB2062:
	.loc 11 102 0
	nop
	nop
	nop
	nop
	nop
	nop
	pushq	%rbp
LCFI80:
	movq	%rsp, %rbp
LCFI81:
	subq	$16, %rsp
LCFI82:
	movq	%rdi, -8(%rbp)
	movq	%rsi, -16(%rbp)
	.loc 11 103 0
	movq	-16(%rbp), %rsi
	movq	-8(%rbp), %rdi
	call	__ZN9__gnu_cxx13new_allocatorISsEC2ERKS1_
	leave
	ret
LFE2062:
	.align 1
.globl __ZNSaISsEC1ERKS_
	.weak_definition __ZNSaISsEC1ERKS_
	.private_extern __ZNSaISsEC1ERKS_
__ZNSaISsEC1ERKS_:
LFB2063:
	.loc 11 102 0
	nop
	nop
	nop
	nop
	nop
	nop
	pushq	%rbp
LCFI83:
	movq	%rsp, %rbp
LCFI84:
	subq	$16, %rsp
LCFI85:
	movq	%rdi, -8(%rbp)
	movq	%rsi, -16(%rbp)
	.loc 11 103 0
	movq	-16(%rbp), %rsi
	movq	-8(%rbp), %rdi
	call	__ZN9__gnu_cxx13new_allocatorISsEC2ERKS1_
	leave
	ret
LFE2063:
	.align 1
.globl __ZNSt12_Vector_baseISsSaISsEE12_Vector_implD1Ev
	.weak_definition __ZNSt12_Vector_baseISsSaISsEE12_Vector_implD1Ev
	.private_extern __ZNSt12_Vector_baseISsSaISsEE12_Vector_implD1Ev
__ZNSt12_Vector_baseISsSaISsEE12_Vector_implD1Ev:
LFB2249:
	.loc 8 83 0
	nop
	nop
	nop
	nop
	nop
	nop
	pushq	%rbp
LCFI86:
	movq	%rsp, %rbp
LCFI87:
	subq	$16, %rsp
LCFI88:
	movq	%rdi, -8(%rbp)
	.loc 8 83 0
	movq	-8(%rbp), %rdi
	call	__ZNSaISsED2Ev
	leave
	ret
LFE2249:
	.align 1
.globl __ZN9__gnu_cxx17__normal_iteratorIPcSsEppEv
	.weak_definition __ZN9__gnu_cxx17__normal_iteratorIPcSsEppEv
	.private_extern __ZN9__gnu_cxx17__normal_iteratorIPcSsEppEv
__ZN9__gnu_cxx17__normal_iteratorIPcSsEppEv:
LFB2288:
	.file 12 "/Developer/SDKs/MacOSX10.6.sdk/usr/include/c++/4.2.1/bits/stl_iterator.h"
	.loc 12 673 0
	nop
	nop
	nop
	nop
	nop
	nop
	pushq	%rbp
LCFI89:
	movq	%rsp, %rbp
LCFI90:
	movq	%rdi, -8(%rbp)
	.loc 12 675 0
	movq	-8(%rbp), %rax
	movq	(%rax), %rax
	leaq	1(%rax), %rdx
	movq	-8(%rbp), %rax
	movq	%rdx, (%rax)
	.loc 12 676 0
	movq	-8(%rbp), %rax
	leave
	ret
LFE2288:
	.align 1
.globl __ZNK9__gnu_cxx17__normal_iteratorIPcSsEdeEv
	.weak_definition __ZNK9__gnu_cxx17__normal_iteratorIPcSsEdeEv
	.private_extern __ZNK9__gnu_cxx17__normal_iteratorIPcSsEdeEv
__ZNK9__gnu_cxx17__normal_iteratorIPcSsEdeEv:
LFB2289:
	.loc 12 665 0
	nop
	nop
	nop
	nop
	nop
	nop
	pushq	%rbp
LCFI91:
	movq	%rsp, %rbp
LCFI92:
	movq	%rdi, -8(%rbp)
	.loc 12 666 0
	movq	-8(%rbp), %rax
	movq	(%rax), %rax
	leave
	ret
LFE2289:
	.align 1
.globl __ZNSt12_Vector_baseISsSaISsEE19_M_get_Tp_allocatorEv
	.weak_definition __ZNSt12_Vector_baseISsSaISsEE19_M_get_Tp_allocatorEv
	.private_extern __ZNSt12_Vector_baseISsSaISsEE19_M_get_Tp_allocatorEv
__ZNSt12_Vector_baseISsSaISsEE19_M_get_Tp_allocatorEv:
LFB2290:
	.loc 8 96 0
	nop
	nop
	nop
	nop
	nop
	nop
	pushq	%rbp
LCFI93:
	movq	%rsp, %rbp
LCFI94:
	movq	%rdi, -8(%rbp)
	.loc 8 97 0
	movq	-8(%rbp), %rax
	leave
	ret
LFE2290:
	.align 1
.globl __ZNKSt17_Rb_tree_iteratorISt4pairIKSs5TableEEeqERKS4_
	.weak_definition __ZNKSt17_Rb_tree_iteratorISt4pairIKSs5TableEEeqERKS4_
	.private_extern __ZNKSt17_Rb_tree_iteratorISt4pairIKSs5TableEEeqERKS4_
__ZNKSt17_Rb_tree_iteratorISt4pairIKSs5TableEEeqERKS4_:
LFB2298:
	.loc 3 213 0
	nop
	nop
	nop
	nop
	nop
	nop
	pushq	%rbp
LCFI95:
	movq	%rsp, %rbp
LCFI96:
	movq	%rdi, -8(%rbp)
	movq	%rsi, -16(%rbp)
	.loc 3 214 0
	movq	-8(%rbp), %rax
	movq	(%rax), %rdx
	movq	-16(%rbp), %rax
	movq	(%rax), %rax
	cmpq	%rax, %rdx
	sete	%al
	movzbl	%al, %eax
	leave
	ret
LFE2298:
	.align 1
.globl __ZNKSt12_Vector_baseISt6vectorISsSaISsEESaIS2_EE19_M_get_Tp_allocatorEv
	.weak_definition __ZNKSt12_Vector_baseISt6vectorISsSaISsEESaIS2_EE19_M_get_Tp_allocatorEv
	.private_extern __ZNKSt12_Vector_baseISt6vectorISsSaISsEESaIS2_EE19_M_get_Tp_allocatorEv
__ZNKSt12_Vector_baseISt6vectorISsSaISsEESaIS2_EE19_M_get_Tp_allocatorEv:
LFB2309:
	.loc 8 100 0
	nop
	nop
	nop
	nop
	nop
	nop
	pushq	%rbp
LCFI97:
	movq	%rsp, %rbp
LCFI98:
	movq	%rdi, -8(%rbp)
	.loc 8 101 0
	movq	-8(%rbp), %rax
	leave
	ret
LFE2309:
	.align 1
.globl __ZNSt6vectorISsSaISsEEixEm
	.weak_definition __ZNSt6vectorISsSaISsEEixEm
	.private_extern __ZNSt6vectorISsSaISsEEixEm
__ZNSt6vectorISsSaISsEEixEm:
LFB2317:
	.loc 8 477 0
	nop
	nop
	nop
	nop
	nop
	nop
	pushq	%rbp
LCFI99:
	movq	%rsp, %rbp
LCFI100:
	movq	%rdi, -8(%rbp)
	movq	%rsi, -16(%rbp)
	.loc 8 478 0
	movq	-8(%rbp), %rax
	movq	(%rax), %rdx
	movq	-16(%rbp), %rax
	salq	$3, %rax
	leaq	(%rdx,%rax), %rax
	leave
	ret
LFE2317:
	.align 1
.globl __ZNSt6vectorIS_ISsSaISsEESaIS1_EEixEm
	.weak_definition __ZNSt6vectorIS_ISsSaISsEESaIS1_EEixEm
	.private_extern __ZNSt6vectorIS_ISsSaISsEESaIS1_EEixEm
__ZNSt6vectorIS_ISsSaISsEESaIS1_EEixEm:
LFB2322:
	.loc 8 477 0
	nop
	nop
	nop
	nop
	nop
	nop
	pushq	%rbp
LCFI101:
	movq	%rsp, %rbp
LCFI102:
	movq	%rdi, -8(%rbp)
	movq	%rsi, -16(%rbp)
	.loc 8 478 0
	movq	-8(%rbp), %rax
	movq	(%rax), %rcx
	movq	-16(%rbp), %rdx
	movq	%rdx, %rax
	addq	%rax, %rax
	addq	%rdx, %rax
	salq	$3, %rax
	leaq	(%rcx,%rax), %rax
	leave
	ret
LFE2322:
	.align 1
.globl __ZNKSt6vectorISsSaISsEE8capacityEv
	.weak_definition __ZNKSt6vectorISsSaISsEE8capacityEv
	.private_extern __ZNKSt6vectorISsSaISsEE8capacityEv
__ZNKSt6vectorISsSaISsEE8capacityEv:
LFB2323:
	.loc 8 432 0
	nop
	nop
	nop
	nop
	nop
	nop
	pushq	%rbp
LCFI103:
	movq	%rsp, %rbp
LCFI104:
	movq	%rdi, -8(%rbp)
	.loc 8 434 0
	movq	-8(%rbp), %rax
	movq	16(%rax), %rax
	movq	%rax, %rdx
	movq	-8(%rbp), %rax
	movq	(%rax), %rax
	movq	%rdx, %rcx
	subq	%rax, %rcx
	movq	%rcx, %rax
	sarq	$3, %rax
	leave
	ret
LFE2323:
	.align 1
.globl __ZNKSt17_Rb_tree_iteratorISt4pairIKSsiEEeqERKS3_
	.weak_definition __ZNKSt17_Rb_tree_iteratorISt4pairIKSsiEEeqERKS3_
	.private_extern __ZNKSt17_Rb_tree_iteratorISt4pairIKSsiEEeqERKS3_
__ZNKSt17_Rb_tree_iteratorISt4pairIKSsiEEeqERKS3_:
LFB2335:
	.loc 3 213 0
	nop
	nop
	nop
	nop
	nop
	nop
	pushq	%rbp
LCFI105:
	movq	%rsp, %rbp
LCFI106:
	movq	%rdi, -8(%rbp)
	movq	%rsi, -16(%rbp)
	.loc 3 214 0
	movq	-8(%rbp), %rax
	movq	(%rax), %rdx
	movq	-16(%rbp), %rax
	movq	(%rax), %rax
	cmpq	%rax, %rdx
	sete	%al
	movzbl	%al, %eax
	leave
	ret
LFE2335:
	.align 1
.globl __ZNKSt8_Rb_treeIiSt4pairIKiSsESt10_Select1stIS2_ESt4lessIiESaIS2_EE4sizeEv
	.weak_definition __ZNKSt8_Rb_treeIiSt4pairIKiSsESt10_Select1stIS2_ESt4lessIiESaIS2_EE4sizeEv
	.private_extern __ZNKSt8_Rb_treeIiSt4pairIKiSsESt10_Select1stIS2_ESt4lessIiESaIS2_EE4sizeEv
__ZNKSt8_Rb_treeIiSt4pairIKiSsESt10_Select1stIS2_ESt4lessIiESaIS2_EE4sizeEv:
LFB2357:
	.loc 3 650 0
	nop
	nop
	nop
	nop
	nop
	nop
	pushq	%rbp
LCFI107:
	movq	%rsp, %rbp
LCFI108:
	movq	%rdi, -8(%rbp)
	.loc 3 651 0
	movq	-8(%rbp), %rax
	movq	40(%rax), %rax
	leave
	ret
LFE2357:
	.align 1
.globl __ZNKSt3mapIiSsSt4lessIiESaISt4pairIKiSsEEE4sizeEv
	.weak_definition __ZNKSt3mapIiSsSt4lessIiESaISt4pairIKiSsEEE4sizeEv
	.private_extern __ZNKSt3mapIiSsSt4lessIiESaISt4pairIKiSsEEE4sizeEv
__ZNKSt3mapIiSsSt4lessIiESaISt4pairIKiSsEEE4sizeEv:
LFB2145:
	.file 13 "/Developer/SDKs/MacOSX10.6.sdk/usr/include/c++/4.2.1/bits/stl_map.h"
	.loc 13 320 0
	nop
	nop
	nop
	nop
	nop
	nop
	pushq	%rbp
LCFI109:
	movq	%rsp, %rbp
LCFI110:
	subq	$16, %rsp
LCFI111:
	movq	%rdi, -8(%rbp)
	.loc 13 321 0
	movq	-8(%rbp), %rdi
	call	__ZNKSt8_Rb_treeIiSt4pairIKiSsESt10_Select1stIS2_ESt4lessIiESaIS2_EE4sizeEv
	leave
	ret
LFE2145:
	.align 1
.globl __ZNKSt17_Rb_tree_iteratorISt4pairIKiSsEEdeEv
	.weak_definition __ZNKSt17_Rb_tree_iteratorISt4pairIKiSsEEdeEv
	.private_extern __ZNKSt17_Rb_tree_iteratorISt4pairIKiSsEEdeEv
__ZNKSt17_Rb_tree_iteratorISt4pairIKiSsEEdeEv:
LFB2360:
	.loc 3 175 0
	nop
	nop
	nop
	nop
	nop
	nop
	pushq	%rbp
LCFI112:
	movq	%rsp, %rbp
LCFI113:
	movq	%rdi, -8(%rbp)
	.loc 3 176 0
	movq	-8(%rbp), %rax
	movq	(%rax), %rax
	addq	$32, %rax
	leave
	ret
LFE2360:
	.align 1
.globl __ZNKSt4lessIiEclERKiS2_
	.weak_definition __ZNKSt4lessIiEclERKiS2_
	.private_extern __ZNKSt4lessIiEclERKiS2_
__ZNKSt4lessIiEclERKiS2_:
LFB2361:
	.loc 6 226 0
	nop
	nop
	nop
	nop
	nop
	nop
	pushq	%rbp
LCFI114:
	movq	%rsp, %rbp
LCFI115:
	movq	%rdi, -8(%rbp)
	movq	%rsi, -16(%rbp)
	movq	%rdx, -24(%rbp)
	.loc 6 227 0
	movq	-16(%rbp), %rax
	movl	(%rax), %edx
	movq	-24(%rbp), %rax
	movl	(%rax), %eax
	cmpl	%eax, %edx
	setl	%al
	movzbl	%al, %eax
	leave
	ret
LFE2361:
	.align 1
.globl __ZNKSt17_Rb_tree_iteratorISt4pairIKiSsEEeqERKS3_
	.weak_definition __ZNKSt17_Rb_tree_iteratorISt4pairIKiSsEEeqERKS3_
	.private_extern __ZNKSt17_Rb_tree_iteratorISt4pairIKiSsEEeqERKS3_
__ZNKSt17_Rb_tree_iteratorISt4pairIKiSsEEeqERKS3_:
LFB2363:
	.loc 3 213 0
	nop
	nop
	nop
	nop
	nop
	nop
	pushq	%rbp
LCFI116:
	movq	%rsp, %rbp
LCFI117:
	movq	%rdi, -8(%rbp)
	movq	%rsi, -16(%rbp)
	.loc 3 214 0
	movq	-8(%rbp), %rax
	movq	(%rax), %rdx
	movq	-16(%rbp), %rax
	movq	(%rax), %rax
	cmpq	%rax, %rdx
	sete	%al
	movzbl	%al, %eax
	leave
	ret
LFE2363:
	.align 1
.globl __ZN9__gnu_cxx13new_allocatorISt6vectorISsSaISsEEEC2Ev
	.weak_definition __ZN9__gnu_cxx13new_allocatorISt6vectorISsSaISsEEEC2Ev
	.private_extern __ZN9__gnu_cxx13new_allocatorISt6vectorISsSaISsEEEC2Ev
__ZN9__gnu_cxx13new_allocatorISt6vectorISsSaISsEEEC2Ev:
LFB2393:
	.loc 10 68 0
	nop
	nop
	nop
	nop
	nop
	nop
	pushq	%rbp
LCFI118:
	movq	%rsp, %rbp
LCFI119:
	movq	%rdi, -8(%rbp)
	.loc 10 68 0
	leave
	ret
LFE2393:
	.align 1
.globl __ZNSaISt6vectorISsSaISsEEEC1Ev
	.weak_definition __ZNSaISt6vectorISsSaISsEEEC1Ev
	.private_extern __ZNSaISt6vectorISsSaISsEEEC1Ev
__ZNSaISt6vectorISsSaISsEEEC1Ev:
LFB2167:
	.loc 11 100 0
	nop
	nop
	nop
	nop
	nop
	nop
	pushq	%rbp
LCFI120:
	movq	%rsp, %rbp
LCFI121:
	subq	$16, %rsp
LCFI122:
	movq	%rdi, -8(%rbp)
	.loc 11 100 0
	movq	-8(%rbp), %rdi
	call	__ZN9__gnu_cxx13new_allocatorISt6vectorISsSaISsEEEC2Ev
	leave
	ret
LFE2167:
	.align 1
.globl __ZN9__gnu_cxx13new_allocatorISt6vectorISsSaISsEEED2Ev
	.weak_definition __ZN9__gnu_cxx13new_allocatorISt6vectorISsSaISsEEED2Ev
	.private_extern __ZN9__gnu_cxx13new_allocatorISt6vectorISsSaISsEEED2Ev
__ZN9__gnu_cxx13new_allocatorISt6vectorISsSaISsEEED2Ev:
LFB2396:
	.loc 10 75 0
	nop
	nop
	nop
	nop
	nop
	nop
	pushq	%rbp
LCFI123:
	movq	%rsp, %rbp
LCFI124:
	movq	%rdi, -8(%rbp)
	.loc 10 75 0
	leave
	ret
LFE2396:
	.align 1
.globl __ZNSaISt6vectorISsSaISsEEED1Ev
	.weak_definition __ZNSaISt6vectorISsSaISsEEED1Ev
	.private_extern __ZNSaISt6vectorISsSaISsEEED1Ev
__ZNSaISt6vectorISsSaISsEEED1Ev:
LFB2170:
	.loc 11 108 0
	nop
	nop
	nop
	nop
	nop
	nop
	pushq	%rbp
LCFI125:
	movq	%rsp, %rbp
LCFI126:
	subq	$16, %rsp
LCFI127:
	movq	%rdi, -8(%rbp)
	.loc 11 108 0
	movq	-8(%rbp), %rdi
	call	__ZN9__gnu_cxx13new_allocatorISt6vectorISsSaISsEEED2Ev
	leave
	ret
LFE2170:
	.align 1
.globl __ZNSaISt6vectorISsSaISsEEED2Ev
	.weak_definition __ZNSaISt6vectorISsSaISsEEED2Ev
	.private_extern __ZNSaISt6vectorISsSaISsEEED2Ev
__ZNSaISt6vectorISsSaISsEEED2Ev:
LFB2169:
	.loc 11 108 0
	nop
	nop
	nop
	nop
	nop
	nop
	pushq	%rbp
LCFI128:
	movq	%rsp, %rbp
LCFI129:
	subq	$16, %rsp
LCFI130:
	movq	%rdi, -8(%rbp)
	.loc 11 108 0
	movq	-8(%rbp), %rdi
	call	__ZN9__gnu_cxx13new_allocatorISt6vectorISsSaISsEEED2Ev
	leave
	ret
LFE2169:
	.align 1
.globl __ZNSt12_Vector_baseISt6vectorISsSaISsEESaIS2_EE12_Vector_implD1Ev
	.weak_definition __ZNSt12_Vector_baseISt6vectorISsSaISsEESaIS2_EE12_Vector_implD1Ev
	.private_extern __ZNSt12_Vector_baseISt6vectorISsSaISsEESaIS2_EE12_Vector_implD1Ev
__ZNSt12_Vector_baseISt6vectorISsSaISsEESaIS2_EE12_Vector_implD1Ev:
LFB2211:
	.loc 8 83 0
	nop
	nop
	nop
	nop
	nop
	nop
	pushq	%rbp
LCFI131:
	movq	%rsp, %rbp
LCFI132:
	subq	$16, %rsp
LCFI133:
	movq	%rdi, -8(%rbp)
	.loc 8 83 0
	movq	-8(%rbp), %rdi
	call	__ZNSaISt6vectorISsSaISsEEED2Ev
	leave
	ret
LFE2211:
	.align 1
.globl __ZN9__gnu_cxx13new_allocatorISt6vectorISsSaISsEEEC2ERKS4_
	.weak_definition __ZN9__gnu_cxx13new_allocatorISt6vectorISsSaISsEEEC2ERKS4_
	.private_extern __ZN9__gnu_cxx13new_allocatorISt6vectorISsSaISsEEEC2ERKS4_
__ZN9__gnu_cxx13new_allocatorISt6vectorISsSaISsEEEC2ERKS4_:
LFB2399:
	.loc 10 70 0
	nop
	nop
	nop
	nop
	nop
	nop
	pushq	%rbp
LCFI134:
	movq	%rsp, %rbp
LCFI135:
	movq	%rdi, -8(%rbp)
	movq	%rsi, -16(%rbp)
	.loc 10 70 0
	leave
	ret
LFE2399:
	.align 1
.globl __ZNSaISt6vectorISsSaISsEEEC1ERKS2_
	.weak_definition __ZNSaISt6vectorISsSaISsEEEC1ERKS2_
	.private_extern __ZNSaISt6vectorISsSaISsEEEC1ERKS2_
__ZNSaISt6vectorISsSaISsEEEC1ERKS2_:
LFB2173:
	.loc 11 102 0
	nop
	nop
	nop
	nop
	nop
	nop
	pushq	%rbp
LCFI136:
	movq	%rsp, %rbp
LCFI137:
	subq	$16, %rsp
LCFI138:
	movq	%rdi, -8(%rbp)
	movq	%rsi, -16(%rbp)
	.loc 11 103 0
	movq	-16(%rbp), %rsi
	movq	-8(%rbp), %rdi
	call	__ZN9__gnu_cxx13new_allocatorISt6vectorISsSaISsEEEC2ERKS4_
	leave
	ret
LFE2173:
	.align 1
.globl __ZNSaISt6vectorISsSaISsEEEC2ERKS2_
	.weak_definition __ZNSaISt6vectorISsSaISsEEEC2ERKS2_
	.private_extern __ZNSaISt6vectorISsSaISsEEEC2ERKS2_
__ZNSaISt6vectorISsSaISsEEEC2ERKS2_:
LFB2172:
	.loc 11 102 0
	nop
	nop
	nop
	nop
	nop
	nop
	pushq	%rbp
LCFI139:
	movq	%rsp, %rbp
LCFI140:
	subq	$16, %rsp
LCFI141:
	movq	%rdi, -8(%rbp)
	movq	%rsi, -16(%rbp)
	.loc 11 103 0
	movq	-16(%rbp), %rsi
	movq	-8(%rbp), %rdi
	call	__ZN9__gnu_cxx13new_allocatorISt6vectorISsSaISsEEEC2ERKS4_
	leave
	ret
LFE2172:
	.align 1
.globl __ZNKSt6vectorIS_ISsSaISsEESaIS1_EE8capacityEv
	.weak_definition __ZNKSt6vectorIS_ISsSaISsEESaIS1_EE8capacityEv
	.private_extern __ZNKSt6vectorIS_ISsSaISsEESaIS1_EE8capacityEv
__ZNKSt6vectorIS_ISsSaISsEESaIS1_EE8capacityEv:
LFB2406:
	.loc 8 432 0
	nop
	nop
	nop
	nop
	nop
	nop
	pushq	%rbp
LCFI142:
	movq	%rsp, %rbp
LCFI143:
	movq	%rdi, -8(%rbp)
	.loc 8 434 0
	movq	-8(%rbp), %rax
	movq	16(%rax), %rax
	movq	%rax, %rdx
	movq	-8(%rbp), %rax
	movq	(%rax), %rax
	movq	%rdx, %rcx
	subq	%rax, %rcx
	movq	%rcx, %rax
	movq	%rax, %rdx
	sarq	$3, %rdx
	movabsq	$-6148914691236517205, %rax
	imulq	%rdx, %rax
	leave
	ret
LFE2406:
	.align 1
.globl __ZN9__gnu_cxx13new_allocatorISt13_Rb_tree_nodeISt4pairIKSsiEEED2Ev
	.weak_definition __ZN9__gnu_cxx13new_allocatorISt13_Rb_tree_nodeISt4pairIKSsiEEED2Ev
	.private_extern __ZN9__gnu_cxx13new_allocatorISt13_Rb_tree_nodeISt4pairIKSsiEEED2Ev
__ZN9__gnu_cxx13new_allocatorISt13_Rb_tree_nodeISt4pairIKSsiEEED2Ev:
LFB2420:
	.loc 10 75 0
	nop
	nop
	nop
	nop
	nop
	nop
	pushq	%rbp
LCFI144:
	movq	%rsp, %rbp
LCFI145:
	movq	%rdi, -8(%rbp)
	.loc 10 75 0
	leave
	ret
LFE2420:
	.align 1
.globl __ZNSaISt13_Rb_tree_nodeISt4pairIKSsiEEED2Ev
	.weak_definition __ZNSaISt13_Rb_tree_nodeISt4pairIKSsiEEED2Ev
	.private_extern __ZNSaISt13_Rb_tree_nodeISt4pairIKSsiEEED2Ev
__ZNSaISt13_Rb_tree_nodeISt4pairIKSsiEEED2Ev:
LFB2199:
	.loc 11 108 0
	nop
	nop
	nop
	nop
	nop
	nop
	pushq	%rbp
LCFI146:
	movq	%rsp, %rbp
LCFI147:
	subq	$16, %rsp
LCFI148:
	movq	%rdi, -8(%rbp)
	.loc 11 108 0
	movq	-8(%rbp), %rdi
	call	__ZN9__gnu_cxx13new_allocatorISt13_Rb_tree_nodeISt4pairIKSsiEEED2Ev
	leave
	ret
LFE2199:
	.align 1
.globl __ZNSt8_Rb_treeISsSt4pairIKSsiESt10_Select1stIS2_ESt4lessISsESaIS2_EE13_Rb_tree_implIS6_Lb0EED1Ev
	.weak_definition __ZNSt8_Rb_treeISsSt4pairIKSsiESt10_Select1stIS2_ESt4lessISsESaIS2_EE13_Rb_tree_implIS6_Lb0EED1Ev
	.private_extern __ZNSt8_Rb_treeISsSt4pairIKSsiESt10_Select1stIS2_ESt4lessISsESaIS2_EE13_Rb_tree_implIS6_Lb0EED1Ev
__ZNSt8_Rb_treeISsSt4pairIKSsiESt10_Select1stIS2_ESt4lessISsESaIS2_EE13_Rb_tree_implIS6_Lb0EED1Ev:
LFB2025:
	.loc 3 410 0
	nop
	nop
	nop
	nop
	nop
	nop
	pushq	%rbp
LCFI149:
	movq	%rsp, %rbp
LCFI150:
	subq	$16, %rsp
LCFI151:
	movq	%rdi, -8(%rbp)
	.loc 3 410 0
	movq	-8(%rbp), %rdi
	call	__ZNSaISt13_Rb_tree_nodeISt4pairIKSsiEEED2Ev
	leave
	ret
LFE2025:
	.align 1
.globl __ZNSaISt13_Rb_tree_nodeISt4pairIKSsiEEED1Ev
	.weak_definition __ZNSaISt13_Rb_tree_nodeISt4pairIKSsiEEED1Ev
	.private_extern __ZNSaISt13_Rb_tree_nodeISt4pairIKSsiEEED1Ev
__ZNSaISt13_Rb_tree_nodeISt4pairIKSsiEEED1Ev:
LFB2200:
	.loc 11 108 0
	nop
	nop
	nop
	nop
	nop
	nop
	pushq	%rbp
LCFI152:
	movq	%rsp, %rbp
LCFI153:
	subq	$16, %rsp
LCFI154:
	movq	%rdi, -8(%rbp)
	.loc 11 108 0
	movq	-8(%rbp), %rdi
	call	__ZN9__gnu_cxx13new_allocatorISt13_Rb_tree_nodeISt4pairIKSsiEEED2Ev
	leave
	ret
LFE2200:
.globl __ZNSt8_Rb_treeISsSt4pairIKSsiESt10_Select1stIS2_ESt4lessISsESaIS2_EE8_S_rightEPSt18_Rb_tree_node_base
	.weak_definition __ZNSt8_Rb_treeISsSt4pairIKSsiESt10_Select1stIS2_ESt4lessISsESaIS2_EE8_S_rightEPSt18_Rb_tree_node_base
	.private_extern __ZNSt8_Rb_treeISsSt4pairIKSsiESt10_Select1stIS2_ESt4lessISsESaIS2_EE8_S_rightEPSt18_Rb_tree_node_base
__ZNSt8_Rb_treeISsSt4pairIKSsiESt10_Select1stIS2_ESt4lessISsESaIS2_EE8_S_rightEPSt18_Rb_tree_node_base:
LFB2422:
	.loc 3 511 0
	nop
	nop
	nop
	nop
	nop
	nop
	pushq	%rbp
LCFI155:
	movq	%rsp, %rbp
LCFI156:
	movq	%rdi, -8(%rbp)
	.loc 3 512 0
	movq	-8(%rbp), %rax
	movq	24(%rax), %rax
	leave
	ret
LFE2422:
.globl __ZNSt8_Rb_treeISsSt4pairIKSsiESt10_Select1stIS2_ESt4lessISsESaIS2_EE7_S_leftEPSt18_Rb_tree_node_base
	.weak_definition __ZNSt8_Rb_treeISsSt4pairIKSsiESt10_Select1stIS2_ESt4lessISsESaIS2_EE7_S_leftEPSt18_Rb_tree_node_base
	.private_extern __ZNSt8_Rb_treeISsSt4pairIKSsiESt10_Select1stIS2_ESt4lessISsESaIS2_EE7_S_leftEPSt18_Rb_tree_node_base
__ZNSt8_Rb_treeISsSt4pairIKSsiESt10_Select1stIS2_ESt4lessISsESaIS2_EE7_S_leftEPSt18_Rb_tree_node_base:
LFB2423:
	.loc 3 503 0
	nop
	nop
	nop
	nop
	nop
	nop
	pushq	%rbp
LCFI157:
	movq	%rsp, %rbp
LCFI158:
	movq	%rdi, -8(%rbp)
	.loc 3 504 0
	movq	-8(%rbp), %rax
	movq	16(%rax), %rax
	leave
	ret
LFE2423:
	.align 1
.globl __ZN9__gnu_cxx13new_allocatorISt13_Rb_tree_nodeISt4pairIKiSsEEED2Ev
	.weak_definition __ZN9__gnu_cxx13new_allocatorISt13_Rb_tree_nodeISt4pairIKiSsEEED2Ev
	.private_extern __ZN9__gnu_cxx13new_allocatorISt13_Rb_tree_nodeISt4pairIKiSsEEED2Ev
__ZN9__gnu_cxx13new_allocatorISt13_Rb_tree_nodeISt4pairIKiSsEEED2Ev:
LFB2426:
	.loc 10 75 0
	nop
	nop
	nop
	nop
	nop
	nop
	pushq	%rbp
LCFI159:
	movq	%rsp, %rbp
LCFI160:
	movq	%rdi, -8(%rbp)
	.loc 10 75 0
	leave
	ret
LFE2426:
	.align 1
.globl __ZNSaISt13_Rb_tree_nodeISt4pairIKiSsEEED2Ev
	.weak_definition __ZNSaISt13_Rb_tree_nodeISt4pairIKiSsEEED2Ev
	.private_extern __ZNSaISt13_Rb_tree_nodeISt4pairIKiSsEEED2Ev
__ZNSaISt13_Rb_tree_nodeISt4pairIKiSsEEED2Ev:
LFB2204:
	.loc 11 108 0
	nop
	nop
	nop
	nop
	nop
	nop
	pushq	%rbp
LCFI161:
	movq	%rsp, %rbp
LCFI162:
	subq	$16, %rsp
LCFI163:
	movq	%rdi, -8(%rbp)
	.loc 11 108 0
	movq	-8(%rbp), %rdi
	call	__ZN9__gnu_cxx13new_allocatorISt13_Rb_tree_nodeISt4pairIKiSsEEED2Ev
	leave
	ret
LFE2204:
	.align 1
.globl __ZNSt8_Rb_treeIiSt4pairIKiSsESt10_Select1stIS2_ESt4lessIiESaIS2_EE13_Rb_tree_implIS6_Lb0EED1Ev
	.weak_definition __ZNSt8_Rb_treeIiSt4pairIKiSsESt10_Select1stIS2_ESt4lessIiESaIS2_EE13_Rb_tree_implIS6_Lb0EED1Ev
	.private_extern __ZNSt8_Rb_treeIiSt4pairIKiSsESt10_Select1stIS2_ESt4lessIiESaIS2_EE13_Rb_tree_implIS6_Lb0EED1Ev
__ZNSt8_Rb_treeIiSt4pairIKiSsESt10_Select1stIS2_ESt4lessIiESaIS2_EE13_Rb_tree_implIS6_Lb0EED1Ev:
LFB2031:
	.loc 3 410 0
	nop
	nop
	nop
	nop
	nop
	nop
	pushq	%rbp
LCFI164:
	movq	%rsp, %rbp
LCFI165:
	subq	$16, %rsp
LCFI166:
	movq	%rdi, -8(%rbp)
	.loc 3 410 0
	movq	-8(%rbp), %rdi
	call	__ZNSaISt13_Rb_tree_nodeISt4pairIKiSsEEED2Ev
	leave
	ret
LFE2031:
	.align 1
.globl __ZNSaISt13_Rb_tree_nodeISt4pairIKiSsEEED1Ev
	.weak_definition __ZNSaISt13_Rb_tree_nodeISt4pairIKiSsEEED1Ev
	.private_extern __ZNSaISt13_Rb_tree_nodeISt4pairIKiSsEEED1Ev
__ZNSaISt13_Rb_tree_nodeISt4pairIKiSsEEED1Ev:
LFB2205:
	.loc 11 108 0
	nop
	nop
	nop
	nop
	nop
	nop
	pushq	%rbp
LCFI167:
	movq	%rsp, %rbp
LCFI168:
	subq	$16, %rsp
LCFI169:
	movq	%rdi, -8(%rbp)
	.loc 11 108 0
	movq	-8(%rbp), %rdi
	call	__ZN9__gnu_cxx13new_allocatorISt13_Rb_tree_nodeISt4pairIKiSsEEED2Ev
	leave
	ret
LFE2205:
.globl __ZNSt8_Rb_treeIiSt4pairIKiSsESt10_Select1stIS2_ESt4lessIiESaIS2_EE8_S_rightEPSt18_Rb_tree_node_base
	.weak_definition __ZNSt8_Rb_treeIiSt4pairIKiSsESt10_Select1stIS2_ESt4lessIiESaIS2_EE8_S_rightEPSt18_Rb_tree_node_base
	.private_extern __ZNSt8_Rb_treeIiSt4pairIKiSsESt10_Select1stIS2_ESt4lessIiESaIS2_EE8_S_rightEPSt18_Rb_tree_node_base
__ZNSt8_Rb_treeIiSt4pairIKiSsESt10_Select1stIS2_ESt4lessIiESaIS2_EE8_S_rightEPSt18_Rb_tree_node_base:
LFB2428:
	.loc 3 511 0
	nop
	nop
	nop
	nop
	nop
	nop
	pushq	%rbp
LCFI170:
	movq	%rsp, %rbp
LCFI171:
	movq	%rdi, -8(%rbp)
	.loc 3 512 0
	movq	-8(%rbp), %rax
	movq	24(%rax), %rax
	leave
	ret
LFE2428:
.globl __ZNSt8_Rb_treeIiSt4pairIKiSsESt10_Select1stIS2_ESt4lessIiESaIS2_EE7_S_leftEPSt18_Rb_tree_node_base
	.weak_definition __ZNSt8_Rb_treeIiSt4pairIKiSsESt10_Select1stIS2_ESt4lessIiESaIS2_EE7_S_leftEPSt18_Rb_tree_node_base
	.private_extern __ZNSt8_Rb_treeIiSt4pairIKiSsESt10_Select1stIS2_ESt4lessIiESaIS2_EE7_S_leftEPSt18_Rb_tree_node_base
__ZNSt8_Rb_treeIiSt4pairIKiSsESt10_Select1stIS2_ESt4lessIiESaIS2_EE7_S_leftEPSt18_Rb_tree_node_base:
LFB2429:
	.loc 3 503 0
	nop
	nop
	nop
	nop
	nop
	nop
	pushq	%rbp
LCFI172:
	movq	%rsp, %rbp
LCFI173:
	movq	%rdi, -8(%rbp)
	.loc 3 504 0
	movq	-8(%rbp), %rax
	movq	16(%rax), %rax
	leave
	ret
LFE2429:
	.align 1
.globl __ZNSt8_Rb_treeISsSt4pairIKSsiESt10_Select1stIS2_ESt4lessISsESaIS2_EE6_M_endEv
	.weak_definition __ZNSt8_Rb_treeISsSt4pairIKSsiESt10_Select1stIS2_ESt4lessISsESaIS2_EE6_M_endEv
	.private_extern __ZNSt8_Rb_treeISsSt4pairIKSsiESt10_Select1stIS2_ESt4lessISsESaIS2_EE6_M_endEv
__ZNSt8_Rb_treeISsSt4pairIKSsiESt10_Select1stIS2_ESt4lessISsESaIS2_EE6_M_endEv:
LFB2432:
	.loc 3 487 0
	nop
	nop
	nop
	nop
	nop
	nop
	pushq	%rbp
LCFI174:
	movq	%rsp, %rbp
LCFI175:
	movq	%rdi, -8(%rbp)
	.loc 3 488 0
	movq	-8(%rbp), %rax
	addq	$8, %rax
	leave
	ret
LFE2432:
	.align 1
.globl __ZNSt8_Rb_treeISsSt4pairIKSsiESt10_Select1stIS2_ESt4lessISsESaIS2_EE11_M_leftmostEv
	.weak_definition __ZNSt8_Rb_treeISsSt4pairIKSsiESt10_Select1stIS2_ESt4lessISsESaIS2_EE11_M_leftmostEv
	.private_extern __ZNSt8_Rb_treeISsSt4pairIKSsiESt10_Select1stIS2_ESt4lessISsESaIS2_EE11_M_leftmostEv
__ZNSt8_Rb_treeISsSt4pairIKSsiESt10_Select1stIS2_ESt4lessISsESaIS2_EE11_M_leftmostEv:
LFB2433:
	.loc 3 460 0
	nop
	nop
	nop
	nop
	nop
	nop
	pushq	%rbp
LCFI176:
	movq	%rsp, %rbp
LCFI177:
	movq	%rdi, -8(%rbp)
	.loc 3 461 0
	movq	-8(%rbp), %rax
	addq	$24, %rax
	leave
	ret
LFE2433:
	.align 1
.globl __ZNSt8_Rb_treeISsSt4pairIKSsiESt10_Select1stIS2_ESt4lessISsESaIS2_EE7_M_rootEv
	.weak_definition __ZNSt8_Rb_treeISsSt4pairIKSsiESt10_Select1stIS2_ESt4lessISsESaIS2_EE7_M_rootEv
	.private_extern __ZNSt8_Rb_treeISsSt4pairIKSsiESt10_Select1stIS2_ESt4lessISsESaIS2_EE7_M_rootEv
__ZNSt8_Rb_treeISsSt4pairIKSsiESt10_Select1stIS2_ESt4lessISsESaIS2_EE7_M_rootEv:
LFB2434:
	.loc 3 452 0
	nop
	nop
	nop
	nop
	nop
	nop
	pushq	%rbp
LCFI178:
	movq	%rsp, %rbp
LCFI179:
	movq	%rdi, -8(%rbp)
	.loc 3 453 0
	movq	-8(%rbp), %rax
	addq	$16, %rax
	leave
	ret
LFE2434:
	.align 1
.globl __ZNSt8_Rb_treeISsSt4pairIKSsiESt10_Select1stIS2_ESt4lessISsESaIS2_EE12_M_rightmostEv
	.weak_definition __ZNSt8_Rb_treeISsSt4pairIKSsiESt10_Select1stIS2_ESt4lessISsESaIS2_EE12_M_rightmostEv
	.private_extern __ZNSt8_Rb_treeISsSt4pairIKSsiESt10_Select1stIS2_ESt4lessISsESaIS2_EE12_M_rightmostEv
__ZNSt8_Rb_treeISsSt4pairIKSsiESt10_Select1stIS2_ESt4lessISsESaIS2_EE12_M_rightmostEv:
LFB2435:
	.loc 3 468 0
	nop
	nop
	nop
	nop
	nop
	nop
	pushq	%rbp
LCFI180:
	movq	%rsp, %rbp
LCFI181:
	movq	%rdi, -8(%rbp)
	.loc 3 469 0
	movq	-8(%rbp), %rax
	addq	$32, %rax
	leave
	ret
LFE2435:
	.align 1
.globl __ZNSt8_Rb_treeIiSt4pairIKiSsESt10_Select1stIS2_ESt4lessIiESaIS2_EE6_M_endEv
	.weak_definition __ZNSt8_Rb_treeIiSt4pairIKiSsESt10_Select1stIS2_ESt4lessIiESaIS2_EE6_M_endEv
	.private_extern __ZNSt8_Rb_treeIiSt4pairIKiSsESt10_Select1stIS2_ESt4lessIiESaIS2_EE6_M_endEv
__ZNSt8_Rb_treeIiSt4pairIKiSsESt10_Select1stIS2_ESt4lessIiESaIS2_EE6_M_endEv:
LFB2436:
	.loc 3 487 0
	nop
	nop
	nop
	nop
	nop
	nop
	pushq	%rbp
LCFI182:
	movq	%rsp, %rbp
LCFI183:
	movq	%rdi, -8(%rbp)
	.loc 3 488 0
	movq	-8(%rbp), %rax
	addq	$8, %rax
	leave
	ret
LFE2436:
	.align 1
.globl __ZNSt8_Rb_treeIiSt4pairIKiSsESt10_Select1stIS2_ESt4lessIiESaIS2_EE11_M_leftmostEv
	.weak_definition __ZNSt8_Rb_treeIiSt4pairIKiSsESt10_Select1stIS2_ESt4lessIiESaIS2_EE11_M_leftmostEv
	.private_extern __ZNSt8_Rb_treeIiSt4pairIKiSsESt10_Select1stIS2_ESt4lessIiESaIS2_EE11_M_leftmostEv
__ZNSt8_Rb_treeIiSt4pairIKiSsESt10_Select1stIS2_ESt4lessIiESaIS2_EE11_M_leftmostEv:
LFB2437:
	.loc 3 460 0
	nop
	nop
	nop
	nop
	nop
	nop
	pushq	%rbp
LCFI184:
	movq	%rsp, %rbp
LCFI185:
	movq	%rdi, -8(%rbp)
	.loc 3 461 0
	movq	-8(%rbp), %rax
	addq	$24, %rax
	leave
	ret
LFE2437:
	.align 1
.globl __ZNSt8_Rb_treeIiSt4pairIKiSsESt10_Select1stIS2_ESt4lessIiESaIS2_EE7_M_rootEv
	.weak_definition __ZNSt8_Rb_treeIiSt4pairIKiSsESt10_Select1stIS2_ESt4lessIiESaIS2_EE7_M_rootEv
	.private_extern __ZNSt8_Rb_treeIiSt4pairIKiSsESt10_Select1stIS2_ESt4lessIiESaIS2_EE7_M_rootEv
__ZNSt8_Rb_treeIiSt4pairIKiSsESt10_Select1stIS2_ESt4lessIiESaIS2_EE7_M_rootEv:
LFB2438:
	.loc 3 452 0
	nop
	nop
	nop
	nop
	nop
	nop
	pushq	%rbp
LCFI186:
	movq	%rsp, %rbp
LCFI187:
	movq	%rdi, -8(%rbp)
	.loc 3 453 0
	movq	-8(%rbp), %rax
	addq	$16, %rax
	leave
	ret
LFE2438:
	.align 1
.globl __ZNSt8_Rb_treeIiSt4pairIKiSsESt10_Select1stIS2_ESt4lessIiESaIS2_EE12_M_rightmostEv
	.weak_definition __ZNSt8_Rb_treeIiSt4pairIKiSsESt10_Select1stIS2_ESt4lessIiESaIS2_EE12_M_rightmostEv
	.private_extern __ZNSt8_Rb_treeIiSt4pairIKiSsESt10_Select1stIS2_ESt4lessIiESaIS2_EE12_M_rightmostEv
__ZNSt8_Rb_treeIiSt4pairIKiSsESt10_Select1stIS2_ESt4lessIiESaIS2_EE12_M_rightmostEv:
LFB2439:
	.loc 3 468 0
	nop
	nop
	nop
	nop
	nop
	nop
	pushq	%rbp
LCFI188:
	movq	%rsp, %rbp
LCFI189:
	movq	%rdi, -8(%rbp)
	.loc 3 469 0
	movq	-8(%rbp), %rax
	addq	$32, %rax
	leave
	ret
LFE2439:
	.align 1
.globl __ZN9__gnu_cxx13new_allocatorISt4pairIKSs5TableEEC2Ev
	.weak_definition __ZN9__gnu_cxx13new_allocatorISt4pairIKSs5TableEEC2Ev
	.private_extern __ZN9__gnu_cxx13new_allocatorISt4pairIKSs5TableEEC2Ev
__ZN9__gnu_cxx13new_allocatorISt4pairIKSs5TableEEC2Ev:
LFB2441:
	.loc 10 68 0
	nop
	nop
	nop
	nop
	nop
	nop
	pushq	%rbp
LCFI190:
	movq	%rsp, %rbp
LCFI191:
	movq	%rdi, -8(%rbp)
	.loc 10 68 0
	leave
	ret
LFE2441:
	.align 1
.globl __ZNSaISt4pairIKSs5TableEEC1Ev
	.weak_definition __ZNSaISt4pairIKSs5TableEEC1Ev
	.private_extern __ZNSaISt4pairIKSs5TableEEC1Ev
__ZNSaISt4pairIKSs5TableEEC1Ev:
LFB2221:
	.loc 11 100 0
	nop
	nop
	nop
	nop
	nop
	nop
	pushq	%rbp
LCFI192:
	movq	%rsp, %rbp
LCFI193:
	subq	$16, %rsp
LCFI194:
	movq	%rdi, -8(%rbp)
	.loc 11 100 0
	movq	-8(%rbp), %rdi
	call	__ZN9__gnu_cxx13new_allocatorISt4pairIKSs5TableEEC2Ev
	leave
	ret
LFE2221:
	.align 1
.globl __ZN9__gnu_cxx13new_allocatorISt4pairIKSs5TableEED2Ev
	.weak_definition __ZN9__gnu_cxx13new_allocatorISt4pairIKSs5TableEED2Ev
	.private_extern __ZN9__gnu_cxx13new_allocatorISt4pairIKSs5TableEED2Ev
__ZN9__gnu_cxx13new_allocatorISt4pairIKSs5TableEED2Ev:
LFB2444:
	.loc 10 75 0
	nop
	nop
	nop
	nop
	nop
	nop
	pushq	%rbp
LCFI195:
	movq	%rsp, %rbp
LCFI196:
	movq	%rdi, -8(%rbp)
	.loc 10 75 0
	leave
	ret
LFE2444:
	.align 1
.globl __ZNSaISt4pairIKSs5TableEED1Ev
	.weak_definition __ZNSaISt4pairIKSs5TableEED1Ev
	.private_extern __ZNSaISt4pairIKSs5TableEED1Ev
__ZNSaISt4pairIKSs5TableEED1Ev:
LFB2224:
	.loc 11 108 0
	nop
	nop
	nop
	nop
	nop
	nop
	pushq	%rbp
LCFI197:
	movq	%rsp, %rbp
LCFI198:
	subq	$16, %rsp
LCFI199:
	movq	%rdi, -8(%rbp)
	.loc 11 108 0
	movq	-8(%rbp), %rdi
	call	__ZN9__gnu_cxx13new_allocatorISt4pairIKSs5TableEED2Ev
	leave
	ret
LFE2224:
	.align 1
.globl __ZNSt8_Rb_treeISsSt4pairIKSs5TableESt10_Select1stIS3_ESt4lessISsESaIS3_EE8_M_beginEv
	.weak_definition __ZNSt8_Rb_treeISsSt4pairIKSs5TableESt10_Select1stIS3_ESt4lessISsESaIS3_EE8_M_beginEv
	.private_extern __ZNSt8_Rb_treeISsSt4pairIKSs5TableESt10_Select1stIS3_ESt4lessISsESaIS3_EE8_M_beginEv
__ZNSt8_Rb_treeISsSt4pairIKSs5TableESt10_Select1stIS3_ESt4lessISsESaIS3_EE8_M_beginEv:
LFB2459:
	.loc 3 476 0
	nop
	nop
	nop
	nop
	nop
	nop
	pushq	%rbp
LCFI200:
	movq	%rsp, %rbp
LCFI201:
	movq	%rdi, -8(%rbp)
	.loc 3 477 0
	movq	-8(%rbp), %rax
	movq	16(%rax), %rax
	leave
	ret
LFE2459:
	.align 1
.globl __ZNSt12_Vector_baseISsSaISsEE12_Vector_implC1ERKS0_
	.weak_definition __ZNSt12_Vector_baseISsSaISsEE12_Vector_implC1ERKS0_
	.private_extern __ZNSt12_Vector_baseISsSaISsEE12_Vector_implC1ERKS0_
__ZNSt12_Vector_baseISsSaISsEE12_Vector_implC1ERKS0_:
LFB2462:
	.loc 8 87 0
	nop
	nop
	nop
	nop
	nop
	nop
	pushq	%rbp
LCFI202:
	movq	%rsp, %rbp
LCFI203:
	subq	$16, %rsp
LCFI204:
	movq	%rdi, -8(%rbp)
	movq	%rsi, -16(%rbp)
LBB10:
	.loc 8 88 0
	movq	-8(%rbp), %rdi
	movq	-16(%rbp), %rsi
	call	__ZNSaISsEC2ERKS_
	movq	-8(%rbp), %rax
	movq	$0, (%rax)
	movq	-8(%rbp), %rax
	movq	$0, 8(%rax)
	movq	-8(%rbp), %rax
	movq	$0, 16(%rax)
LBE10:
	.loc 8 89 0
	leave
	ret
LFE2462:
	.align 1
.globl __ZNSt12_Vector_baseISsSaISsEEC2ERKS0_
	.weak_definition __ZNSt12_Vector_baseISsSaISsEEC2ERKS0_
	.private_extern __ZNSt12_Vector_baseISsSaISsEEC2ERKS0_
__ZNSt12_Vector_baseISsSaISsEEC2ERKS0_:
LFB2250:
	.loc 8 107 0
	nop
	nop
	nop
	nop
	nop
	nop
	pushq	%rbp
LCFI205:
	movq	%rsp, %rbp
LCFI206:
	subq	$16, %rsp
LCFI207:
	movq	%rdi, -8(%rbp)
	movq	%rsi, -16(%rbp)
LBB11:
	.loc 8 108 0
	movq	-8(%rbp), %rdi
	movq	-16(%rbp), %rsi
	call	__ZNSt12_Vector_baseISsSaISsEE12_Vector_implC1ERKS0_
LBE11:
	.loc 8 109 0
	leave
	ret
LFE2250:
	.align 1
.globl __ZNSt6vectorISsSaISsEEC1ERKS0_
	.weak_definition __ZNSt6vectorISsSaISsEEC1ERKS0_
	.private_extern __ZNSt6vectorISsSaISsEEC1ERKS0_
__ZNSt6vectorISsSaISsEEC1ERKS0_:
LFB2066:
	.loc 8 201 0
	nop
	nop
	nop
	nop
	nop
	nop
	pushq	%rbp
LCFI208:
	movq	%rsp, %rbp
LCFI209:
	subq	$16, %rsp
LCFI210:
	movq	%rdi, -8(%rbp)
	movq	%rsi, -16(%rbp)
LBB12:
	.loc 8 202 0
	movq	-8(%rbp), %rdi
	movq	-16(%rbp), %rsi
	call	__ZNSt12_Vector_baseISsSaISsEEC2ERKS0_
LBE12:
	.loc 8 203 0
	leave
	ret
LFE2066:
	.align 1
.globl __ZNK9__gnu_cxx17__normal_iteratorIPcSsE4baseEv
	.weak_definition __ZNK9__gnu_cxx17__normal_iteratorIPcSsE4baseEv
	.private_extern __ZNK9__gnu_cxx17__normal_iteratorIPcSsE4baseEv
__ZNK9__gnu_cxx17__normal_iteratorIPcSsE4baseEv:
LFB2471:
	.loc 12 717 0
	nop
	nop
	nop
	nop
	nop
	nop
	pushq	%rbp
LCFI211:
	movq	%rsp, %rbp
LCFI212:
	movq	%rdi, -8(%rbp)
	.loc 12 718 0
	movq	-8(%rbp), %rax
	leave
	ret
LFE2471:
.globl __ZN9__gnu_cxxneIPcSsEEbRKNS_17__normal_iteratorIT_T0_EES7_
	.weak_definition __ZN9__gnu_cxxneIPcSsEEbRKNS_17__normal_iteratorIT_T0_EES7_
__ZN9__gnu_cxxneIPcSsEEbRKNS_17__normal_iteratorIT_T0_EES7_:
LFB2287:
	.loc 12 751 0
	nop
	nop
	nop
	nop
	nop
	nop
	pushq	%rbp
LCFI213:
	movq	%rsp, %rbp
LCFI214:
	pushq	%rbx
LCFI215:
	subq	$24, %rsp
LCFI216:
	movq	%rdi, -24(%rbp)
	movq	%rsi, -32(%rbp)
	.loc 12 752 0
	movq	-24(%rbp), %rdi
	call	__ZNK9__gnu_cxx17__normal_iteratorIPcSsE4baseEv
	movq	(%rax), %rbx
	movq	-32(%rbp), %rdi
	call	__ZNK9__gnu_cxx17__normal_iteratorIPcSsE4baseEv
	movq	(%rax), %rax
	cmpq	%rax, %rbx
	setne	%al
	movzbl	%al, %eax
	addq	$24, %rsp
	popq	%rbx
	leave
	ret
LFE2287:
.globl __ZSt7replaceIN9__gnu_cxx17__normal_iteratorIPcSsEEcEvT_S4_RKT0_S7_
	.weak_definition __ZSt7replaceIN9__gnu_cxx17__normal_iteratorIPcSsEEcEvT_S4_RKT0_S7_
__ZSt7replaceIN9__gnu_cxx17__normal_iteratorIPcSsEEcEvT_S4_RKT0_S7_:
LFB2086:
	.file 14 "/Developer/SDKs/MacOSX10.6.sdk/usr/include/c++/4.2.1/bits/stl_algo.h"
	.loc 14 992 0
	nop
	nop
	nop
	nop
	nop
	nop
	pushq	%rbp
LCFI217:
	movq	%rsp, %rbp
LCFI218:
	subq	$32, %rsp
LCFI219:
	movq	%rdi, -8(%rbp)
	movq	%rsi, -16(%rbp)
	movq	%rdx, -24(%rbp)
	movq	%rcx, -32(%rbp)
	.loc 14 1003 0
	jmp	L234
L235:
	.loc 14 1004 0
	leaq	-8(%rbp), %rdi
	call	__ZNK9__gnu_cxx17__normal_iteratorIPcSsEdeEv
	movzbl	(%rax), %eax
	movsbl	%al,%edx
	movq	-24(%rbp), %rax
	movzbl	(%rax), %eax
	movsbl	%al,%eax
	cmpl	%eax, %edx
	sete	%al
	testb	%al, %al
	je	L236
	.loc 14 1005 0
	leaq	-8(%rbp), %rdi
	call	__ZNK9__gnu_cxx17__normal_iteratorIPcSsEdeEv
	movq	%rax, %rdx
	movq	-32(%rbp), %rax
	movzbl	(%rax), %eax
	movb	%al, (%rdx)
L236:
	.loc 14 1003 0
	leaq	-8(%rbp), %rdi
	call	__ZN9__gnu_cxx17__normal_iteratorIPcSsEppEv
L234:
	leaq	-16(%rbp), %rsi
	leaq	-8(%rbp), %rdi
	call	__ZN9__gnu_cxxneIPcSsEEbRKNS_17__normal_iteratorIT_T0_EES7_
	testb	%al, %al
	jne	L235
	.loc 14 1005 0
	leave
	ret
LFE2086:
	.align 1
.globl __ZNK9__gnu_cxx17__normal_iteratorIPSsSt6vectorISsSaISsEEE4baseEv
	.weak_definition __ZNK9__gnu_cxx17__normal_iteratorIPSsSt6vectorISsSaISsEEE4baseEv
	.private_extern __ZNK9__gnu_cxx17__normal_iteratorIPSsSt6vectorISsSaISsEEE4baseEv
__ZNK9__gnu_cxx17__normal_iteratorIPSsSt6vectorISsSaISsEEE4baseEv:
LFB2473:
	.loc 12 717 0
	nop
	nop
	nop
	nop
	nop
	nop
	pushq	%rbp
LCFI220:
	movq	%rsp, %rbp
LCFI221:
	movq	%rdi, -8(%rbp)
	.loc 12 718 0
	movq	-8(%rbp), %rax
	leave
	ret
LFE2473:
	.align 1
.globl __ZNK9__gnu_cxx17__normal_iteratorIPSsSt6vectorISsSaISsEEEdeEv
	.weak_definition __ZNK9__gnu_cxx17__normal_iteratorIPSsSt6vectorISsSaISsEEEdeEv
	.private_extern __ZNK9__gnu_cxx17__normal_iteratorIPSsSt6vectorISsSaISsEEEdeEv
__ZNK9__gnu_cxx17__normal_iteratorIPSsSt6vectorISsSaISsEEEdeEv:
LFB2475:
	.loc 12 665 0
	nop
	nop
	nop
	nop
	nop
	nop
	pushq	%rbp
LCFI222:
	movq	%rsp, %rbp
LCFI223:
	movq	%rdi, -8(%rbp)
	.loc 12 666 0
	movq	-8(%rbp), %rax
	movq	(%rax), %rax
	leave
	ret
LFE2475:
	.align 1
.globl __ZN9__gnu_cxx17__normal_iteratorIPSsSt6vectorISsSaISsEEEC1ERKS1_
	.weak_definition __ZN9__gnu_cxx17__normal_iteratorIPSsSt6vectorISsSaISsEEEC1ERKS1_
	.private_extern __ZN9__gnu_cxx17__normal_iteratorIPSsSt6vectorISsSaISsEEEC1ERKS1_
__ZN9__gnu_cxx17__normal_iteratorIPSsSt6vectorISsSaISsEEEC1ERKS1_:
LFB2480:
	.loc 12 653 0
	nop
	nop
	nop
	nop
	nop
	nop
	pushq	%rbp
LCFI224:
	movq	%rsp, %rbp
LCFI225:
	movq	%rdi, -8(%rbp)
	movq	%rsi, -16(%rbp)
LBB13:
	.loc 12 653 0
	movq	-16(%rbp), %rax
	movq	(%rax), %rdx
	movq	-8(%rbp), %rax
	movq	%rdx, (%rax)
LBE13:
	leave
	ret
LFE2480:
	.align 1
.globl __ZNSt6vectorISsSaISsEE3endEv
	.weak_definition __ZNSt6vectorISsSaISsEE3endEv
	.private_extern __ZNSt6vectorISsSaISsEE3endEv
__ZNSt6vectorISsSaISsEE3endEv:
LFB2294:
	.loc 8 348 0
	nop
	nop
	nop
	nop
	nop
	nop
	pushq	%rbp
LCFI226:
	movq	%rsp, %rbp
LCFI227:
	subq	$32, %rsp
LCFI228:
	movq	%rdi, -24(%rbp)
	.loc 8 349 0
	movq	-24(%rbp), %rsi
	addq	$8, %rsi
	leaq	-16(%rbp), %rdi
	call	__ZN9__gnu_cxx17__normal_iteratorIPSsSt6vectorISsSaISsEEEC1ERKS1_
	movq	-16(%rbp), %rax
	leave
	ret
LFE2294:
	.align 1
.globl __ZNSt6vectorISsSaISsEE5beginEv
	.weak_definition __ZNSt6vectorISsSaISsEE5beginEv
	.private_extern __ZNSt6vectorISsSaISsEE5beginEv
__ZNSt6vectorISsSaISsEE5beginEv:
LFB2328:
	.loc 8 330 0
	nop
	nop
	nop
	nop
	nop
	nop
	pushq	%rbp
LCFI229:
	movq	%rsp, %rbp
LCFI230:
	subq	$32, %rsp
LCFI231:
	movq	%rdi, -24(%rbp)
	.loc 8 331 0
	movq	-24(%rbp), %rsi
	leaq	-16(%rbp), %rdi
	call	__ZN9__gnu_cxx17__normal_iteratorIPSsSt6vectorISsSaISsEEEC1ERKS1_
	movq	-16(%rbp), %rax
	leave
	ret
LFE2328:
	.align 1
.globl __ZNKSt8_Rb_treeISsSt4pairIKSs5TableESt10_Select1stIS3_ESt4lessISsESaIS3_EE8key_compEv
	.weak_definition __ZNKSt8_Rb_treeISsSt4pairIKSs5TableESt10_Select1stIS3_ESt4lessISsESaIS3_EE8key_compEv
	.private_extern __ZNKSt8_Rb_treeISsSt4pairIKSs5TableESt10_Select1stIS3_ESt4lessISsESaIS3_EE8key_compEv
__ZNKSt8_Rb_treeISsSt4pairIKSs5TableESt10_Select1stIS3_ESt4lessISsESaIS3_EE8key_compEv:
LFB2482:
	.loc 3 601 0
	nop
	nop
	nop
	nop
	nop
	nop
	pushq	%rbp
LCFI232:
	movq	%rsp, %rbp
LCFI233:
	movq	%rdi, -8(%rbp)
	.loc 3 602 0
	movzbl	-9(%rbp), %eax
	leave
	ret
LFE2482:
	.align 1
.globl __ZNKSt3mapISs5TableSt4lessISsESaISt4pairIKSsS0_EEE8key_compEv
	.weak_definition __ZNKSt3mapISs5TableSt4lessISsESaISt4pairIKSsS0_EEE8key_compEv
	.private_extern __ZNKSt3mapISs5TableSt4lessISsESaISt4pairIKSsS0_EEE8key_compEv
__ZNKSt3mapISs5TableSt4lessISsESaISt4pairIKSsS0_EEE8key_compEv:
LFB2296:
	.loc 13 517 0
	nop
	nop
	nop
	nop
	nop
	nop
	pushq	%rbp
LCFI234:
	movq	%rsp, %rbp
LCFI235:
	subq	$16, %rsp
LCFI236:
	movq	%rdi, -8(%rbp)
	.loc 13 518 0
	movq	-8(%rbp), %rdi
	call	__ZNKSt8_Rb_treeISsSt4pairIKSs5TableESt10_Select1stIS3_ESt4lessISsESaIS3_EE8key_compEv
	movzbl	-9(%rbp), %eax
	leave
	ret
LFE2296:
.globl __ZStltIcSt11char_traitsIcESaIcEEbRKSbIT_T0_T1_ES8_
	.weak_definition __ZStltIcSt11char_traitsIcESaIcEEbRKSbIT_T0_T1_ES8_
__ZStltIcSt11char_traitsIcESaIcEEbRKSbIT_T0_T1_ES8_:
LFB2483:
	.file 15 "/Developer/SDKs/MacOSX10.6.sdk/usr/include/c++/4.2.1/bits/basic_string.h"
	.loc 15 2227 0
	nop
	nop
	nop
	nop
	nop
	nop
	pushq	%rbp
LCFI237:
	movq	%rsp, %rbp
LCFI238:
	subq	$16, %rsp
LCFI239:
	movq	%rdi, -8(%rbp)
	movq	%rsi, -16(%rbp)
	.loc 15 2228 0
	movq	-16(%rbp), %rsi
	movq	-8(%rbp), %rdi
	call	__ZNKSs7compareERKSs
	shrl	$31, %eax
	leave
	ret
LFE2483:
	.align 1
.globl __ZNKSt4lessISsEclERKSsS2_
	.weak_definition __ZNKSt4lessISsEclERKSsS2_
	.private_extern __ZNKSt4lessISsEclERKSsS2_
__ZNKSt4lessISsEclERKSsS2_:
LFB2297:
	.loc 6 226 0
	nop
	nop
	nop
	nop
	nop
	nop
	pushq	%rbp
LCFI240:
	movq	%rsp, %rbp
LCFI241:
	subq	$32, %rsp
LCFI242:
	movq	%rdi, -8(%rbp)
	movq	%rsi, -16(%rbp)
	movq	%rdx, -24(%rbp)
	.loc 6 227 0
	movq	-24(%rbp), %rsi
	movq	-16(%rbp), %rdi
	call	__ZStltIcSt11char_traitsIcESaIcEEbRKSbIT_T0_T1_ES8_
	movzbl	%al, %eax
	leave
	ret
LFE2297:
	.align 1
.globl __ZNSt14unary_functionISt4pairIKSs5TableES1_EC2Ev
	.weak_definition __ZNSt14unary_functionISt4pairIKSs5TableES1_EC2Ev
	.private_extern __ZNSt14unary_functionISt4pairIKSs5TableES1_EC2Ev
__ZNSt14unary_functionISt4pairIKSs5TableES1_EC2Ev:
LFB2487:
	.loc 6 103 0
	nop
	nop
	nop
	nop
	nop
	nop
	pushq	%rbp
LCFI243:
	movq	%rsp, %rbp
LCFI244:
	movq	%rdi, -8(%rbp)
	.loc 6 103 0
	leave
	ret
LFE2487:
	.align 1
.globl __ZNSt10_Select1stISt4pairIKSs5TableEEC1Ev
	.weak_definition __ZNSt10_Select1stISt4pairIKSs5TableEEC1Ev
	.private_extern __ZNSt10_Select1stISt4pairIKSs5TableEEC1Ev
__ZNSt10_Select1stISt4pairIKSs5TableEEC1Ev:
LFB2490:
	.loc 6 544 0
	nop
	nop
	nop
	nop
	nop
	nop
	pushq	%rbp
LCFI245:
	movq	%rsp, %rbp
LCFI246:
	subq	$16, %rsp
LCFI247:
	movq	%rdi, -8(%rbp)
LBB14:
	.loc 6 544 0
	movq	-8(%rbp), %rdi
	call	__ZNSt14unary_functionISt4pairIKSs5TableES1_EC2Ev
LBE14:
	leave
	ret
LFE2490:
	.align 1
.globl __ZNKSt8_Rb_treeISsSt4pairIKSsiESt10_Select1stIS2_ESt4lessISsESaIS2_EE21_M_get_Node_allocatorEv
	.weak_definition __ZNKSt8_Rb_treeISsSt4pairIKSsiESt10_Select1stIS2_ESt4lessISsESaIS2_EE21_M_get_Node_allocatorEv
	.private_extern __ZNKSt8_Rb_treeISsSt4pairIKSsiESt10_Select1stIS2_ESt4lessISsESaIS2_EE21_M_get_Node_allocatorEv
__ZNKSt8_Rb_treeISsSt4pairIKSsiESt10_Select1stIS2_ESt4lessISsESaIS2_EE21_M_get_Node_allocatorEv:
LFB2491:
	.loc 3 359 0
	nop
	nop
	nop
	nop
	nop
	nop
	pushq	%rbp
LCFI248:
	movq	%rsp, %rbp
LCFI249:
	movq	%rdi, -8(%rbp)
	.loc 3 360 0
	movq	-8(%rbp), %rax
	leave
	ret
LFE2491:
	.align 1
.globl __ZNKSt8_Rb_treeISsSt4pairIKSsiESt10_Select1stIS2_ESt4lessISsESaIS2_EE7_M_rootEv
	.weak_definition __ZNKSt8_Rb_treeISsSt4pairIKSsiESt10_Select1stIS2_ESt4lessISsESaIS2_EE7_M_rootEv
	.private_extern __ZNKSt8_Rb_treeISsSt4pairIKSsiESt10_Select1stIS2_ESt4lessISsESaIS2_EE7_M_rootEv
__ZNKSt8_Rb_treeISsSt4pairIKSsiESt10_Select1stIS2_ESt4lessISsESaIS2_EE7_M_rootEv:
LFB2495:
	.loc 3 456 0
	nop
	nop
	nop
	nop
	nop
	nop
	pushq	%rbp
LCFI250:
	movq	%rsp, %rbp
LCFI251:
	movq	%rdi, -8(%rbp)
	.loc 3 457 0
	movq	-8(%rbp), %rax
	movq	16(%rax), %rax
	leave
	ret
LFE2495:
	.align 1
.globl __ZNKSt8_Rb_treeISsSt4pairIKSsiESt10_Select1stIS2_ESt4lessISsESaIS2_EE8_M_beginEv
	.weak_definition __ZNKSt8_Rb_treeISsSt4pairIKSsiESt10_Select1stIS2_ESt4lessISsESaIS2_EE8_M_beginEv
	.private_extern __ZNKSt8_Rb_treeISsSt4pairIKSsiESt10_Select1stIS2_ESt4lessISsESaIS2_EE8_M_beginEv
__ZNKSt8_Rb_treeISsSt4pairIKSsiESt10_Select1stIS2_ESt4lessISsESaIS2_EE8_M_beginEv:
LFB2497:
	.loc 3 480 0
	nop
	nop
	nop
	nop
	nop
	nop
	pushq	%rbp
LCFI252:
	movq	%rsp, %rbp
LCFI253:
	movq	%rdi, -8(%rbp)
	.loc 3 483 0
	movq	-8(%rbp), %rax
	movq	16(%rax), %rax
	leave
	ret
LFE2497:
.globl __ZNSt8_Rb_treeISsSt4pairIKSsiESt10_Select1stIS2_ESt4lessISsESaIS2_EE10_S_minimumEPSt18_Rb_tree_node_base
	.weak_definition __ZNSt8_Rb_treeISsSt4pairIKSsiESt10_Select1stIS2_ESt4lessISsESaIS2_EE10_S_minimumEPSt18_Rb_tree_node_base
	.private_extern __ZNSt8_Rb_treeISsSt4pairIKSsiESt10_Select1stIS2_ESt4lessISsESaIS2_EE10_S_minimumEPSt18_Rb_tree_node_base
__ZNSt8_Rb_treeISsSt4pairIKSsiESt10_Select1stIS2_ESt4lessISsESaIS2_EE10_S_minimumEPSt18_Rb_tree_node_base:
LFB2498:
	.loc 3 527 0
	nop
	nop
	nop
	nop
	nop
	nop
	pushq	%rbp
LCFI254:
	movq	%rsp, %rbp
LCFI255:
	subq	$16, %rsp
LCFI256:
	movq	%rdi, -8(%rbp)
	.loc 3 528 0
	movq	-8(%rbp), %rdi
	call	__ZNSt18_Rb_tree_node_base10_S_minimumEPS_
	leave
	ret
LFE2498:
.globl __ZNSt8_Rb_treeISsSt4pairIKSsiESt10_Select1stIS2_ESt4lessISsESaIS2_EE10_S_maximumEPSt18_Rb_tree_node_base
	.weak_definition __ZNSt8_Rb_treeISsSt4pairIKSsiESt10_Select1stIS2_ESt4lessISsESaIS2_EE10_S_maximumEPSt18_Rb_tree_node_base
	.private_extern __ZNSt8_Rb_treeISsSt4pairIKSsiESt10_Select1stIS2_ESt4lessISsESaIS2_EE10_S_maximumEPSt18_Rb_tree_node_base
__ZNSt8_Rb_treeISsSt4pairIKSsiESt10_Select1stIS2_ESt4lessISsESaIS2_EE10_S_maximumEPSt18_Rb_tree_node_base:
LFB2499:
	.loc 3 535 0
	nop
	nop
	nop
	nop
	nop
	nop
	pushq	%rbp
LCFI257:
	movq	%rsp, %rbp
LCFI258:
	subq	$16, %rsp
LCFI259:
	movq	%rdi, -8(%rbp)
	.loc 3 536 0
	movq	-8(%rbp), %rdi
	call	__ZNSt18_Rb_tree_node_base10_S_maximumEPS_
	leave
	ret
LFE2499:
	.align 1
.globl __ZNKSt8_Rb_treeIiSt4pairIKiSsESt10_Select1stIS2_ESt4lessIiESaIS2_EE21_M_get_Node_allocatorEv
	.weak_definition __ZNKSt8_Rb_treeIiSt4pairIKiSsESt10_Select1stIS2_ESt4lessIiESaIS2_EE21_M_get_Node_allocatorEv
	.private_extern __ZNKSt8_Rb_treeIiSt4pairIKiSsESt10_Select1stIS2_ESt4lessIiESaIS2_EE21_M_get_Node_allocatorEv
__ZNKSt8_Rb_treeIiSt4pairIKiSsESt10_Select1stIS2_ESt4lessIiESaIS2_EE21_M_get_Node_allocatorEv:
LFB2500:
	.loc 3 359 0
	nop
	nop
	nop
	nop
	nop
	nop
	pushq	%rbp
LCFI260:
	movq	%rsp, %rbp
LCFI261:
	movq	%rdi, -8(%rbp)
	.loc 3 360 0
	movq	-8(%rbp), %rax
	leave
	ret
LFE2500:
	.align 1
.globl __ZNKSt8_Rb_treeIiSt4pairIKiSsESt10_Select1stIS2_ESt4lessIiESaIS2_EE7_M_rootEv
	.weak_definition __ZNKSt8_Rb_treeIiSt4pairIKiSsESt10_Select1stIS2_ESt4lessIiESaIS2_EE7_M_rootEv
	.private_extern __ZNKSt8_Rb_treeIiSt4pairIKiSsESt10_Select1stIS2_ESt4lessIiESaIS2_EE7_M_rootEv
__ZNKSt8_Rb_treeIiSt4pairIKiSsESt10_Select1stIS2_ESt4lessIiESaIS2_EE7_M_rootEv:
LFB2504:
	.loc 3 456 0
	nop
	nop
	nop
	nop
	nop
	nop
	pushq	%rbp
LCFI262:
	movq	%rsp, %rbp
LCFI263:
	movq	%rdi, -8(%rbp)
	.loc 3 457 0
	movq	-8(%rbp), %rax
	movq	16(%rax), %rax
	leave
	ret
LFE2504:
	.align 1
.globl __ZNKSt8_Rb_treeIiSt4pairIKiSsESt10_Select1stIS2_ESt4lessIiESaIS2_EE8_M_beginEv
	.weak_definition __ZNKSt8_Rb_treeIiSt4pairIKiSsESt10_Select1stIS2_ESt4lessIiESaIS2_EE8_M_beginEv
	.private_extern __ZNKSt8_Rb_treeIiSt4pairIKiSsESt10_Select1stIS2_ESt4lessIiESaIS2_EE8_M_beginEv
__ZNKSt8_Rb_treeIiSt4pairIKiSsESt10_Select1stIS2_ESt4lessIiESaIS2_EE8_M_beginEv:
LFB2506:
	.loc 3 480 0
	nop
	nop
	nop
	nop
	nop
	nop
	pushq	%rbp
LCFI264:
	movq	%rsp, %rbp
LCFI265:
	movq	%rdi, -8(%rbp)
	.loc 3 483 0
	movq	-8(%rbp), %rax
	movq	16(%rax), %rax
	leave
	ret
LFE2506:
.globl __ZNSt8_Rb_treeIiSt4pairIKiSsESt10_Select1stIS2_ESt4lessIiESaIS2_EE10_S_minimumEPSt18_Rb_tree_node_base
	.weak_definition __ZNSt8_Rb_treeIiSt4pairIKiSsESt10_Select1stIS2_ESt4lessIiESaIS2_EE10_S_minimumEPSt18_Rb_tree_node_base
	.private_extern __ZNSt8_Rb_treeIiSt4pairIKiSsESt10_Select1stIS2_ESt4lessIiESaIS2_EE10_S_minimumEPSt18_Rb_tree_node_base
__ZNSt8_Rb_treeIiSt4pairIKiSsESt10_Select1stIS2_ESt4lessIiESaIS2_EE10_S_minimumEPSt18_Rb_tree_node_base:
LFB2507:
	.loc 3 527 0
	nop
	nop
	nop
	nop
	nop
	nop
	pushq	%rbp
LCFI266:
	movq	%rsp, %rbp
LCFI267:
	subq	$16, %rsp
LCFI268:
	movq	%rdi, -8(%rbp)
	.loc 3 528 0
	movq	-8(%rbp), %rdi
	call	__ZNSt18_Rb_tree_node_base10_S_minimumEPS_
	leave
	ret
LFE2507:
.globl __ZNSt8_Rb_treeIiSt4pairIKiSsESt10_Select1stIS2_ESt4lessIiESaIS2_EE10_S_maximumEPSt18_Rb_tree_node_base
	.weak_definition __ZNSt8_Rb_treeIiSt4pairIKiSsESt10_Select1stIS2_ESt4lessIiESaIS2_EE10_S_maximumEPSt18_Rb_tree_node_base
	.private_extern __ZNSt8_Rb_treeIiSt4pairIKiSsESt10_Select1stIS2_ESt4lessIiESaIS2_EE10_S_maximumEPSt18_Rb_tree_node_base
__ZNSt8_Rb_treeIiSt4pairIKiSsESt10_Select1stIS2_ESt4lessIiESaIS2_EE10_S_maximumEPSt18_Rb_tree_node_base:
LFB2508:
	.loc 3 535 0
	nop
	nop
	nop
	nop
	nop
	nop
	pushq	%rbp
LCFI269:
	movq	%rsp, %rbp
LCFI270:
	subq	$16, %rsp
LCFI271:
	movq	%rdi, -8(%rbp)
	.loc 3 536 0
	movq	-8(%rbp), %rdi
	call	__ZNSt18_Rb_tree_node_base10_S_maximumEPS_
	leave
	ret
LFE2508:
	.align 1
.globl __ZNSt12_Vector_baseISt6vectorISsSaISsEESaIS2_EE12_Vector_implC1ERKS3_
	.weak_definition __ZNSt12_Vector_baseISt6vectorISsSaISsEESaIS2_EE12_Vector_implC1ERKS3_
	.private_extern __ZNSt12_Vector_baseISt6vectorISsSaISsEESaIS2_EE12_Vector_implC1ERKS3_
__ZNSt12_Vector_baseISt6vectorISsSaISsEESaIS2_EE12_Vector_implC1ERKS3_:
LFB2511:
	.loc 8 87 0
	nop
	nop
	nop
	nop
	nop
	nop
	pushq	%rbp
LCFI272:
	movq	%rsp, %rbp
LCFI273:
	subq	$16, %rsp
LCFI274:
	movq	%rdi, -8(%rbp)
	movq	%rsi, -16(%rbp)
LBB15:
	.loc 8 88 0
	movq	-8(%rbp), %rdi
	movq	-16(%rbp), %rsi
	call	__ZNSaISt6vectorISsSaISsEEEC2ERKS2_
	movq	-8(%rbp), %rax
	movq	$0, (%rax)
	movq	-8(%rbp), %rax
	movq	$0, 8(%rax)
	movq	-8(%rbp), %rax
	movq	$0, 16(%rax)
LBE15:
	.loc 8 89 0
	leave
	ret
LFE2511:
	.align 1
.globl __ZNSt12_Vector_baseISt6vectorISsSaISsEESaIS2_EEC2ERKS3_
	.weak_definition __ZNSt12_Vector_baseISt6vectorISsSaISsEESaIS2_EEC2ERKS3_
	.private_extern __ZNSt12_Vector_baseISt6vectorISsSaISsEESaIS2_EEC2ERKS3_
__ZNSt12_Vector_baseISt6vectorISsSaISsEESaIS2_EEC2ERKS3_:
LFB2402:
	.loc 8 107 0
	nop
	nop
	nop
	nop
	nop
	nop
	pushq	%rbp
LCFI275:
	movq	%rsp, %rbp
LCFI276:
	subq	$16, %rsp
LCFI277:
	movq	%rdi, -8(%rbp)
	movq	%rsi, -16(%rbp)
LBB16:
	.loc 8 108 0
	movq	-8(%rbp), %rdi
	movq	-16(%rbp), %rsi
	call	__ZNSt12_Vector_baseISt6vectorISsSaISsEESaIS2_EE12_Vector_implC1ERKS3_
LBE16:
	.loc 8 109 0
	leave
	ret
LFE2402:
	.align 1
.globl __ZNSt6vectorIS_ISsSaISsEESaIS1_EEC1ERKS2_
	.weak_definition __ZNSt6vectorIS_ISsSaISsEESaIS1_EEC1ERKS2_
	.private_extern __ZNSt6vectorIS_ISsSaISsEESaIS1_EEC1ERKS2_
__ZNSt6vectorIS_ISsSaISsEESaIS1_EEC1ERKS2_:
LFB2176:
	.loc 8 201 0
	nop
	nop
	nop
	nop
	nop
	nop
	pushq	%rbp
LCFI278:
	movq	%rsp, %rbp
LCFI279:
	subq	$16, %rsp
LCFI280:
	movq	%rdi, -8(%rbp)
	movq	%rsi, -16(%rbp)
LBB17:
	.loc 8 202 0
	movq	-8(%rbp), %rdi
	movq	-16(%rbp), %rsi
	call	__ZNSt12_Vector_baseISt6vectorISsSaISsEESaIS2_EEC2ERKS3_
LBE17:
	.loc 8 203 0
	leave
	ret
LFE2176:
	.align 1
.globl __ZN9__gnu_cxx17__normal_iteratorIPKSt6vectorISsSaISsEES1_IS3_SaIS3_EEEC1ERKS5_
	.weak_definition __ZN9__gnu_cxx17__normal_iteratorIPKSt6vectorISsSaISsEES1_IS3_SaIS3_EEEC1ERKS5_
	.private_extern __ZN9__gnu_cxx17__normal_iteratorIPKSt6vectorISsSaISsEES1_IS3_SaIS3_EEEC1ERKS5_
__ZN9__gnu_cxx17__normal_iteratorIPKSt6vectorISsSaISsEES1_IS3_SaIS3_EEEC1ERKS5_:
LFB2515:
	.loc 12 653 0
	nop
	nop
	nop
	nop
	nop
	nop
	pushq	%rbp
LCFI281:
	movq	%rsp, %rbp
LCFI282:
	movq	%rdi, -8(%rbp)
	movq	%rsi, -16(%rbp)
LBB18:
	.loc 12 653 0
	movq	-16(%rbp), %rax
	movq	(%rax), %rdx
	movq	-8(%rbp), %rax
	movq	%rdx, (%rax)
LBE18:
	leave
	ret
LFE2515:
	.align 1
.globl __ZNKSt6vectorIS_ISsSaISsEESaIS1_EE3endEv
	.weak_definition __ZNKSt6vectorIS_ISsSaISsEESaIS1_EE3endEv
	.private_extern __ZNKSt6vectorIS_ISsSaISsEESaIS1_EE3endEv
__ZNKSt6vectorIS_ISsSaISsEESaIS1_EE3endEv:
LFB2314:
	.loc 8 357 0
	nop
	nop
	nop
	nop
	nop
	nop
	pushq	%rbp
LCFI283:
	movq	%rsp, %rbp
LCFI284:
	subq	$32, %rsp
LCFI285:
	movq	%rdi, -24(%rbp)
	.loc 8 358 0
	movq	-24(%rbp), %rax
	movq	8(%rax), %rax
	movq	%rax, -8(%rbp)
	leaq	-8(%rbp), %rsi
	leaq	-16(%rbp), %rdi
	call	__ZN9__gnu_cxx17__normal_iteratorIPKSt6vectorISsSaISsEES1_IS3_SaIS3_EEEC1ERKS5_
	movq	-16(%rbp), %rax
	leave
	ret
LFE2314:
	.align 1
.globl __ZNKSt6vectorIS_ISsSaISsEESaIS1_EE5beginEv
	.weak_definition __ZNKSt6vectorIS_ISsSaISsEESaIS1_EE5beginEv
	.private_extern __ZNKSt6vectorIS_ISsSaISsEESaIS1_EE5beginEv
__ZNKSt6vectorIS_ISsSaISsEESaIS1_EE5beginEv:
LFB2313:
	.loc 8 339 0
	nop
	nop
	nop
	nop
	nop
	nop
	pushq	%rbp
LCFI286:
	movq	%rsp, %rbp
LCFI287:
	subq	$32, %rsp
LCFI288:
	movq	%rdi, -24(%rbp)
	.loc 8 340 0
	movq	-24(%rbp), %rax
	movq	(%rax), %rax
	movq	%rax, -8(%rbp)
	leaq	-8(%rbp), %rsi
	leaq	-16(%rbp), %rdi
	call	__ZN9__gnu_cxx17__normal_iteratorIPKSt6vectorISsSaISsEES1_IS3_SaIS3_EEEC1ERKS5_
	movq	-16(%rbp), %rax
	leave
	ret
LFE2313:
	.align 1
.globl __ZNSt17_Rb_tree_iteratorISt4pairIKSsiEEC1EPSt13_Rb_tree_nodeIS2_E
	.weak_definition __ZNSt17_Rb_tree_iteratorISt4pairIKSsiEEC1EPSt13_Rb_tree_nodeIS2_E
	.private_extern __ZNSt17_Rb_tree_iteratorISt4pairIKSsiEEC1EPSt13_Rb_tree_nodeIS2_E
__ZNSt17_Rb_tree_iteratorISt4pairIKSsiEEC1EPSt13_Rb_tree_nodeIS2_E:
LFB2519:
	.loc 3 171 0
	nop
	nop
	nop
	nop
	nop
	nop
	pushq	%rbp
LCFI289:
	movq	%rsp, %rbp
LCFI290:
	movq	%rdi, -8(%rbp)
	movq	%rsi, -16(%rbp)
LBB19:
	.loc 3 172 0
	movq	-16(%rbp), %rdx
	movq	-8(%rbp), %rax
	movq	%rdx, (%rax)
LBE19:
	leave
	ret
LFE2519:
	.align 1
.globl __ZNSt8_Rb_treeISsSt4pairIKSsiESt10_Select1stIS2_ESt4lessISsESaIS2_EE5beginEv
	.weak_definition __ZNSt8_Rb_treeISsSt4pairIKSsiESt10_Select1stIS2_ESt4lessISsESaIS2_EE5beginEv
	.private_extern __ZNSt8_Rb_treeISsSt4pairIKSsiESt10_Select1stIS2_ESt4lessISsESaIS2_EE5beginEv
__ZNSt8_Rb_treeISsSt4pairIKSsiESt10_Select1stIS2_ESt4lessISsESaIS2_EE5beginEv:
LFB2319:
	.loc 3 605 0
	nop
	nop
	nop
	nop
	nop
	nop
	pushq	%rbp
LCFI291:
	movq	%rsp, %rbp
LCFI292:
	subq	$32, %rsp
LCFI293:
	movq	%rdi, -24(%rbp)
	.loc 3 608 0
	movq	-24(%rbp), %rax
	movq	24(%rax), %rax
	movq	%rax, %rsi
	leaq	-16(%rbp), %rdi
	call	__ZNSt17_Rb_tree_iteratorISt4pairIKSsiEEC1EPSt13_Rb_tree_nodeIS2_E
	movq	-16(%rbp), %rax
	leave
	ret
LFE2319:
	.align 1
.globl __ZNSt3mapISsiSt4lessISsESaISt4pairIKSsiEEE5beginEv
	.weak_definition __ZNSt3mapISsiSt4lessISsESaISt4pairIKSsiEEE5beginEv
	.private_extern __ZNSt3mapISsiSt4lessISsESaISt4pairIKSsiEEE5beginEv
__ZNSt3mapISsiSt4lessISsESaISt4pairIKSsiEEE5beginEv:
LFB2110:
	.loc 13 244 0
	nop
	nop
	nop
	nop
	nop
	nop
	pushq	%rbp
LCFI294:
	movq	%rsp, %rbp
LCFI295:
	subq	$16, %rsp
LCFI296:
	movq	%rdi, -8(%rbp)
	.loc 13 245 0
	movq	-8(%rbp), %rdi
	call	__ZNSt8_Rb_treeISsSt4pairIKSsiESt10_Select1stIS2_ESt4lessISsESaIS2_EE5beginEv
	leave
	ret
LFE2110:
	.align 1
.globl __ZNSt8_Rb_treeISsSt4pairIKSsiESt10_Select1stIS2_ESt4lessISsESaIS2_EE3endEv
	.weak_definition __ZNSt8_Rb_treeISsSt4pairIKSsiESt10_Select1stIS2_ESt4lessISsESaIS2_EE3endEv
	.private_extern __ZNSt8_Rb_treeISsSt4pairIKSsiESt10_Select1stIS2_ESt4lessISsESaIS2_EE3endEv
__ZNSt8_Rb_treeISsSt4pairIKSsiESt10_Select1stIS2_ESt4lessISsESaIS2_EE3endEv:
LFB2320:
	.loc 3 619 0
	nop
	nop
	nop
	nop
	nop
	nop
	pushq	%rbp
LCFI297:
	movq	%rsp, %rbp
LCFI298:
	subq	$32, %rsp
LCFI299:
	movq	%rdi, -24(%rbp)
	.loc 3 620 0
	movq	-24(%rbp), %rax
	addq	$8, %rax
	movq	%rax, %rsi
	leaq	-16(%rbp), %rdi
	call	__ZNSt17_Rb_tree_iteratorISt4pairIKSsiEEC1EPSt13_Rb_tree_nodeIS2_E
	movq	-16(%rbp), %rax
	leave
	ret
LFE2320:
	.align 1
.globl __ZNSt3mapISsiSt4lessISsESaISt4pairIKSsiEEE3endEv
	.weak_definition __ZNSt3mapISsiSt4lessISsESaISt4pairIKSsiEEE3endEv
	.private_extern __ZNSt3mapISsiSt4lessISsESaISt4pairIKSsiEEE3endEv
__ZNSt3mapISsiSt4lessISsESaISt4pairIKSsiEEE3endEv:
LFB2111:
	.loc 13 262 0
	nop
	nop
	nop
	nop
	nop
	nop
	pushq	%rbp
LCFI300:
	movq	%rsp, %rbp
LCFI301:
	subq	$16, %rsp
LCFI302:
	movq	%rdi, -8(%rbp)
	.loc 13 263 0
	movq	-8(%rbp), %rdi
	call	__ZNSt8_Rb_treeISsSt4pairIKSsiESt10_Select1stIS2_ESt4lessISsESaIS2_EE3endEv
	leave
	ret
LFE2111:
	.align 1
.globl __ZN9__gnu_cxx17__normal_iteratorIPKSsSt6vectorISsSaISsEEEC1ERKS2_
	.weak_definition __ZN9__gnu_cxx17__normal_iteratorIPKSsSt6vectorISsSaISsEEEC1ERKS2_
	.private_extern __ZN9__gnu_cxx17__normal_iteratorIPKSsSt6vectorISsSaISsEEEC1ERKS2_
__ZN9__gnu_cxx17__normal_iteratorIPKSsSt6vectorISsSaISsEEEC1ERKS2_:
LFB2522:
	.loc 12 653 0
	nop
	nop
	nop
	nop
	nop
	nop
	pushq	%rbp
LCFI303:
	movq	%rsp, %rbp
LCFI304:
	movq	%rdi, -8(%rbp)
	movq	%rsi, -16(%rbp)
LBB20:
	.loc 12 653 0
	movq	-16(%rbp), %rax
	movq	(%rax), %rdx
	movq	-8(%rbp), %rax
	movq	%rdx, (%rax)
LBE20:
	leave
	ret
LFE2522:
	.align 1
.globl __ZNKSt6vectorISsSaISsEE3endEv
	.weak_definition __ZNKSt6vectorISsSaISsEE3endEv
	.private_extern __ZNKSt6vectorISsSaISsEE3endEv
__ZNKSt6vectorISsSaISsEE3endEv:
LFB2325:
	.loc 8 357 0
	nop
	nop
	nop
	nop
	nop
	nop
	pushq	%rbp
LCFI305:
	movq	%rsp, %rbp
LCFI306:
	subq	$32, %rsp
LCFI307:
	movq	%rdi, -24(%rbp)
	.loc 8 358 0
	movq	-24(%rbp), %rax
	movq	8(%rax), %rax
	movq	%rax, -8(%rbp)
	leaq	-8(%rbp), %rsi
	leaq	-16(%rbp), %rdi
	call	__ZN9__gnu_cxx17__normal_iteratorIPKSsSt6vectorISsSaISsEEEC1ERKS2_
	movq	-16(%rbp), %rax
	leave
	ret
LFE2325:
	.align 1
.globl __ZNKSt6vectorISsSaISsEE5beginEv
	.weak_definition __ZNKSt6vectorISsSaISsEE5beginEv
	.private_extern __ZNKSt6vectorISsSaISsEE5beginEv
__ZNKSt6vectorISsSaISsEE5beginEv:
LFB2324:
	.loc 8 339 0
	nop
	nop
	nop
	nop
	nop
	nop
	pushq	%rbp
LCFI308:
	movq	%rsp, %rbp
LCFI309:
	subq	$32, %rsp
LCFI310:
	movq	%rdi, -24(%rbp)
	.loc 8 340 0
	movq	-24(%rbp), %rax
	movq	(%rax), %rax
	movq	%rax, -8(%rbp)
	leaq	-8(%rbp), %rsi
	leaq	-16(%rbp), %rdi
	call	__ZN9__gnu_cxx17__normal_iteratorIPKSsSt6vectorISsSaISsEEEC1ERKS2_
	movq	-16(%rbp), %rax
	leave
	ret
LFE2324:
	.align 1
.globl __ZNKSt8_Rb_treeISsSt4pairIKSsiESt10_Select1stIS2_ESt4lessISsESaIS2_EE8key_compEv
	.weak_definition __ZNKSt8_Rb_treeISsSt4pairIKSsiESt10_Select1stIS2_ESt4lessISsESaIS2_EE8key_compEv
	.private_extern __ZNKSt8_Rb_treeISsSt4pairIKSsiESt10_Select1stIS2_ESt4lessISsESaIS2_EE8key_compEv
__ZNKSt8_Rb_treeISsSt4pairIKSsiESt10_Select1stIS2_ESt4lessISsESaIS2_EE8key_compEv:
LFB2530:
	.loc 3 601 0
	nop
	nop
	nop
	nop
	nop
	nop
	pushq	%rbp
LCFI311:
	movq	%rsp, %rbp
LCFI312:
	movq	%rdi, -8(%rbp)
	.loc 3 602 0
	movzbl	-9(%rbp), %eax
	leave
	ret
LFE2530:
	.align 1
.globl __ZNKSt3mapISsiSt4lessISsESaISt4pairIKSsiEEE8key_compEv
	.weak_definition __ZNKSt3mapISsiSt4lessISsESaISt4pairIKSsiEEE8key_compEv
	.private_extern __ZNKSt3mapISsiSt4lessISsESaISt4pairIKSsiEEE8key_compEv
__ZNKSt3mapISsiSt4lessISsESaISt4pairIKSsiEEE8key_compEv:
LFB2334:
	.loc 13 517 0
	nop
	nop
	nop
	nop
	nop
	nop
	pushq	%rbp
LCFI313:
	movq	%rsp, %rbp
LCFI314:
	subq	$16, %rsp
LCFI315:
	movq	%rdi, -8(%rbp)
	.loc 13 518 0
	movq	-8(%rbp), %rdi
	call	__ZNKSt8_Rb_treeISsSt4pairIKSsiESt10_Select1stIS2_ESt4lessISsESaIS2_EE8key_compEv
	movzbl	-9(%rbp), %eax
	leave
	ret
LFE2334:
	.align 1
.globl __ZNSt14unary_functionISt4pairIKSsiES1_EC2Ev
	.weak_definition __ZNSt14unary_functionISt4pairIKSsiES1_EC2Ev
	.private_extern __ZNSt14unary_functionISt4pairIKSsiES1_EC2Ev
__ZNSt14unary_functionISt4pairIKSsiES1_EC2Ev:
LFB2534:
	.loc 6 103 0
	nop
	nop
	nop
	nop
	nop
	nop
	pushq	%rbp
LCFI316:
	movq	%rsp, %rbp
LCFI317:
	movq	%rdi, -8(%rbp)
	.loc 6 103 0
	leave
	ret
LFE2534:
	.align 1
.globl __ZNSt10_Select1stISt4pairIKSsiEEC1Ev
	.weak_definition __ZNSt10_Select1stISt4pairIKSsiEEC1Ev
	.private_extern __ZNSt10_Select1stISt4pairIKSsiEEC1Ev
__ZNSt10_Select1stISt4pairIKSsiEEC1Ev:
LFB2537:
	.loc 6 544 0
	nop
	nop
	nop
	nop
	nop
	nop
	pushq	%rbp
LCFI318:
	movq	%rsp, %rbp
LCFI319:
	subq	$16, %rsp
LCFI320:
	movq	%rdi, -8(%rbp)
LBB21:
	.loc 6 544 0
	movq	-8(%rbp), %rdi
	call	__ZNSt14unary_functionISt4pairIKSsiES1_EC2Ev
LBE21:
	leave
	ret
LFE2537:
	.align 1
.globl __ZNSt17_Rb_tree_iteratorISt4pairIKSs5TableEEC1EPSt13_Rb_tree_nodeIS3_E
	.weak_definition __ZNSt17_Rb_tree_iteratorISt4pairIKSs5TableEEC1EPSt13_Rb_tree_nodeIS3_E
	.private_extern __ZNSt17_Rb_tree_iteratorISt4pairIKSs5TableEEC1EPSt13_Rb_tree_nodeIS3_E
__ZNSt17_Rb_tree_iteratorISt4pairIKSs5TableEEC1EPSt13_Rb_tree_nodeIS3_E:
LFB2544:
	.loc 3 171 0
	nop
	nop
	nop
	nop
	nop
	nop
	pushq	%rbp
LCFI321:
	movq	%rsp, %rbp
LCFI322:
	movq	%rdi, -8(%rbp)
	movq	%rsi, -16(%rbp)
LBB22:
	.loc 3 172 0
	movq	-16(%rbp), %rdx
	movq	-8(%rbp), %rax
	movq	%rdx, (%rax)
LBE22:
	leave
	ret
LFE2544:
	.align 1
.globl __ZNSt8_Rb_treeISsSt4pairIKSs5TableESt10_Select1stIS3_ESt4lessISsESaIS3_EE5beginEv
	.weak_definition __ZNSt8_Rb_treeISsSt4pairIKSs5TableESt10_Select1stIS3_ESt4lessISsESaIS3_EE5beginEv
	.private_extern __ZNSt8_Rb_treeISsSt4pairIKSs5TableESt10_Select1stIS3_ESt4lessISsESaIS3_EE5beginEv
__ZNSt8_Rb_treeISsSt4pairIKSs5TableESt10_Select1stIS3_ESt4lessISsESaIS3_EE5beginEv:
LFB2355:
	.loc 3 605 0
	nop
	nop
	nop
	nop
	nop
	nop
	pushq	%rbp
LCFI323:
	movq	%rsp, %rbp
LCFI324:
	subq	$32, %rsp
LCFI325:
	movq	%rdi, -24(%rbp)
	.loc 3 608 0
	movq	-24(%rbp), %rax
	movq	24(%rax), %rax
	movq	%rax, %rsi
	leaq	-16(%rbp), %rdi
	call	__ZNSt17_Rb_tree_iteratorISt4pairIKSs5TableEEC1EPSt13_Rb_tree_nodeIS3_E
	movq	-16(%rbp), %rax
	leave
	ret
LFE2355:
	.align 1
.globl __ZNSt3mapISs5TableSt4lessISsESaISt4pairIKSsS0_EEE5beginEv
	.weak_definition __ZNSt3mapISs5TableSt4lessISsESaISt4pairIKSsS0_EEE5beginEv
	.private_extern __ZNSt3mapISs5TableSt4lessISsESaISt4pairIKSsS0_EEE5beginEv
__ZNSt3mapISs5TableSt4lessISsESaISt4pairIKSsS0_EEE5beginEv:
LFB2140:
	.loc 13 244 0
	nop
	nop
	nop
	nop
	nop
	nop
	pushq	%rbp
LCFI326:
	movq	%rsp, %rbp
LCFI327:
	subq	$16, %rsp
LCFI328:
	movq	%rdi, -8(%rbp)
	.loc 13 245 0
	movq	-8(%rbp), %rdi
	call	__ZNSt8_Rb_treeISsSt4pairIKSs5TableESt10_Select1stIS3_ESt4lessISsESaIS3_EE5beginEv
	leave
	ret
LFE2140:
	.align 1
.globl __ZNSt8_Rb_treeISsSt4pairIKSs5TableESt10_Select1stIS3_ESt4lessISsESaIS3_EE3endEv
	.weak_definition __ZNSt8_Rb_treeISsSt4pairIKSs5TableESt10_Select1stIS3_ESt4lessISsESaIS3_EE3endEv
	.private_extern __ZNSt8_Rb_treeISsSt4pairIKSs5TableESt10_Select1stIS3_ESt4lessISsESaIS3_EE3endEv
__ZNSt8_Rb_treeISsSt4pairIKSs5TableESt10_Select1stIS3_ESt4lessISsESaIS3_EE3endEv:
LFB2356:
	.loc 3 619 0
	nop
	nop
	nop
	nop
	nop
	nop
	pushq	%rbp
LCFI329:
	movq	%rsp, %rbp
LCFI330:
	subq	$32, %rsp
LCFI331:
	movq	%rdi, -24(%rbp)
	.loc 3 620 0
	movq	-24(%rbp), %rax
	addq	$8, %rax
	movq	%rax, %rsi
	leaq	-16(%rbp), %rdi
	call	__ZNSt17_Rb_tree_iteratorISt4pairIKSs5TableEEC1EPSt13_Rb_tree_nodeIS3_E
	movq	-16(%rbp), %rax
	leave
	ret
LFE2356:
	.align 1
.globl __ZNSt3mapISs5TableSt4lessISsESaISt4pairIKSsS0_EEE3endEv
	.weak_definition __ZNSt3mapISs5TableSt4lessISsESaISt4pairIKSsS0_EEE3endEv
	.private_extern __ZNSt3mapISs5TableSt4lessISsESaISt4pairIKSsS0_EEE3endEv
__ZNSt3mapISs5TableSt4lessISsESaISt4pairIKSsS0_EEE3endEv:
LFB2141:
	.loc 13 262 0
	nop
	nop
	nop
	nop
	nop
	nop
	pushq	%rbp
LCFI332:
	movq	%rsp, %rbp
LCFI333:
	subq	$16, %rsp
LCFI334:
	movq	%rdi, -8(%rbp)
	.loc 13 263 0
	movq	-8(%rbp), %rdi
	call	__ZNSt8_Rb_treeISsSt4pairIKSs5TableESt10_Select1stIS3_ESt4lessISsESaIS3_EE3endEv
	leave
	ret
LFE2141:
	.align 1
.globl __ZNKSt8_Rb_treeIiSt4pairIKiSsESt10_Select1stIS2_ESt4lessIiESaIS2_EE8key_compEv
	.weak_definition __ZNKSt8_Rb_treeIiSt4pairIKiSsESt10_Select1stIS2_ESt4lessIiESaIS2_EE8key_compEv
	.private_extern __ZNKSt8_Rb_treeIiSt4pairIKiSsESt10_Select1stIS2_ESt4lessIiESaIS2_EE8key_compEv
__ZNKSt8_Rb_treeIiSt4pairIKiSsESt10_Select1stIS2_ESt4lessIiESaIS2_EE8key_compEv:
LFB2546:
	.loc 3 601 0
	nop
	nop
	nop
	nop
	nop
	nop
	pushq	%rbp
LCFI335:
	movq	%rsp, %rbp
LCFI336:
	movq	%rdi, -8(%rbp)
	.loc 3 602 0
	movzbl	-9(%rbp), %eax
	leave
	ret
LFE2546:
	.align 1
.globl __ZNKSt3mapIiSsSt4lessIiESaISt4pairIKiSsEEE8key_compEv
	.weak_definition __ZNKSt3mapIiSsSt4lessIiESaISt4pairIKiSsEEE8key_compEv
	.private_extern __ZNKSt3mapIiSsSt4lessIiESaISt4pairIKiSsEEE8key_compEv
__ZNKSt3mapIiSsSt4lessIiESaISt4pairIKiSsEEE8key_compEv:
LFB2359:
	.loc 13 517 0
	nop
	nop
	nop
	nop
	nop
	nop
	pushq	%rbp
LCFI337:
	movq	%rsp, %rbp
LCFI338:
	subq	$16, %rsp
LCFI339:
	movq	%rdi, -8(%rbp)
	.loc 13 518 0
	movq	-8(%rbp), %rdi
	call	__ZNKSt8_Rb_treeIiSt4pairIKiSsESt10_Select1stIS2_ESt4lessIiESaIS2_EE8key_compEv
	movzbl	-9(%rbp), %eax
	leave
	ret
LFE2359:
	.align 1
.globl __ZNSt14unary_functionISt4pairIKiSsES1_EC2Ev
	.weak_definition __ZNSt14unary_functionISt4pairIKiSsES1_EC2Ev
	.private_extern __ZNSt14unary_functionISt4pairIKiSsES1_EC2Ev
__ZNSt14unary_functionISt4pairIKiSsES1_EC2Ev:
LFB2551:
	.loc 6 103 0
	nop
	nop
	nop
	nop
	nop
	nop
	pushq	%rbp
LCFI340:
	movq	%rsp, %rbp
LCFI341:
	movq	%rdi, -8(%rbp)
	.loc 6 103 0
	leave
	ret
LFE2551:
	.align 1
.globl __ZNSt10_Select1stISt4pairIKiSsEEC1Ev
	.weak_definition __ZNSt10_Select1stISt4pairIKiSsEEC1Ev
	.private_extern __ZNSt10_Select1stISt4pairIKiSsEEC1Ev
__ZNSt10_Select1stISt4pairIKiSsEEC1Ev:
LFB2554:
	.loc 6 544 0
	nop
	nop
	nop
	nop
	nop
	nop
	pushq	%rbp
LCFI342:
	movq	%rsp, %rbp
LCFI343:
	subq	$16, %rsp
LCFI344:
	movq	%rdi, -8(%rbp)
LBB23:
	.loc 6 544 0
	movq	-8(%rbp), %rdi
	call	__ZNSt14unary_functionISt4pairIKiSsES1_EC2Ev
LBE23:
	leave
	ret
LFE2554:
	.align 1
.globl __ZN9__gnu_cxx13new_allocatorISt4pairIKSsiEEC2Ev
	.weak_definition __ZN9__gnu_cxx13new_allocatorISt4pairIKSsiEEC2Ev
	.private_extern __ZN9__gnu_cxx13new_allocatorISt4pairIKSsiEEC2Ev
__ZN9__gnu_cxx13new_allocatorISt4pairIKSsiEEC2Ev:
LFB2556:
	.loc 10 68 0
	nop
	nop
	nop
	nop
	nop
	nop
	pushq	%rbp
LCFI345:
	movq	%rsp, %rbp
LCFI346:
	movq	%rdi, -8(%rbp)
	.loc 10 68 0
	leave
	ret
LFE2556:
	.align 1
.globl __ZNSaISt4pairIKSsiEEC1Ev
	.weak_definition __ZNSaISt4pairIKSsiEEC1Ev
	.private_extern __ZNSaISt4pairIKSsiEEC1Ev
__ZNSaISt4pairIKSsiEEC1Ev:
LFB2370:
	.loc 11 100 0
	nop
	nop
	nop
	nop
	nop
	nop
	pushq	%rbp
LCFI347:
	movq	%rsp, %rbp
LCFI348:
	subq	$16, %rsp
LCFI349:
	movq	%rdi, -8(%rbp)
	.loc 11 100 0
	movq	-8(%rbp), %rdi
	call	__ZN9__gnu_cxx13new_allocatorISt4pairIKSsiEEC2Ev
	leave
	ret
LFE2370:
	.align 1
.globl __ZN9__gnu_cxx13new_allocatorISt4pairIKSsiEED2Ev
	.weak_definition __ZN9__gnu_cxx13new_allocatorISt4pairIKSsiEED2Ev
	.private_extern __ZN9__gnu_cxx13new_allocatorISt4pairIKSsiEED2Ev
__ZN9__gnu_cxx13new_allocatorISt4pairIKSsiEED2Ev:
LFB2559:
	.loc 10 75 0
	nop
	nop
	nop
	nop
	nop
	nop
	pushq	%rbp
LCFI350:
	movq	%rsp, %rbp
LCFI351:
	movq	%rdi, -8(%rbp)
	.loc 10 75 0
	leave
	ret
LFE2559:
	.align 1
.globl __ZNSaISt4pairIKSsiEED1Ev
	.weak_definition __ZNSaISt4pairIKSsiEED1Ev
	.private_extern __ZNSaISt4pairIKSsiEED1Ev
__ZNSaISt4pairIKSsiEED1Ev:
LFB2373:
	.loc 11 108 0
	nop
	nop
	nop
	nop
	nop
	nop
	pushq	%rbp
LCFI352:
	movq	%rsp, %rbp
LCFI353:
	subq	$16, %rsp
LCFI354:
	movq	%rdi, -8(%rbp)
	.loc 11 108 0
	movq	-8(%rbp), %rdi
	call	__ZN9__gnu_cxx13new_allocatorISt4pairIKSsiEED2Ev
	leave
	ret
LFE2373:
	.align 1
.globl __ZN9__gnu_cxx13new_allocatorISt4pairIKiSsEEC2Ev
	.weak_definition __ZN9__gnu_cxx13new_allocatorISt4pairIKiSsEEC2Ev
	.private_extern __ZN9__gnu_cxx13new_allocatorISt4pairIKiSsEEC2Ev
__ZN9__gnu_cxx13new_allocatorISt4pairIKiSsEEC2Ev:
LFB2568:
	.loc 10 68 0
	nop
	nop
	nop
	nop
	nop
	nop
	pushq	%rbp
LCFI355:
	movq	%rsp, %rbp
LCFI356:
	movq	%rdi, -8(%rbp)
	.loc 10 68 0
	leave
	ret
LFE2568:
	.align 1
.globl __ZNSaISt4pairIKiSsEEC1Ev
	.weak_definition __ZNSaISt4pairIKiSsEEC1Ev
	.private_extern __ZNSaISt4pairIKiSsEEC1Ev
__ZNSaISt4pairIKiSsEEC1Ev:
LFB2382:
	.loc 11 100 0
	nop
	nop
	nop
	nop
	nop
	nop
	pushq	%rbp
LCFI357:
	movq	%rsp, %rbp
LCFI358:
	subq	$16, %rsp
LCFI359:
	movq	%rdi, -8(%rbp)
	.loc 11 100 0
	movq	-8(%rbp), %rdi
	call	__ZN9__gnu_cxx13new_allocatorISt4pairIKiSsEEC2Ev
	leave
	ret
LFE2382:
	.align 1
.globl __ZN9__gnu_cxx13new_allocatorISt4pairIKiSsEED2Ev
	.weak_definition __ZN9__gnu_cxx13new_allocatorISt4pairIKiSsEED2Ev
	.private_extern __ZN9__gnu_cxx13new_allocatorISt4pairIKiSsEED2Ev
__ZN9__gnu_cxx13new_allocatorISt4pairIKiSsEED2Ev:
LFB2571:
	.loc 10 75 0
	nop
	nop
	nop
	nop
	nop
	nop
	pushq	%rbp
LCFI360:
	movq	%rsp, %rbp
LCFI361:
	movq	%rdi, -8(%rbp)
	.loc 10 75 0
	leave
	ret
LFE2571:
	.align 1
.globl __ZNSaISt4pairIKiSsEED1Ev
	.weak_definition __ZNSaISt4pairIKiSsEED1Ev
	.private_extern __ZNSaISt4pairIKiSsEED1Ev
__ZNSaISt4pairIKiSsEED1Ev:
LFB2385:
	.loc 11 108 0
	nop
	nop
	nop
	nop
	nop
	nop
	pushq	%rbp
LCFI362:
	movq	%rsp, %rbp
LCFI363:
	subq	$16, %rsp
LCFI364:
	movq	%rdi, -8(%rbp)
	.loc 11 108 0
	movq	-8(%rbp), %rdi
	call	__ZN9__gnu_cxx13new_allocatorISt4pairIKiSsEED2Ev
	leave
	ret
LFE2385:
	.align 1
.globl __ZN9__gnu_cxx17__normal_iteratorIPSt6vectorISsSaISsEES1_IS3_SaIS3_EEEC1ERKS4_
	.weak_definition __ZN9__gnu_cxx17__normal_iteratorIPSt6vectorISsSaISsEES1_IS3_SaIS3_EEEC1ERKS4_
	.private_extern __ZN9__gnu_cxx17__normal_iteratorIPSt6vectorISsSaISsEES1_IS3_SaIS3_EEEC1ERKS4_
__ZN9__gnu_cxx17__normal_iteratorIPSt6vectorISsSaISsEES1_IS3_SaIS3_EEEC1ERKS4_:
LFB2582:
	.loc 12 653 0
	nop
	nop
	nop
	nop
	nop
	nop
	pushq	%rbp
LCFI365:
	movq	%rsp, %rbp
LCFI366:
	movq	%rdi, -8(%rbp)
	movq	%rsi, -16(%rbp)
LBB24:
	.loc 12 653 0
	movq	-16(%rbp), %rax
	movq	(%rax), %rdx
	movq	-8(%rbp), %rax
	movq	%rdx, (%rax)
LBE24:
	leave
	ret
LFE2582:
	.align 1
.globl __ZNSt6vectorIS_ISsSaISsEESaIS1_EE3endEv
	.weak_definition __ZNSt6vectorIS_ISsSaISsEESaIS1_EE3endEv
	.private_extern __ZNSt6vectorIS_ISsSaISsEESaIS1_EE3endEv
__ZNSt6vectorIS_ISsSaISsEESaIS1_EE3endEv:
LFB2411:
	.loc 8 348 0
	nop
	nop
	nop
	nop
	nop
	nop
	pushq	%rbp
LCFI367:
	movq	%rsp, %rbp
LCFI368:
	subq	$32, %rsp
LCFI369:
	movq	%rdi, -24(%rbp)
	.loc 8 349 0
	movq	-24(%rbp), %rsi
	addq	$8, %rsi
	leaq	-16(%rbp), %rdi
	call	__ZN9__gnu_cxx17__normal_iteratorIPSt6vectorISsSaISsEES1_IS3_SaIS3_EEEC1ERKS4_
	movq	-16(%rbp), %rax
	leave
	ret
LFE2411:
	.align 1
.globl __ZNSt6vectorIS_ISsSaISsEESaIS1_EE5beginEv
	.weak_definition __ZNSt6vectorIS_ISsSaISsEESaIS1_EE5beginEv
	.private_extern __ZNSt6vectorIS_ISsSaISsEESaIS1_EE5beginEv
__ZNSt6vectorIS_ISsSaISsEESaIS1_EE5beginEv:
LFB2409:
	.loc 8 330 0
	nop
	nop
	nop
	nop
	nop
	nop
	pushq	%rbp
LCFI370:
	movq	%rsp, %rbp
LCFI371:
	subq	$32, %rsp
LCFI372:
	movq	%rdi, -24(%rbp)
	.loc 8 331 0
	movq	-24(%rbp), %rsi
	leaq	-16(%rbp), %rdi
	call	__ZN9__gnu_cxx17__normal_iteratorIPSt6vectorISsSaISsEES1_IS3_SaIS3_EEEC1ERKS4_
	movq	-16(%rbp), %rax
	leave
	ret
LFE2409:
	.align 1
.globl __ZNK9__gnu_cxx17__normal_iteratorIPSt6vectorISsSaISsEES1_IS3_SaIS3_EEE4baseEv
	.weak_definition __ZNK9__gnu_cxx17__normal_iteratorIPSt6vectorISsSaISsEES1_IS3_SaIS3_EEE4baseEv
	.private_extern __ZNK9__gnu_cxx17__normal_iteratorIPSt6vectorISsSaISsEES1_IS3_SaIS3_EEE4baseEv
__ZNK9__gnu_cxx17__normal_iteratorIPSt6vectorISsSaISsEES1_IS3_SaIS3_EEE4baseEv:
LFB2590:
	.loc 12 717 0
	nop
	nop
	nop
	nop
	nop
	nop
	pushq	%rbp
LCFI373:
	movq	%rsp, %rbp
LCFI374:
	movq	%rdi, -8(%rbp)
	.loc 12 718 0
	movq	-8(%rbp), %rax
	leave
	ret
LFE2590:
	.align 1
.globl __ZNK9__gnu_cxx17__normal_iteratorIPSt6vectorISsSaISsEES1_IS3_SaIS3_EEEdeEv
	.weak_definition __ZNK9__gnu_cxx17__normal_iteratorIPSt6vectorISsSaISsEES1_IS3_SaIS3_EEEdeEv
	.private_extern __ZNK9__gnu_cxx17__normal_iteratorIPSt6vectorISsSaISsEES1_IS3_SaIS3_EEEdeEv
__ZNK9__gnu_cxx17__normal_iteratorIPSt6vectorISsSaISsEES1_IS3_SaIS3_EEEdeEv:
LFB2592:
	.loc 12 665 0
	nop
	nop
	nop
	nop
	nop
	nop
	pushq	%rbp
LCFI375:
	movq	%rsp, %rbp
LCFI376:
	movq	%rdi, -8(%rbp)
	.loc 12 666 0
	movq	-8(%rbp), %rax
	movq	(%rax), %rax
	leave
	ret
LFE2592:
	.align 1
.globl __ZN9__gnu_cxx13new_allocatorISt4pairIKSsiEE7destroyEPS3_
	.weak_definition __ZN9__gnu_cxx13new_allocatorISt4pairIKSsiEE7destroyEPS3_
	.private_extern __ZN9__gnu_cxx13new_allocatorISt4pairIKSsiEE7destroyEPS3_
__ZN9__gnu_cxx13new_allocatorISt4pairIKSsiEE7destroyEPS3_:
LFB2595:
	.loc 10 110 0
	nop
	nop
	nop
	nop
	nop
	nop
	pushq	%rbp
LCFI377:
	movq	%rsp, %rbp
LCFI378:
	subq	$16, %rsp
LCFI379:
	movq	%rdi, -8(%rbp)
	movq	%rsi, -16(%rbp)
	.loc 10 110 0
	movq	-16(%rbp), %rdi
	call	__ZNSt4pairIKSsiED1Ev
	leave
	ret
LFE2595:
	.align 1
.globl __ZN9__gnu_cxx13new_allocatorISt4pairIKiSsEE7destroyEPS3_
	.weak_definition __ZN9__gnu_cxx13new_allocatorISt4pairIKiSsEE7destroyEPS3_
	.private_extern __ZN9__gnu_cxx13new_allocatorISt4pairIKiSsEE7destroyEPS3_
__ZN9__gnu_cxx13new_allocatorISt4pairIKiSsEE7destroyEPS3_:
LFB2598:
	.loc 10 110 0
	nop
	nop
	nop
	nop
	nop
	nop
	pushq	%rbp
LCFI380:
	movq	%rsp, %rbp
LCFI381:
	subq	$16, %rsp
LCFI382:
	movq	%rdi, -8(%rbp)
	movq	%rsi, -16(%rbp)
	.loc 10 110 0
	movq	-16(%rbp), %rdi
	call	__ZNSt4pairIKiSsED1Ev
	leave
	ret
LFE2598:
	.align 1
.globl __ZN9__gnu_cxx13new_allocatorISt13_Rb_tree_nodeISt4pairIKSs5TableEEEC2Ev
	.weak_definition __ZN9__gnu_cxx13new_allocatorISt13_Rb_tree_nodeISt4pairIKSs5TableEEEC2Ev
	.private_extern __ZN9__gnu_cxx13new_allocatorISt13_Rb_tree_nodeISt4pairIKSs5TableEEEC2Ev
__ZN9__gnu_cxx13new_allocatorISt13_Rb_tree_nodeISt4pairIKSs5TableEEEC2Ev:
LFB2602:
	.loc 10 68 0
	nop
	nop
	nop
	nop
	nop
	nop
	pushq	%rbp
LCFI383:
	movq	%rsp, %rbp
LCFI384:
	movq	%rdi, -8(%rbp)
	.loc 10 68 0
	leave
	ret
LFE2602:
	.align 1
.globl __ZNSaISt13_Rb_tree_nodeISt4pairIKSs5TableEEEC1IS3_EERKSaIT_E
	.weak_definition __ZNSaISt13_Rb_tree_nodeISt4pairIKSs5TableEEEC1IS3_EERKSaIT_E
	.private_extern __ZNSaISt13_Rb_tree_nodeISt4pairIKSs5TableEEEC1IS3_EERKSaIT_E
__ZNSaISt13_Rb_tree_nodeISt4pairIKSs5TableEEEC1IS3_EERKSaIT_E:
LFB2451:
	.loc 11 106 0
	nop
	nop
	nop
	nop
	nop
	nop
	pushq	%rbp
LCFI385:
	movq	%rsp, %rbp
LCFI386:
	subq	$16, %rsp
LCFI387:
	movq	%rdi, -8(%rbp)
	movq	%rsi, -16(%rbp)
	.loc 11 106 0
	movq	-8(%rbp), %rdi
	call	__ZN9__gnu_cxx13new_allocatorISt13_Rb_tree_nodeISt4pairIKSs5TableEEEC2Ev
	leave
	ret
LFE2451:
	.align 1
.globl __ZN9__gnu_cxx13new_allocatorISt13_Rb_tree_nodeISt4pairIKSs5TableEEED2Ev
	.weak_definition __ZN9__gnu_cxx13new_allocatorISt13_Rb_tree_nodeISt4pairIKSs5TableEEED2Ev
	.private_extern __ZN9__gnu_cxx13new_allocatorISt13_Rb_tree_nodeISt4pairIKSs5TableEEED2Ev
__ZN9__gnu_cxx13new_allocatorISt13_Rb_tree_nodeISt4pairIKSs5TableEEED2Ev:
LFB2605:
	.loc 10 75 0
	nop
	nop
	nop
	nop
	nop
	nop
	pushq	%rbp
LCFI388:
	movq	%rsp, %rbp
LCFI389:
	movq	%rdi, -8(%rbp)
	.loc 10 75 0
	leave
	ret
LFE2605:
	.align 1
.globl __ZNSaISt13_Rb_tree_nodeISt4pairIKSs5TableEEED1Ev
	.weak_definition __ZNSaISt13_Rb_tree_nodeISt4pairIKSs5TableEEED1Ev
	.private_extern __ZNSaISt13_Rb_tree_nodeISt4pairIKSs5TableEEED1Ev
__ZNSaISt13_Rb_tree_nodeISt4pairIKSs5TableEEED1Ev:
LFB2454:
	.loc 11 108 0
	nop
	nop
	nop
	nop
	nop
	nop
	pushq	%rbp
LCFI390:
	movq	%rsp, %rbp
LCFI391:
	subq	$16, %rsp
LCFI392:
	movq	%rdi, -8(%rbp)
	.loc 11 108 0
	movq	-8(%rbp), %rdi
	call	__ZN9__gnu_cxx13new_allocatorISt13_Rb_tree_nodeISt4pairIKSs5TableEEED2Ev
	leave
	ret
LFE2454:
	.align 1
.globl __ZNSaISt13_Rb_tree_nodeISt4pairIKSs5TableEEED2Ev
	.weak_definition __ZNSaISt13_Rb_tree_nodeISt4pairIKSs5TableEEED2Ev
	.private_extern __ZNSaISt13_Rb_tree_nodeISt4pairIKSs5TableEEED2Ev
__ZNSaISt13_Rb_tree_nodeISt4pairIKSs5TableEEED2Ev:
LFB2453:
	.loc 11 108 0
	nop
	nop
	nop
	nop
	nop
	nop
	pushq	%rbp
LCFI393:
	movq	%rsp, %rbp
LCFI394:
	subq	$16, %rsp
LCFI395:
	movq	%rdi, -8(%rbp)
	.loc 11 108 0
	movq	-8(%rbp), %rdi
	call	__ZN9__gnu_cxx13new_allocatorISt13_Rb_tree_nodeISt4pairIKSs5TableEEED2Ev
	leave
	ret
LFE2453:
	.align 1
.globl __ZNSt8_Rb_treeISsSt4pairIKSs5TableESt10_Select1stIS3_ESt4lessISsESaIS3_EE13_Rb_tree_implIS7_Lb0EED1Ev
	.weak_definition __ZNSt8_Rb_treeISsSt4pairIKSs5TableESt10_Select1stIS3_ESt4lessISsESaIS3_EE13_Rb_tree_implIS7_Lb0EED1Ev
	.private_extern __ZNSt8_Rb_treeISsSt4pairIKSs5TableESt10_Select1stIS3_ESt4lessISsESaIS3_EE13_Rb_tree_implIS7_Lb0EED1Ev
__ZNSt8_Rb_treeISsSt4pairIKSs5TableESt10_Select1stIS3_ESt4lessISsESaIS3_EE13_Rb_tree_implIS7_Lb0EED1Ev:
LFB2231:
	.loc 3 410 0
	nop
	nop
	nop
	nop
	nop
	nop
	pushq	%rbp
LCFI396:
	movq	%rsp, %rbp
LCFI397:
	subq	$16, %rsp
LCFI398:
	movq	%rdi, -8(%rbp)
	.loc 3 410 0
	movq	-8(%rbp), %rdi
	call	__ZNSaISt13_Rb_tree_nodeISt4pairIKSs5TableEEED2Ev
	leave
	ret
LFE2231:
.globl __ZNSt8_Rb_treeISsSt4pairIKSs5TableESt10_Select1stIS3_ESt4lessISsESaIS3_EE8_S_rightEPSt18_Rb_tree_node_base
	.weak_definition __ZNSt8_Rb_treeISsSt4pairIKSs5TableESt10_Select1stIS3_ESt4lessISsESaIS3_EE8_S_rightEPSt18_Rb_tree_node_base
	.private_extern __ZNSt8_Rb_treeISsSt4pairIKSs5TableESt10_Select1stIS3_ESt4lessISsESaIS3_EE8_S_rightEPSt18_Rb_tree_node_base
__ZNSt8_Rb_treeISsSt4pairIKSs5TableESt10_Select1stIS3_ESt4lessISsESaIS3_EE8_S_rightEPSt18_Rb_tree_node_base:
LFB2610:
	.loc 3 511 0
	nop
	nop
	nop
	nop
	nop
	nop
	pushq	%rbp
LCFI399:
	movq	%rsp, %rbp
LCFI400:
	movq	%rdi, -8(%rbp)
	.loc 3 512 0
	movq	-8(%rbp), %rax
	movq	24(%rax), %rax
	leave
	ret
LFE2610:
.globl __ZNSt8_Rb_treeISsSt4pairIKSs5TableESt10_Select1stIS3_ESt4lessISsESaIS3_EE7_S_leftEPSt18_Rb_tree_node_base
	.weak_definition __ZNSt8_Rb_treeISsSt4pairIKSs5TableESt10_Select1stIS3_ESt4lessISsESaIS3_EE7_S_leftEPSt18_Rb_tree_node_base
	.private_extern __ZNSt8_Rb_treeISsSt4pairIKSs5TableESt10_Select1stIS3_ESt4lessISsESaIS3_EE7_S_leftEPSt18_Rb_tree_node_base
__ZNSt8_Rb_treeISsSt4pairIKSs5TableESt10_Select1stIS3_ESt4lessISsESaIS3_EE7_S_leftEPSt18_Rb_tree_node_base:
LFB2611:
	.loc 3 503 0
	nop
	nop
	nop
	nop
	nop
	nop
	pushq	%rbp
LCFI401:
	movq	%rsp, %rbp
LCFI402:
	movq	%rdi, -8(%rbp)
	.loc 3 504 0
	movq	-8(%rbp), %rax
	movq	16(%rax), %rax
	leave
	ret
LFE2611:
	.align 1
.globl __ZNKSt12_Vector_baseISsSaISsEE19_M_get_Tp_allocatorEv
	.weak_definition __ZNKSt12_Vector_baseISsSaISsEE19_M_get_Tp_allocatorEv
	.private_extern __ZNKSt12_Vector_baseISsSaISsEE19_M_get_Tp_allocatorEv
__ZNKSt12_Vector_baseISsSaISsEE19_M_get_Tp_allocatorEv:
LFB2615:
	.loc 8 100 0
	nop
	nop
	nop
	nop
	nop
	nop
	pushq	%rbp
LCFI403:
	movq	%rsp, %rbp
LCFI404:
	movq	%rdi, -8(%rbp)
	.loc 8 101 0
	movq	-8(%rbp), %rax
	leave
	ret
LFE2615:
	.align 1
.globl __ZNK9__gnu_cxx13new_allocatorISsE8max_sizeEv
	.weak_definition __ZNK9__gnu_cxx13new_allocatorISsE8max_sizeEv
	.private_extern __ZNK9__gnu_cxx13new_allocatorISsE8max_sizeEv
__ZNK9__gnu_cxx13new_allocatorISsE8max_sizeEv:
LFB2616:
	.loc 10 100 0
	nop
	nop
	nop
	nop
	nop
	nop
	pushq	%rbp
LCFI405:
	movq	%rsp, %rbp
LCFI406:
	movq	%rdi, -8(%rbp)
	.loc 10 101 0
	movabsq	$2305843009213693951, %rax
	leave
	ret
LFE2616:
	.align 1
.globl __ZNKSt6vectorISsSaISsEE8max_sizeEv
	.weak_definition __ZNKSt6vectorISsSaISsEE8max_sizeEv
	.private_extern __ZNKSt6vectorISsSaISsEE8max_sizeEv
__ZNKSt6vectorISsSaISsEE8max_sizeEv:
LFB2476:
	.loc 8 404 0
	nop
	nop
	nop
	nop
	nop
	nop
	pushq	%rbp
LCFI407:
	movq	%rsp, %rbp
LCFI408:
	subq	$16, %rsp
LCFI409:
	movq	%rdi, -8(%rbp)
	.loc 8 405 0
	movq	-8(%rbp), %rdi
	call	__ZNKSt12_Vector_baseISsSaISsEE19_M_get_Tp_allocatorEv
	movq	%rax, %rdi
	call	__ZNK9__gnu_cxx13new_allocatorISsE8max_sizeEv
	leave
	ret
LFE2476:
	.align 1
.globl __ZNSt8_Rb_treeISsSt4pairIKSs5TableESt10_Select1stIS3_ESt4lessISsESaIS3_EE6_M_endEv
	.weak_definition __ZNSt8_Rb_treeISsSt4pairIKSs5TableESt10_Select1stIS3_ESt4lessISsESaIS3_EE6_M_endEv
	.private_extern __ZNSt8_Rb_treeISsSt4pairIKSs5TableESt10_Select1stIS3_ESt4lessISsESaIS3_EE6_M_endEv
__ZNSt8_Rb_treeISsSt4pairIKSs5TableESt10_Select1stIS3_ESt4lessISsESaIS3_EE6_M_endEv:
LFB2618:
	.loc 3 487 0
	nop
	nop
	nop
	nop
	nop
	nop
	pushq	%rbp
LCFI410:
	movq	%rsp, %rbp
LCFI411:
	movq	%rdi, -8(%rbp)
	.loc 3 488 0
	movq	-8(%rbp), %rax
	addq	$8, %rax
	leave
	ret
LFE2618:
	.align 1
.globl __ZNSt8_Rb_treeISsSt4pairIKSs5TableESt10_Select1stIS3_ESt4lessISsESaIS3_EE12_M_rightmostEv
	.weak_definition __ZNSt8_Rb_treeISsSt4pairIKSs5TableESt10_Select1stIS3_ESt4lessISsESaIS3_EE12_M_rightmostEv
	.private_extern __ZNSt8_Rb_treeISsSt4pairIKSs5TableESt10_Select1stIS3_ESt4lessISsESaIS3_EE12_M_rightmostEv
__ZNSt8_Rb_treeISsSt4pairIKSs5TableESt10_Select1stIS3_ESt4lessISsESaIS3_EE12_M_rightmostEv:
LFB2620:
	.loc 3 468 0
	nop
	nop
	nop
	nop
	nop
	nop
	pushq	%rbp
LCFI412:
	movq	%rsp, %rbp
LCFI413:
	movq	%rdi, -8(%rbp)
	.loc 3 469 0
	movq	-8(%rbp), %rax
	addq	$32, %rax
	leave
	ret
LFE2620:
	.align 1
.globl __ZNKSt10_Select1stISt4pairIKSs5TableEEclERKS3_
	.weak_definition __ZNKSt10_Select1stISt4pairIKSs5TableEEclERKS3_
	.private_extern __ZNKSt10_Select1stISt4pairIKSs5TableEEclERKS3_
__ZNKSt10_Select1stISt4pairIKSs5TableEEclERKS3_:
LFB2622:
	.loc 6 550 0
	nop
	nop
	nop
	nop
	nop
	nop
	pushq	%rbp
LCFI414:
	movq	%rsp, %rbp
LCFI415:
	movq	%rdi, -8(%rbp)
	movq	%rsi, -16(%rbp)
	.loc 6 551 0
	movq	-16(%rbp), %rax
	leave
	ret
LFE2622:
	.align 1
.globl __ZNKSt8_Rb_treeISsSt4pairIKSs5TableESt10_Select1stIS3_ESt4lessISsESaIS3_EE4sizeEv
	.weak_definition __ZNKSt8_Rb_treeISsSt4pairIKSs5TableESt10_Select1stIS3_ESt4lessISsESaIS3_EE4sizeEv
	.private_extern __ZNKSt8_Rb_treeISsSt4pairIKSs5TableESt10_Select1stIS3_ESt4lessISsESaIS3_EE4sizeEv
__ZNKSt8_Rb_treeISsSt4pairIKSs5TableESt10_Select1stIS3_ESt4lessISsESaIS3_EE4sizeEv:
LFB2623:
	.loc 3 650 0
	nop
	nop
	nop
	nop
	nop
	nop
	pushq	%rbp
LCFI416:
	movq	%rsp, %rbp
LCFI417:
	movq	%rdi, -8(%rbp)
	.loc 3 651 0
	movq	-8(%rbp), %rax
	movq	40(%rax), %rax
	leave
	ret
LFE2623:
	.align 1
.globl __ZNSt8_Rb_treeISsSt4pairIKSs5TableESt10_Select1stIS3_ESt4lessISsESaIS3_EE11_M_leftmostEv
	.weak_definition __ZNSt8_Rb_treeISsSt4pairIKSs5TableESt10_Select1stIS3_ESt4lessISsESaIS3_EE11_M_leftmostEv
	.private_extern __ZNSt8_Rb_treeISsSt4pairIKSs5TableESt10_Select1stIS3_ESt4lessISsESaIS3_EE11_M_leftmostEv
__ZNSt8_Rb_treeISsSt4pairIKSs5TableESt10_Select1stIS3_ESt4lessISsESaIS3_EE11_M_leftmostEv:
LFB2626:
	.loc 3 460 0
	nop
	nop
	nop
	nop
	nop
	nop
	pushq	%rbp
LCFI418:
	movq	%rsp, %rbp
LCFI419:
	movq	%rdi, -8(%rbp)
	.loc 3 461 0
	movq	-8(%rbp), %rax
	addq	$24, %rax
	leave
	ret
LFE2626:
.globl __ZNSt8_Rb_treeISsSt4pairIKSsiESt10_Select1stIS2_ESt4lessISsESaIS2_EE8_S_rightEPKSt18_Rb_tree_node_base
	.weak_definition __ZNSt8_Rb_treeISsSt4pairIKSsiESt10_Select1stIS2_ESt4lessISsESaIS2_EE8_S_rightEPKSt18_Rb_tree_node_base
	.private_extern __ZNSt8_Rb_treeISsSt4pairIKSsiESt10_Select1stIS2_ESt4lessISsESaIS2_EE8_S_rightEPKSt18_Rb_tree_node_base
__ZNSt8_Rb_treeISsSt4pairIKSsiESt10_Select1stIS2_ESt4lessISsESaIS2_EE8_S_rightEPKSt18_Rb_tree_node_base:
LFB2633:
	.loc 3 515 0
	nop
	nop
	nop
	nop
	nop
	nop
	pushq	%rbp
LCFI420:
	movq	%rsp, %rbp
LCFI421:
	movq	%rdi, -8(%rbp)
	.loc 3 516 0
	movq	-8(%rbp), %rax
	movq	24(%rax), %rax
	leave
	ret
LFE2633:
.globl __ZNSt8_Rb_treeISsSt4pairIKSsiESt10_Select1stIS2_ESt4lessISsESaIS2_EE7_S_leftEPKSt18_Rb_tree_node_base
	.weak_definition __ZNSt8_Rb_treeISsSt4pairIKSsiESt10_Select1stIS2_ESt4lessISsESaIS2_EE7_S_leftEPKSt18_Rb_tree_node_base
	.private_extern __ZNSt8_Rb_treeISsSt4pairIKSsiESt10_Select1stIS2_ESt4lessISsESaIS2_EE7_S_leftEPKSt18_Rb_tree_node_base
__ZNSt8_Rb_treeISsSt4pairIKSsiESt10_Select1stIS2_ESt4lessISsESaIS2_EE7_S_leftEPKSt18_Rb_tree_node_base:
LFB2634:
	.loc 3 507 0
	nop
	nop
	nop
	nop
	nop
	nop
	pushq	%rbp
LCFI422:
	movq	%rsp, %rbp
LCFI423:
	movq	%rdi, -8(%rbp)
	.loc 3 508 0
	movq	-8(%rbp), %rax
	movq	16(%rax), %rax
	leave
	ret
LFE2634:
.globl __ZNSt8_Rb_treeIiSt4pairIKiSsESt10_Select1stIS2_ESt4lessIiESaIS2_EE8_S_rightEPKSt18_Rb_tree_node_base
	.weak_definition __ZNSt8_Rb_treeIiSt4pairIKiSsESt10_Select1stIS2_ESt4lessIiESaIS2_EE8_S_rightEPKSt18_Rb_tree_node_base
	.private_extern __ZNSt8_Rb_treeIiSt4pairIKiSsESt10_Select1stIS2_ESt4lessIiESaIS2_EE8_S_rightEPKSt18_Rb_tree_node_base
__ZNSt8_Rb_treeIiSt4pairIKiSsESt10_Select1stIS2_ESt4lessIiESaIS2_EE8_S_rightEPKSt18_Rb_tree_node_base:
LFB2639:
	.loc 3 515 0
	nop
	nop
	nop
	nop
	nop
	nop
	pushq	%rbp
LCFI424:
	movq	%rsp, %rbp
LCFI425:
	movq	%rdi, -8(%rbp)
	.loc 3 516 0
	movq	-8(%rbp), %rax
	movq	24(%rax), %rax
	leave
	ret
LFE2639:
.globl __ZNSt8_Rb_treeIiSt4pairIKiSsESt10_Select1stIS2_ESt4lessIiESaIS2_EE7_S_leftEPKSt18_Rb_tree_node_base
	.weak_definition __ZNSt8_Rb_treeIiSt4pairIKiSsESt10_Select1stIS2_ESt4lessIiESaIS2_EE7_S_leftEPKSt18_Rb_tree_node_base
	.private_extern __ZNSt8_Rb_treeIiSt4pairIKiSsESt10_Select1stIS2_ESt4lessIiESaIS2_EE7_S_leftEPKSt18_Rb_tree_node_base
__ZNSt8_Rb_treeIiSt4pairIKiSsESt10_Select1stIS2_ESt4lessIiESaIS2_EE7_S_leftEPKSt18_Rb_tree_node_base:
LFB2640:
	.loc 3 507 0
	nop
	nop
	nop
	nop
	nop
	nop
	pushq	%rbp
LCFI426:
	movq	%rsp, %rbp
LCFI427:
	movq	%rdi, -8(%rbp)
	.loc 3 508 0
	movq	-8(%rbp), %rax
	movq	16(%rax), %rax
	leave
	ret
LFE2640:
	.align 1
.globl __ZNK9__gnu_cxx17__normal_iteratorIPKSsSt6vectorISsSaISsEEE4baseEv
	.weak_definition __ZNK9__gnu_cxx17__normal_iteratorIPKSsSt6vectorISsSaISsEEE4baseEv
	.private_extern __ZNK9__gnu_cxx17__normal_iteratorIPKSsSt6vectorISsSaISsEEE4baseEv
__ZNK9__gnu_cxx17__normal_iteratorIPKSsSt6vectorISsSaISsEEE4baseEv:
LFB2644:
	.loc 12 717 0
	nop
	nop
	nop
	nop
	nop
	nop
	pushq	%rbp
LCFI428:
	movq	%rsp, %rbp
LCFI429:
	movq	%rdi, -8(%rbp)
	.loc 12 718 0
	movq	-8(%rbp), %rax
	leave
	ret
LFE2644:
	.align 1
.globl __ZNKSt10_Select1stISt4pairIKSsiEEclERKS2_
	.weak_definition __ZNKSt10_Select1stISt4pairIKSsiEEclERKS2_
	.private_extern __ZNKSt10_Select1stISt4pairIKSsiEEclERKS2_
__ZNKSt10_Select1stISt4pairIKSsiEEclERKS2_:
LFB2651:
	.loc 6 550 0
	nop
	nop
	nop
	nop
	nop
	nop
	pushq	%rbp
LCFI430:
	movq	%rsp, %rbp
LCFI431:
	movq	%rdi, -8(%rbp)
	movq	%rsi, -16(%rbp)
	.loc 6 551 0
	movq	-16(%rbp), %rax
	leave
	ret
LFE2651:
	.align 1
.globl __ZNKSt8_Rb_treeISsSt4pairIKSsiESt10_Select1stIS2_ESt4lessISsESaIS2_EE4sizeEv
	.weak_definition __ZNKSt8_Rb_treeISsSt4pairIKSsiESt10_Select1stIS2_ESt4lessISsESaIS2_EE4sizeEv
	.private_extern __ZNKSt8_Rb_treeISsSt4pairIKSsiESt10_Select1stIS2_ESt4lessISsESaIS2_EE4sizeEv
__ZNKSt8_Rb_treeISsSt4pairIKSsiESt10_Select1stIS2_ESt4lessISsESaIS2_EE4sizeEv:
LFB2652:
	.loc 3 650 0
	nop
	nop
	nop
	nop
	nop
	nop
	pushq	%rbp
LCFI432:
	movq	%rsp, %rbp
LCFI433:
	movq	%rdi, -8(%rbp)
	.loc 3 651 0
	movq	-8(%rbp), %rax
	movq	40(%rax), %rax
	leave
	ret
LFE2652:
	.align 1
.globl __ZNSt17_Rb_tree_iteratorISt4pairIKiSsEEC1EPSt13_Rb_tree_nodeIS2_E
	.weak_definition __ZNSt17_Rb_tree_iteratorISt4pairIKiSsEEC1EPSt13_Rb_tree_nodeIS2_E
	.private_extern __ZNSt17_Rb_tree_iteratorISt4pairIKiSsEEC1EPSt13_Rb_tree_nodeIS2_E
__ZNSt17_Rb_tree_iteratorISt4pairIKiSsEEC1EPSt13_Rb_tree_nodeIS2_E:
LFB2660:
	.loc 3 171 0
	nop
	nop
	nop
	nop
	nop
	nop
	pushq	%rbp
LCFI434:
	movq	%rsp, %rbp
LCFI435:
	movq	%rdi, -8(%rbp)
	movq	%rsi, -16(%rbp)
LBB25:
	.loc 3 172 0
	movq	-16(%rbp), %rdx
	movq	-8(%rbp), %rax
	movq	%rdx, (%rax)
LBE25:
	leave
	ret
LFE2660:
	.align 1
.globl __ZNSt8_Rb_treeIiSt4pairIKiSsESt10_Select1stIS2_ESt4lessIiESaIS2_EE3endEv
	.weak_definition __ZNSt8_Rb_treeIiSt4pairIKiSsESt10_Select1stIS2_ESt4lessIiESaIS2_EE3endEv
	.private_extern __ZNSt8_Rb_treeIiSt4pairIKiSsESt10_Select1stIS2_ESt4lessIiESaIS2_EE3endEv
__ZNSt8_Rb_treeIiSt4pairIKiSsESt10_Select1stIS2_ESt4lessIiESaIS2_EE3endEv:
LFB2547:
	.loc 3 619 0
	nop
	nop
	nop
	nop
	nop
	nop
	pushq	%rbp
LCFI436:
	movq	%rsp, %rbp
LCFI437:
	subq	$32, %rsp
LCFI438:
	movq	%rdi, -24(%rbp)
	.loc 3 620 0
	movq	-24(%rbp), %rax
	addq	$8, %rax
	movq	%rax, %rsi
	leaq	-16(%rbp), %rdi
	call	__ZNSt17_Rb_tree_iteratorISt4pairIKiSsEEC1EPSt13_Rb_tree_nodeIS2_E
	movq	-16(%rbp), %rax
	leave
	ret
LFE2547:
	.align 1
.globl __ZNSt3mapIiSsSt4lessIiESaISt4pairIKiSsEEE3endEv
	.weak_definition __ZNSt3mapIiSsSt4lessIiESaISt4pairIKiSsEEE3endEv
	.private_extern __ZNSt3mapIiSsSt4lessIiESaISt4pairIKiSsEEE3endEv
__ZNSt3mapIiSsSt4lessIiESaISt4pairIKiSsEEE3endEv:
LFB2362:
	.loc 13 262 0
	nop
	nop
	nop
	nop
	nop
	nop
	pushq	%rbp
LCFI439:
	movq	%rsp, %rbp
LCFI440:
	subq	$16, %rsp
LCFI441:
	movq	%rdi, -8(%rbp)
	.loc 13 263 0
	movq	-8(%rbp), %rdi
	call	__ZNSt8_Rb_treeIiSt4pairIKiSsESt10_Select1stIS2_ESt4lessIiESaIS2_EE3endEv
	leave
	ret
LFE2362:
	.align 1
.globl __ZNKSt10_Select1stISt4pairIKiSsEEclERKS2_
	.weak_definition __ZNKSt10_Select1stISt4pairIKiSsEEclERKS2_
	.private_extern __ZNKSt10_Select1stISt4pairIKiSsEEclERKS2_
__ZNKSt10_Select1stISt4pairIKiSsEEclERKS2_:
LFB2662:
	.loc 6 550 0
	nop
	nop
	nop
	nop
	nop
	nop
	pushq	%rbp
LCFI442:
	movq	%rsp, %rbp
LCFI443:
	movq	%rdi, -8(%rbp)
	movq	%rsi, -16(%rbp)
	.loc 6 551 0
	movq	-16(%rbp), %rax
	leave
	ret
LFE2662:
	.align 1
.globl __ZN9__gnu_cxx13new_allocatorISt13_Rb_tree_nodeISt4pairIKSsiEEEC2Ev
	.weak_definition __ZN9__gnu_cxx13new_allocatorISt13_Rb_tree_nodeISt4pairIKSsiEEEC2Ev
	.private_extern __ZN9__gnu_cxx13new_allocatorISt13_Rb_tree_nodeISt4pairIKSsiEEEC2Ev
__ZN9__gnu_cxx13new_allocatorISt13_Rb_tree_nodeISt4pairIKSsiEEEC2Ev:
LFB2668:
	.loc 10 68 0
	nop
	nop
	nop
	nop
	nop
	nop
	pushq	%rbp
LCFI444:
	movq	%rsp, %rbp
LCFI445:
	movq	%rdi, -8(%rbp)
	.loc 10 68 0
	leave
	ret
LFE2668:
	.align 1
.globl __ZNSaISt13_Rb_tree_nodeISt4pairIKSsiEEEC1IS2_EERKSaIT_E
	.weak_definition __ZNSaISt13_Rb_tree_nodeISt4pairIKSsiEEEC1IS2_EERKSaIT_E
	.private_extern __ZNSaISt13_Rb_tree_nodeISt4pairIKSsiEEEC1IS2_EERKSaIT_E
__ZNSaISt13_Rb_tree_nodeISt4pairIKSsiEEEC1IS2_EERKSaIT_E:
LFB2566:
	.loc 11 106 0
	nop
	nop
	nop
	nop
	nop
	nop
	pushq	%rbp
LCFI446:
	movq	%rsp, %rbp
LCFI447:
	subq	$16, %rsp
LCFI448:
	movq	%rdi, -8(%rbp)
	movq	%rsi, -16(%rbp)
	.loc 11 106 0
	movq	-8(%rbp), %rdi
	call	__ZN9__gnu_cxx13new_allocatorISt13_Rb_tree_nodeISt4pairIKSsiEEEC2Ev
	leave
	ret
LFE2566:
	.align 1
.globl __ZN9__gnu_cxx13new_allocatorISt13_Rb_tree_nodeISt4pairIKiSsEEEC2Ev
	.weak_definition __ZN9__gnu_cxx13new_allocatorISt13_Rb_tree_nodeISt4pairIKiSsEEEC2Ev
	.private_extern __ZN9__gnu_cxx13new_allocatorISt13_Rb_tree_nodeISt4pairIKiSsEEEC2Ev
__ZN9__gnu_cxx13new_allocatorISt13_Rb_tree_nodeISt4pairIKiSsEEEC2Ev:
LFB2671:
	.loc 10 68 0
	nop
	nop
	nop
	nop
	nop
	nop
	pushq	%rbp
LCFI449:
	movq	%rsp, %rbp
LCFI450:
	movq	%rdi, -8(%rbp)
	.loc 10 68 0
	leave
	ret
LFE2671:
	.align 1
.globl __ZNSaISt13_Rb_tree_nodeISt4pairIKiSsEEEC1IS2_EERKSaIT_E
	.weak_definition __ZNSaISt13_Rb_tree_nodeISt4pairIKiSsEEEC1IS2_EERKSaIT_E
	.private_extern __ZNSaISt13_Rb_tree_nodeISt4pairIKiSsEEEC1IS2_EERKSaIT_E
__ZNSaISt13_Rb_tree_nodeISt4pairIKiSsEEEC1IS2_EERKSaIT_E:
LFB2578:
	.loc 11 106 0
	nop
	nop
	nop
	nop
	nop
	nop
	pushq	%rbp
LCFI451:
	movq	%rsp, %rbp
LCFI452:
	subq	$16, %rsp
LCFI453:
	movq	%rdi, -8(%rbp)
	movq	%rsi, -16(%rbp)
	.loc 11 106 0
	movq	-8(%rbp), %rdi
	call	__ZN9__gnu_cxx13new_allocatorISt13_Rb_tree_nodeISt4pairIKiSsEEEC2Ev
	leave
	ret
LFE2578:
	.align 1
.globl __ZNK9__gnu_cxx17__normal_iteratorIPKSt6vectorISsSaISsEES1_IS3_SaIS3_EEE4baseEv
	.weak_definition __ZNK9__gnu_cxx17__normal_iteratorIPKSt6vectorISsSaISsEES1_IS3_SaIS3_EEE4baseEv
	.private_extern __ZNK9__gnu_cxx17__normal_iteratorIPKSt6vectorISsSaISsEES1_IS3_SaIS3_EEE4baseEv
__ZNK9__gnu_cxx17__normal_iteratorIPKSt6vectorISsSaISsEES1_IS3_SaIS3_EEE4baseEv:
LFB2673:
	.loc 12 717 0
	nop
	nop
	nop
	nop
	nop
	nop
	pushq	%rbp
LCFI454:
	movq	%rsp, %rbp
LCFI455:
	movq	%rdi, -8(%rbp)
	.loc 12 718 0
	movq	-8(%rbp), %rax
	leave
	ret
LFE2673:
	.align 1
.globl __ZNK9__gnu_cxx13new_allocatorISt6vectorISsSaISsEEE8max_sizeEv
	.weak_definition __ZNK9__gnu_cxx13new_allocatorISt6vectorISsSaISsEEE8max_sizeEv
	.private_extern __ZNK9__gnu_cxx13new_allocatorISt6vectorISsSaISsEEE8max_sizeEv
__ZNK9__gnu_cxx13new_allocatorISt6vectorISsSaISsEEE8max_sizeEv:
LFB2682:
	.loc 10 100 0
	nop
	nop
	nop
	nop
	nop
	nop
	pushq	%rbp
LCFI456:
	movq	%rsp, %rbp
LCFI457:
	movq	%rdi, -8(%rbp)
	.loc 10 101 0
	movabsq	$768614336404564650, %rax
	leave
	ret
LFE2682:
	.align 1
.globl __ZNKSt6vectorIS_ISsSaISsEESaIS1_EE8max_sizeEv
	.weak_definition __ZNKSt6vectorIS_ISsSaISsEESaIS1_EE8max_sizeEv
	.private_extern __ZNKSt6vectorIS_ISsSaISsEESaIS1_EE8max_sizeEv
__ZNKSt6vectorIS_ISsSaISsEESaIS1_EE8max_sizeEv:
LFB2593:
	.loc 8 404 0
	nop
	nop
	nop
	nop
	nop
	nop
	pushq	%rbp
LCFI458:
	movq	%rsp, %rbp
LCFI459:
	subq	$16, %rsp
LCFI460:
	movq	%rdi, -8(%rbp)
	.loc 8 405 0
	movq	-8(%rbp), %rdi
	call	__ZNKSt12_Vector_baseISt6vectorISsSaISsEESaIS2_EE19_M_get_Tp_allocatorEv
	movq	%rax, %rdi
	call	__ZNK9__gnu_cxx13new_allocatorISt6vectorISsSaISsEEE8max_sizeEv
	leave
	ret
LFE2593:
	.align 1
.globl __ZNSaISt4pairIKSsiEEC1ISt13_Rb_tree_nodeIS1_EEERKSaIT_E
	.weak_definition __ZNSaISt4pairIKSsiEEC1ISt13_Rb_tree_nodeIS1_EEERKSaIT_E
	.private_extern __ZNSaISt4pairIKSsiEEC1ISt13_Rb_tree_nodeIS1_EEERKSaIT_E
__ZNSaISt4pairIKSsiEEC1ISt13_Rb_tree_nodeIS1_EEERKSaIT_E:
LFB2685:
	.loc 11 106 0
	nop
	nop
	nop
	nop
	nop
	nop
	pushq	%rbp
LCFI461:
	movq	%rsp, %rbp
LCFI462:
	subq	$16, %rsp
LCFI463:
	movq	%rdi, -8(%rbp)
	movq	%rsi, -16(%rbp)
	.loc 11 106 0
	movq	-8(%rbp), %rdi
	call	__ZN9__gnu_cxx13new_allocatorISt4pairIKSsiEEC2Ev
	leave
	ret
LFE2685:
	.align 1
.globl __ZNKSt8_Rb_treeISsSt4pairIKSsiESt10_Select1stIS2_ESt4lessISsESaIS2_EE13get_allocatorEv
	.weak_definition __ZNKSt8_Rb_treeISsSt4pairIKSsiESt10_Select1stIS2_ESt4lessISsESaIS2_EE13get_allocatorEv
	.private_extern __ZNKSt8_Rb_treeISsSt4pairIKSsiESt10_Select1stIS2_ESt4lessISsESaIS2_EE13get_allocatorEv
__ZNKSt8_Rb_treeISsSt4pairIKSsiESt10_Select1stIS2_ESt4lessISsESaIS2_EE13get_allocatorEv:
LFB2594:
	.loc 3 363 0
	nop
	nop
	nop
	nop
	nop
	nop
	pushq	%rbp
LCFI464:
	movq	%rsp, %rbp
LCFI465:
	pushq	%r12
LCFI466:
	pushq	%rbx
LCFI467:
	subq	$16, %rsp
LCFI468:
	movq	%rdi, %rbx
	movq	%rsi, -24(%rbp)
	.loc 3 364 0
	movq	%rbx, %r12
	movq	-24(%rbp), %rdi
	call	__ZNKSt8_Rb_treeISsSt4pairIKSsiESt10_Select1stIS2_ESt4lessISsESaIS2_EE21_M_get_Node_allocatorEv
	movq	%rax, %rsi
	movq	%r12, %rdi
	call	__ZNSaISt4pairIKSsiEEC1ISt13_Rb_tree_nodeIS1_EEERKSaIT_E
	movq	%rbx, %rax
	addq	$16, %rsp
	popq	%rbx
	popq	%r12
	leave
	ret
LFE2594:
	.align 1
.globl __ZNSaISt4pairIKiSsEEC1ISt13_Rb_tree_nodeIS1_EEERKSaIT_E
	.weak_definition __ZNSaISt4pairIKiSsEEC1ISt13_Rb_tree_nodeIS1_EEERKSaIT_E
	.private_extern __ZNSaISt4pairIKiSsEEC1ISt13_Rb_tree_nodeIS1_EEERKSaIT_E
__ZNSaISt4pairIKiSsEEC1ISt13_Rb_tree_nodeIS1_EEERKSaIT_E:
LFB2689:
	.loc 11 106 0
	nop
	nop
	nop
	nop
	nop
	nop
	pushq	%rbp
LCFI469:
	movq	%rsp, %rbp
LCFI470:
	subq	$16, %rsp
LCFI471:
	movq	%rdi, -8(%rbp)
	movq	%rsi, -16(%rbp)
	.loc 11 106 0
	movq	-8(%rbp), %rdi
	call	__ZN9__gnu_cxx13new_allocatorISt4pairIKiSsEEC2Ev
	leave
	ret
LFE2689:
	.align 1
.globl __ZNKSt8_Rb_treeIiSt4pairIKiSsESt10_Select1stIS2_ESt4lessIiESaIS2_EE13get_allocatorEv
	.weak_definition __ZNKSt8_Rb_treeIiSt4pairIKiSsESt10_Select1stIS2_ESt4lessIiESaIS2_EE13get_allocatorEv
	.private_extern __ZNKSt8_Rb_treeIiSt4pairIKiSsESt10_Select1stIS2_ESt4lessIiESaIS2_EE13get_allocatorEv
__ZNKSt8_Rb_treeIiSt4pairIKiSsESt10_Select1stIS2_ESt4lessIiESaIS2_EE13get_allocatorEv:
LFB2597:
	.loc 3 363 0
	nop
	nop
	nop
	nop
	nop
	nop
	pushq	%rbp
LCFI472:
	movq	%rsp, %rbp
LCFI473:
	pushq	%r12
LCFI474:
	pushq	%rbx
LCFI475:
	subq	$16, %rsp
LCFI476:
	movq	%rdi, %rbx
	movq	%rsi, -24(%rbp)
	.loc 3 364 0
	movq	%rbx, %r12
	movq	-24(%rbp), %rdi
	call	__ZNKSt8_Rb_treeIiSt4pairIKiSsESt10_Select1stIS2_ESt4lessIiESaIS2_EE21_M_get_Node_allocatorEv
	movq	%rax, %rsi
	movq	%r12, %rdi
	call	__ZNSaISt4pairIKiSsEEC1ISt13_Rb_tree_nodeIS1_EEERKSaIT_E
	movq	%rbx, %rax
	addq	$16, %rsp
	popq	%rbx
	popq	%r12
	leave
	ret
LFE2597:
	.align 1
.globl __ZN9__gnu_cxx13new_allocatorISt13_Rb_tree_nodeISt4pairIKSs5TableEEEC2ERKS7_
	.weak_definition __ZN9__gnu_cxx13new_allocatorISt13_Rb_tree_nodeISt4pairIKSs5TableEEEC2ERKS7_
	.private_extern __ZN9__gnu_cxx13new_allocatorISt13_Rb_tree_nodeISt4pairIKSs5TableEEEC2ERKS7_
__ZN9__gnu_cxx13new_allocatorISt13_Rb_tree_nodeISt4pairIKSs5TableEEEC2ERKS7_:
LFB2693:
	.loc 10 70 0
	nop
	nop
	nop
	nop
	nop
	nop
	pushq	%rbp
LCFI477:
	movq	%rsp, %rbp
LCFI478:
	movq	%rdi, -8(%rbp)
	movq	%rsi, -16(%rbp)
	.loc 10 70 0
	leave
	ret
LFE2693:
	.align 1
.globl __ZNSaISt13_Rb_tree_nodeISt4pairIKSs5TableEEEC2ERKS5_
	.weak_definition __ZNSaISt13_Rb_tree_nodeISt4pairIKSs5TableEEEC2ERKS5_
	.private_extern __ZNSaISt13_Rb_tree_nodeISt4pairIKSs5TableEEEC2ERKS5_
__ZNSaISt13_Rb_tree_nodeISt4pairIKSs5TableEEEC2ERKS5_:
LFB2608:
	.loc 11 102 0
	nop
	nop
	nop
	nop
	nop
	nop
	pushq	%rbp
LCFI479:
	movq	%rsp, %rbp
LCFI480:
	subq	$16, %rsp
LCFI481:
	movq	%rdi, -8(%rbp)
	movq	%rsi, -16(%rbp)
	.loc 11 103 0
	movq	-16(%rbp), %rsi
	movq	-8(%rbp), %rdi
	call	__ZN9__gnu_cxx13new_allocatorISt13_Rb_tree_nodeISt4pairIKSs5TableEEEC2ERKS7_
	leave
	ret
LFE2608:
	.align 1
.globl __ZNSt8_Rb_treeISsSt4pairIKSs5TableESt10_Select1stIS3_ESt4lessISsESaIS3_EE13_Rb_tree_implIS7_Lb0EEC1ERKSaISt13_Rb_tree_nodeIS3_EERKS7_
	.weak_definition __ZNSt8_Rb_treeISsSt4pairIKSs5TableESt10_Select1stIS3_ESt4lessISsESaIS3_EE13_Rb_tree_implIS7_Lb0EEC1ERKSaISt13_Rb_tree_nodeIS3_EERKS7_
	.private_extern __ZNSt8_Rb_treeISsSt4pairIKSs5TableESt10_Select1stIS3_ESt4lessISsESaIS3_EE13_Rb_tree_implIS7_Lb0EEC1ERKSaISt13_Rb_tree_nodeIS3_EERKS7_
__ZNSt8_Rb_treeISsSt4pairIKSs5TableESt10_Select1stIS3_ESt4lessISsESaIS3_EE13_Rb_tree_implIS7_Lb0EEC1ERKSaISt13_Rb_tree_nodeIS3_EERKS7_:
LFB2457:
	.loc 3 416 0
	nop
	nop
	nop
	nop
	nop
	nop
	pushq	%rbp
LCFI482:
	movq	%rsp, %rbp
LCFI483:
	subq	$32, %rsp
LCFI484:
	movq	%rdi, -8(%rbp)
	movq	%rsi, -16(%rbp)
	movq	%rdx, -24(%rbp)
LBB26:
	.loc 3 418 0
	movq	-8(%rbp), %rdi
	movq	-16(%rbp), %rsi
	call	__ZNSaISt13_Rb_tree_nodeISt4pairIKSs5TableEEEC2ERKS5_
	movq	-8(%rbp), %rax
	movl	$0, 8(%rax)
	movq	-8(%rbp), %rax
	movq	$0, 16(%rax)
	movq	-8(%rbp), %rax
	movq	$0, 24(%rax)
	movq	-8(%rbp), %rax
	movq	$0, 32(%rax)
	movq	-8(%rbp), %rax
	movq	$0, 40(%rax)
	.loc 3 420 0
	movq	-8(%rbp), %rax
	movl	$0, 8(%rax)
	.loc 3 421 0
	movq	-8(%rbp), %rax
	movq	$0, 16(%rax)
	.loc 3 422 0
	movq	-8(%rbp), %rdx
	addq	$8, %rdx
	movq	-8(%rbp), %rax
	movq	%rdx, 24(%rax)
	.loc 3 423 0
	movq	-8(%rbp), %rdx
	addq	$8, %rdx
	movq	-8(%rbp), %rax
	movq	%rdx, 32(%rax)
LBE26:
	leave
	ret
LFE2457:
	.align 1
.globl __ZNSt8_Rb_treeISsSt4pairIKSs5TableESt10_Select1stIS3_ESt4lessISsESaIS3_EEC1ERKS7_RKS8_
	.weak_definition __ZNSt8_Rb_treeISsSt4pairIKSs5TableESt10_Select1stIS3_ESt4lessISsESaIS3_EEC1ERKS7_RKS8_
	.private_extern __ZNSt8_Rb_treeISsSt4pairIKSs5TableESt10_Select1stIS3_ESt4lessISsESaIS3_EEC1ERKS7_RKS8_
__ZNSt8_Rb_treeISsSt4pairIKSs5TableESt10_Select1stIS3_ESt4lessISsESaIS3_EEC1ERKS7_RKS8_:
LFB2233:
	.loc 3 577 0
	nop
	nop
	nop
	nop
	nop
	nop
	pushq	%rbp
LCFI485:
	movq	%rsp, %rbp
LCFI486:
	subq	$48, %rsp
LCFI487:
	movq	%rdi, -24(%rbp)
	movq	%rsi, -32(%rbp)
	movq	%rdx, -40(%rbp)
LBB27:
	.loc 3 578 0
	movq	-40(%rbp), %rsi
	leaq	-1(%rbp), %rdi
	call	__ZNSaISt13_Rb_tree_nodeISt4pairIKSs5TableEEEC1IS3_EERKSaIT_E
	movq	-24(%rbp), %rdi
	movq	-32(%rbp), %rdx
	leaq	-1(%rbp), %rsi
	call	__ZNSt8_Rb_treeISsSt4pairIKSs5TableESt10_Select1stIS3_ESt4lessISsESaIS3_EE13_Rb_tree_implIS7_Lb0EEC1ERKSaISt13_Rb_tree_nodeIS3_EERKS7_
	leaq	-1(%rbp), %rdi
	call	__ZNSaISt13_Rb_tree_nodeISt4pairIKSs5TableEEED1Ev
LBE27:
	.loc 3 579 0
	leave
	ret
LFE2233:
	.align 1
.globl __ZNSt3mapISs5TableSt4lessISsESaISt4pairIKSsS0_EEEC1Ev
	.weak_definition __ZNSt3mapISs5TableSt4lessISsESaISt4pairIKSsS0_EEEC1Ev
	.private_extern __ZNSt3mapISs5TableSt4lessISsESaISt4pairIKSsS0_EEEC1Ev
__ZNSt3mapISs5TableSt4lessISsESaISt4pairIKSsS0_EEEC1Ev:
LFB2048:
	.loc 13 157 0
	nop
	nop
	nop
	nop
	nop
	nop
	pushq	%rbp
LCFI488:
	movq	%rsp, %rbp
LCFI489:
	subq	$32, %rsp
LCFI490:
	movq	%rdi, -24(%rbp)
LBB28:
	.loc 13 158 0
	leaq	-1(%rbp), %rdi
	call	__ZNSaISt4pairIKSs5TableEEC1Ev
	leaq	-2(%rbp), %rdi
	call	__ZNSt4lessISsEC1Ev
	movq	-24(%rbp), %rdi
	leaq	-1(%rbp), %rdx
	leaq	-2(%rbp), %rsi
	call	__ZNSt8_Rb_treeISsSt4pairIKSs5TableESt10_Select1stIS3_ESt4lessISsESaIS3_EEC1ERKS7_RKS8_
	leaq	-1(%rbp), %rdi
	call	__ZNSaISt4pairIKSs5TableEED1Ev
LBE28:
	leave
	ret
LFE2048:
.globl __ZSt8_DestroyISsEvPT_
	.weak_definition __ZSt8_DestroyISsEvPT_
__ZSt8_DestroyISsEvPT_:
LFB2698:
	.file 16 "/Developer/SDKs/MacOSX10.6.sdk/usr/include/c++/4.2.1/bits/stl_construct.h"
	.loc 16 106 0
	nop
	nop
	nop
	nop
	nop
	nop
	pushq	%rbp
LCFI491:
	movq	%rsp, %rbp
LCFI492:
	subq	$16, %rsp
LCFI493:
	movq	%rdi, -8(%rbp)
	.loc 16 107 0
	movq	-8(%rbp), %rdi
	call	__ZNSsD1Ev
	leave
	ret
LFE2698:
.globl __ZSt13__destroy_auxIPSsEvT_S1_St12__false_type
	.weak_definition __ZSt13__destroy_auxIPSsEvT_S1_St12__false_type
__ZSt13__destroy_auxIPSsEvT_S1_St12__false_type:
LFB2613:
	.loc 16 119 0
	nop
	nop
	nop
	nop
	nop
	nop
	pushq	%rbp
LCFI494:
	movq	%rsp, %rbp
LCFI495:
	subq	$16, %rsp
LCFI496:
	movq	%rdi, -8(%rbp)
	movq	%rsi, -16(%rbp)
	.loc 16 121 0
	jmp	L463
L464:
	.loc 16 122 0
	movq	-8(%rbp), %rdi
	call	__ZSt8_DestroyISsEvPT_
	.loc 16 121 0
	addq	$8, -8(%rbp)
L463:
	movq	-8(%rbp), %rax
	cmpq	-16(%rbp), %rax
	jne	L464
	.loc 16 122 0
	leave
	ret
LFE2613:
.globl __ZSt8_DestroyIPSsEvT_S1_
	.weak_definition __ZSt8_DestroyIPSsEvT_S1_
__ZSt8_DestroyIPSsEvT_S1_:
LFB2472:
	.loc 16 148 0
	nop
	nop
	nop
	nop
	nop
	nop
	pushq	%rbp
LCFI497:
	movq	%rsp, %rbp
LCFI498:
	subq	$48, %rsp
LCFI499:
	movq	%rdi, -8(%rbp)
	movq	%rsi, -16(%rbp)
LBB29:
	.loc 16 155 0
	movq	-16(%rbp), %rsi
	movq	-8(%rbp), %rdi
	movzbl	-17(%rbp), %eax
	movb	%al, (%rsp)
	call	__ZSt13__destroy_auxIPSsEvT_S1_St12__false_type
LBE29:
	leave
	ret
LFE2472:
.globl __ZSt8_DestroyIPSsSsEvT_S1_SaIT0_E
	.weak_definition __ZSt8_DestroyIPSsSsEvT_S1_SaIT0_E
__ZSt8_DestroyIPSsSsEvT_S1_SaIT0_E:
LFB2291:
	.loc 16 180 0
	nop
	nop
	nop
	nop
	nop
	nop
	pushq	%rbp
LCFI500:
	movq	%rsp, %rbp
LCFI501:
	subq	$32, %rsp
LCFI502:
	movq	%rdi, -8(%rbp)
	movq	%rsi, -16(%rbp)
	movq	%rdx, -24(%rbp)
	.loc 16 182 0
	movq	-16(%rbp), %rsi
	movq	-8(%rbp), %rdi
	call	__ZSt8_DestroyIPSsEvT_S1_
	leave
	ret
LFE2291:
	.align 1
.globl __ZNSt6vectorISsSaISsEE15_M_erase_at_endEPSs
	.weak_definition __ZNSt6vectorISsSaISsEE15_M_erase_at_endEPSs
	.private_extern __ZNSt6vectorISsSaISsEE15_M_erase_at_endEPSs
__ZNSt6vectorISsSaISsEE15_M_erase_at_endEPSs:
LFB2318:
	.loc 8 922 0
	nop
	nop
	nop
	nop
	nop
	nop
	pushq	%rbp
LCFI503:
	movq	%rsp, %rbp
LCFI504:
	pushq	%rbx
LCFI505:
	subq	$56, %rsp
LCFI506:
	movq	%rdi, -40(%rbp)
	movq	%rsi, -48(%rbp)
	.loc 8 924 0
	movq	-40(%rbp), %rdi
	call	__ZNSt12_Vector_baseISsSaISsEE19_M_get_Tp_allocatorEv
	movq	%rax, %rsi
	leaq	-17(%rbp), %rdi
	call	__ZNSaISsEC1ERKS_
	movq	-40(%rbp), %rax
	movq	8(%rax), %rsi
	leaq	-17(%rbp), %rdx
	movq	-48(%rbp), %rdi
LEHB0:
	call	__ZSt8_DestroyIPSsSsEvT_S1_SaIT0_E
LEHE0:
	leaq	-17(%rbp), %rdi
	call	__ZNSaISsED1Ev
	.loc 8 925 0
	movq	-40(%rbp), %rdx
	movq	-48(%rbp), %rax
	movq	%rax, 8(%rdx)
	jmp	L473
L474:
	movq	%rax, -56(%rbp)
L472:
	movq	-56(%rbp), %rbx
	.loc 8 924 0
	leaq	-17(%rbp), %rdi
	call	__ZNSaISsED1Ev
	movq	%rbx, -56(%rbp)
	movq	-56(%rbp), %rdi
LEHB1:
	call	__Unwind_Resume
LEHE1:
L473:
	.loc 8 925 0
	addq	$56, %rsp
	popq	%rbx
	leave
	ret
LFE2318:
	.section __TEXT,__gcc_except_tab
GCC_except_table0:
LLSDA2318:
	.byte	0xff
	.byte	0xff
	.byte	0x3
	.byte	0x1a
	.set L$set$0,LEHB0-LFB2318
	.long L$set$0
	.set L$set$1,LEHE0-LEHB0
	.long L$set$1
	.set L$set$2,L474-LFB2318
	.long L$set$2
	.byte	0x0
	.set L$set$3,LEHB1-LFB2318
	.long L$set$3
	.set L$set$4,LEHE1-LEHB1
	.long L$set$4
	.long	0x0
	.byte	0x0
	.section __TEXT,__textcoal_nt,coalesced,pure_instructions
	.align 1
.globl __ZNSt6vectorISsSaISsEE5clearEv
	.weak_definition __ZNSt6vectorISsSaISsEE5clearEv
	.private_extern __ZNSt6vectorISsSaISsEE5clearEv
__ZNSt6vectorISsSaISsEE5clearEv:
LFB2109:
	.loc 8 751 0
	nop
	nop
	nop
	nop
	nop
	nop
	pushq	%rbp
LCFI507:
	movq	%rsp, %rbp
LCFI508:
	subq	$16, %rsp
LCFI509:
	movq	%rdi, -8(%rbp)
	.loc 8 752 0
	movq	-8(%rbp), %rax
	movq	(%rax), %rsi
	movq	-8(%rbp), %rdi
	call	__ZNSt6vectorISsSaISsEE15_M_erase_at_endEPSs
	leave
	ret
LFE2109:
.globl __ZNSt8_Rb_treeISsSt4pairIKSs5TableESt10_Select1stIS3_ESt4lessISsESaIS3_EE8_S_valueEPKSt13_Rb_tree_nodeIS3_E
	.weak_definition __ZNSt8_Rb_treeISsSt4pairIKSs5TableESt10_Select1stIS3_ESt4lessISsESaIS3_EE8_S_valueEPKSt13_Rb_tree_nodeIS3_E
	.private_extern __ZNSt8_Rb_treeISsSt4pairIKSs5TableESt10_Select1stIS3_ESt4lessISsESaIS3_EE8_S_valueEPKSt13_Rb_tree_nodeIS3_E
__ZNSt8_Rb_treeISsSt4pairIKSs5TableESt10_Select1stIS3_ESt4lessISsESaIS3_EE8_S_valueEPKSt13_Rb_tree_nodeIS3_E:
LFB2700:
	.loc 3 495 0
	nop
	nop
	nop
	nop
	nop
	nop
	pushq	%rbp
LCFI510:
	movq	%rsp, %rbp
LCFI511:
	movq	%rdi, -8(%rbp)
	.loc 3 496 0
	movq	-8(%rbp), %rax
	addq	$32, %rax
	leave
	ret
LFE2700:
.globl __ZNSt8_Rb_treeISsSt4pairIKSs5TableESt10_Select1stIS3_ESt4lessISsESaIS3_EE6_S_keyEPKSt13_Rb_tree_nodeIS3_E
	.weak_definition __ZNSt8_Rb_treeISsSt4pairIKSs5TableESt10_Select1stIS3_ESt4lessISsESaIS3_EE6_S_keyEPKSt13_Rb_tree_nodeIS3_E
	.private_extern __ZNSt8_Rb_treeISsSt4pairIKSs5TableESt10_Select1stIS3_ESt4lessISsESaIS3_EE6_S_keyEPKSt13_Rb_tree_nodeIS3_E
__ZNSt8_Rb_treeISsSt4pairIKSs5TableESt10_Select1stIS3_ESt4lessISsESaIS3_EE6_S_keyEPKSt13_Rb_tree_nodeIS3_E:
LFB2619:
	.loc 3 499 0
	nop
	nop
	nop
	nop
	nop
	nop
	pushq	%rbp
LCFI512:
	movq	%rsp, %rbp
LCFI513:
	pushq	%rbx
LCFI514:
	subq	$40, %rsp
LCFI515:
	movq	%rdi, -40(%rbp)
	.loc 3 500 0
	movq	-40(%rbp), %rdi
	call	__ZNSt8_Rb_treeISsSt4pairIKSs5TableESt10_Select1stIS3_ESt4lessISsESaIS3_EE8_S_valueEPKSt13_Rb_tree_nodeIS3_E
	movq	%rax, %rbx
	leaq	-17(%rbp), %rdi
	call	__ZNSt10_Select1stISt4pairIKSs5TableEEC1Ev
	leaq	-17(%rbp), %rdi
	movq	%rbx, %rsi
	call	__ZNKSt10_Select1stISt4pairIKSs5TableEEclERKS3_
	addq	$40, %rsp
	popq	%rbx
	leave
	ret
LFE2619:
	.align 1
.globl __ZNSt8_Rb_treeISsSt4pairIKSs5TableESt10_Select1stIS3_ESt4lessISsESaIS3_EE11lower_boundERS1_
	.weak_definition __ZNSt8_Rb_treeISsSt4pairIKSs5TableESt10_Select1stIS3_ESt4lessISsESaIS3_EE11lower_boundERS1_
__ZNSt8_Rb_treeISsSt4pairIKSs5TableESt10_Select1stIS3_ESt4lessISsESaIS3_EE11lower_boundERS1_:
LFB2481:
	.loc 3 1426 0
	nop
	nop
	nop
	nop
	nop
	nop
	pushq	%rbp
LCFI516:
	movq	%rsp, %rbp
LCFI517:
	subq	$48, %rsp
LCFI518:
	movq	%rdi, -40(%rbp)
	movq	%rsi, -48(%rbp)
LBB30:
	.loc 3 1428 0
	movq	-40(%rbp), %rdi
	call	__ZNSt8_Rb_treeISsSt4pairIKSs5TableESt10_Select1stIS3_ESt4lessISsESaIS3_EE8_M_beginEv
	movq	%rax, -8(%rbp)
	.loc 3 1429 0
	movq	-40(%rbp), %rdi
	call	__ZNSt8_Rb_treeISsSt4pairIKSs5TableESt10_Select1stIS3_ESt4lessISsESaIS3_EE6_M_endEv
	movq	%rax, -16(%rbp)
	.loc 3 1431 0
	jmp	L482
L483:
	.loc 3 1432 0
	movq	-8(%rbp), %rdi
	call	__ZNSt8_Rb_treeISsSt4pairIKSs5TableESt10_Select1stIS3_ESt4lessISsESaIS3_EE6_S_keyEPKSt13_Rb_tree_nodeIS3_E
	movq	%rax, %rsi
	movq	-40(%rbp), %rdi
	movq	-48(%rbp), %rdx
	call	__ZNKSt4lessISsEclERKSsS2_
	xorl	$1, %eax
	testb	%al, %al
	je	L484
	.loc 3 1433 0
	movq	-8(%rbp), %rax
	movq	%rax, -16(%rbp)
	movq	-8(%rbp), %rdi
	call	__ZNSt8_Rb_treeISsSt4pairIKSs5TableESt10_Select1stIS3_ESt4lessISsESaIS3_EE7_S_leftEPSt18_Rb_tree_node_base
	movq	%rax, -8(%rbp)
	jmp	L482
L484:
	.loc 3 1435 0
	movq	-8(%rbp), %rdi
	call	__ZNSt8_Rb_treeISsSt4pairIKSs5TableESt10_Select1stIS3_ESt4lessISsESaIS3_EE8_S_rightEPSt18_Rb_tree_node_base
	movq	%rax, -8(%rbp)
L482:
	.loc 3 1431 0
	cmpq	$0, -8(%rbp)
	jne	L483
	.loc 3 1437 0
	movq	-16(%rbp), %rsi
	leaq	-32(%rbp), %rdi
	call	__ZNSt17_Rb_tree_iteratorISt4pairIKSs5TableEEC1EPSt13_Rb_tree_nodeIS3_E
	movq	-32(%rbp), %rax
LBE30:
	leave
	ret
LFE2481:
	.align 1
.globl __ZNSt3mapISs5TableSt4lessISsESaISt4pairIKSsS0_EEE11lower_boundERS4_
	.weak_definition __ZNSt3mapISs5TableSt4lessISsESaISt4pairIKSsS0_EEE11lower_boundERS4_
	.private_extern __ZNSt3mapISs5TableSt4lessISsESaISt4pairIKSsS0_EEE11lower_boundERS4_
__ZNSt3mapISs5TableSt4lessISsESaISt4pairIKSsS0_EEE11lower_boundERS4_:
LFB2295:
	.loc 13 583 0
	nop
	nop
	nop
	nop
	nop
	nop
	pushq	%rbp
LCFI519:
	movq	%rsp, %rbp
LCFI520:
	subq	$16, %rsp
LCFI521:
	movq	%rdi, -8(%rbp)
	movq	%rsi, -16(%rbp)
	.loc 13 584 0
	movq	-8(%rbp), %rdi
	movq	-16(%rbp), %rsi
	call	__ZNSt8_Rb_treeISsSt4pairIKSs5TableESt10_Select1stIS3_ESt4lessISsESaIS3_EE11lower_boundERS1_
	leave
	ret
LFE2295:
.globl __ZNSt8_Rb_treeISsSt4pairIKSs5TableESt10_Select1stIS3_ESt4lessISsESaIS3_EE8_S_valueEPKSt18_Rb_tree_node_base
	.weak_definition __ZNSt8_Rb_treeISsSt4pairIKSs5TableESt10_Select1stIS3_ESt4lessISsESaIS3_EE8_S_valueEPKSt18_Rb_tree_node_base
	.private_extern __ZNSt8_Rb_treeISsSt4pairIKSs5TableESt10_Select1stIS3_ESt4lessISsESaIS3_EE8_S_valueEPKSt18_Rb_tree_node_base
__ZNSt8_Rb_treeISsSt4pairIKSs5TableESt10_Select1stIS3_ESt4lessISsESaIS3_EE8_S_valueEPKSt18_Rb_tree_node_base:
LFB2701:
	.loc 3 519 0
	nop
	nop
	nop
	nop
	nop
	nop
	pushq	%rbp
LCFI522:
	movq	%rsp, %rbp
LCFI523:
	movq	%rdi, -8(%rbp)
	.loc 3 520 0
	movq	-8(%rbp), %rax
	addq	$32, %rax
	leave
	ret
LFE2701:
.globl __ZNSt8_Rb_treeISsSt4pairIKSs5TableESt10_Select1stIS3_ESt4lessISsESaIS3_EE6_S_keyEPKSt18_Rb_tree_node_base
	.weak_definition __ZNSt8_Rb_treeISsSt4pairIKSs5TableESt10_Select1stIS3_ESt4lessISsESaIS3_EE6_S_keyEPKSt18_Rb_tree_node_base
	.private_extern __ZNSt8_Rb_treeISsSt4pairIKSs5TableESt10_Select1stIS3_ESt4lessISsESaIS3_EE6_S_keyEPKSt18_Rb_tree_node_base
__ZNSt8_Rb_treeISsSt4pairIKSs5TableESt10_Select1stIS3_ESt4lessISsESaIS3_EE6_S_keyEPKSt18_Rb_tree_node_base:
LFB2621:
	.loc 3 523 0
	nop
	nop
	nop
	nop
	nop
	nop
	pushq	%rbp
LCFI524:
	movq	%rsp, %rbp
LCFI525:
	pushq	%rbx
LCFI526:
	subq	$40, %rsp
LCFI527:
	movq	%rdi, -40(%rbp)
	.loc 3 524 0
	movq	-40(%rbp), %rdi
	call	__ZNSt8_Rb_treeISsSt4pairIKSs5TableESt10_Select1stIS3_ESt4lessISsESaIS3_EE8_S_valueEPKSt18_Rb_tree_node_base
	movq	%rax, %rbx
	leaq	-17(%rbp), %rdi
	call	__ZNSt10_Select1stISt4pairIKSs5TableEEC1Ev
	leaq	-17(%rbp), %rdi
	movq	%rbx, %rsi
	call	__ZNKSt10_Select1stISt4pairIKSs5TableEEclERKS3_
	addq	$40, %rsp
	popq	%rbx
	leave
	ret
LFE2621:
	.align 1
.globl __ZNSt4pairISt17_Rb_tree_iteratorIS_IKSs5TableEEbEC1ERKS4_RKb
	.weak_definition __ZNSt4pairISt17_Rb_tree_iteratorIS_IKSs5TableEEbEC1ERKS4_RKb
	.private_extern __ZNSt4pairISt17_Rb_tree_iteratorIS_IKSs5TableEEbEC1ERKS4_RKb
__ZNSt4pairISt17_Rb_tree_iteratorIS_IKSs5TableEEbEC1ERKS4_RKb:
LFB2705:
	.loc 9 84 0
	nop
	nop
	nop
	nop
	nop
	nop
	pushq	%rbp
LCFI528:
	movq	%rsp, %rbp
LCFI529:
	movq	%rdi, -8(%rbp)
	movq	%rsi, -16(%rbp)
	movq	%rdx, -24(%rbp)
LBB31:
	.loc 9 85 0
	movq	-16(%rbp), %rax
	movq	(%rax), %rdx
	movq	-8(%rbp), %rax
	movq	%rdx, (%rax)
	movq	-24(%rbp), %rax
	movzbl	(%rax), %edx
	movq	-8(%rbp), %rax
	movb	%dl, 8(%rax)
LBE31:
	leave
	ret
LFE2705:
	.align 1
.globl __ZN9__gnu_cxx13new_allocatorISt13_Rb_tree_nodeISt4pairIKSsiEEEC2ERKS6_
	.weak_definition __ZN9__gnu_cxx13new_allocatorISt13_Rb_tree_nodeISt4pairIKSsiEEEC2ERKS6_
	.private_extern __ZN9__gnu_cxx13new_allocatorISt13_Rb_tree_nodeISt4pairIKSsiEEEC2ERKS6_
__ZN9__gnu_cxx13new_allocatorISt13_Rb_tree_nodeISt4pairIKSsiEEEC2ERKS6_:
LFB2707:
	.loc 10 70 0
	nop
	nop
	nop
	nop
	nop
	nop
	pushq	%rbp
LCFI530:
	movq	%rsp, %rbp
LCFI531:
	movq	%rdi, -8(%rbp)
	movq	%rsi, -16(%rbp)
	.loc 10 70 0
	leave
	ret
LFE2707:
	.align 1
.globl __ZNSaISt13_Rb_tree_nodeISt4pairIKSsiEEEC2ERKS4_
	.weak_definition __ZNSaISt13_Rb_tree_nodeISt4pairIKSsiEEEC2ERKS4_
	.private_extern __ZNSaISt13_Rb_tree_nodeISt4pairIKSsiEEEC2ERKS4_
__ZNSaISt13_Rb_tree_nodeISt4pairIKSsiEEEC2ERKS4_:
LFB2630:
	.loc 11 102 0
	nop
	nop
	nop
	nop
	nop
	nop
	pushq	%rbp
LCFI532:
	movq	%rsp, %rbp
LCFI533:
	subq	$16, %rsp
LCFI534:
	movq	%rdi, -8(%rbp)
	movq	%rsi, -16(%rbp)
	.loc 11 103 0
	movq	-16(%rbp), %rsi
	movq	-8(%rbp), %rdi
	call	__ZN9__gnu_cxx13new_allocatorISt13_Rb_tree_nodeISt4pairIKSsiEEEC2ERKS6_
	leave
	ret
LFE2630:
	.align 1
.globl __ZNSt8_Rb_treeISsSt4pairIKSsiESt10_Select1stIS2_ESt4lessISsESaIS2_EE13_Rb_tree_implIS6_Lb0EEC1ERKSaISt13_Rb_tree_nodeIS2_EERKS6_
	.weak_definition __ZNSt8_Rb_treeISsSt4pairIKSsiESt10_Select1stIS2_ESt4lessISsESaIS2_EE13_Rb_tree_implIS6_Lb0EEC1ERKSaISt13_Rb_tree_nodeIS2_EERKS6_
	.private_extern __ZNSt8_Rb_treeISsSt4pairIKSsiESt10_Select1stIS2_ESt4lessISsESaIS2_EE13_Rb_tree_implIS6_Lb0EEC1ERKSaISt13_Rb_tree_nodeIS2_EERKS6_
__ZNSt8_Rb_treeISsSt4pairIKSsiESt10_Select1stIS2_ESt4lessISsESaIS2_EE13_Rb_tree_implIS6_Lb0EEC1ERKSaISt13_Rb_tree_nodeIS2_EERKS6_:
LFB2494:
	.loc 3 416 0
	nop
	nop
	nop
	nop
	nop
	nop
	pushq	%rbp
LCFI535:
	movq	%rsp, %rbp
LCFI536:
	subq	$32, %rsp
LCFI537:
	movq	%rdi, -8(%rbp)
	movq	%rsi, -16(%rbp)
	movq	%rdx, -24(%rbp)
LBB32:
	.loc 3 418 0
	movq	-8(%rbp), %rdi
	movq	-16(%rbp), %rsi
	call	__ZNSaISt13_Rb_tree_nodeISt4pairIKSsiEEEC2ERKS4_
	movq	-8(%rbp), %rax
	movl	$0, 8(%rax)
	movq	-8(%rbp), %rax
	movq	$0, 16(%rax)
	movq	-8(%rbp), %rax
	movq	$0, 24(%rax)
	movq	-8(%rbp), %rax
	movq	$0, 32(%rax)
	movq	-8(%rbp), %rax
	movq	$0, 40(%rax)
	.loc 3 420 0
	movq	-8(%rbp), %rax
	movl	$0, 8(%rax)
	.loc 3 421 0
	movq	-8(%rbp), %rax
	movq	$0, 16(%rax)
	.loc 3 422 0
	movq	-8(%rbp), %rdx
	addq	$8, %rdx
	movq	-8(%rbp), %rax
	movq	%rdx, 24(%rax)
	.loc 3 423 0
	movq	-8(%rbp), %rdx
	addq	$8, %rdx
	movq	-8(%rbp), %rax
	movq	%rdx, 32(%rax)
LBE32:
	leave
	ret
LFE2494:
	.align 1
.globl __ZNSt8_Rb_treeISsSt4pairIKSsiESt10_Select1stIS2_ESt4lessISsESaIS2_EEC1ERKS6_RKS7_
	.weak_definition __ZNSt8_Rb_treeISsSt4pairIKSsiESt10_Select1stIS2_ESt4lessISsESaIS2_EEC1ERKS6_RKS7_
	.private_extern __ZNSt8_Rb_treeISsSt4pairIKSsiESt10_Select1stIS2_ESt4lessISsESaIS2_EEC1ERKS6_RKS7_
__ZNSt8_Rb_treeISsSt4pairIKSsiESt10_Select1stIS2_ESt4lessISsESaIS2_EEC1ERKS6_RKS7_:
LFB2379:
	.loc 3 577 0
	nop
	nop
	nop
	nop
	nop
	nop
	pushq	%rbp
LCFI538:
	movq	%rsp, %rbp
LCFI539:
	subq	$48, %rsp
LCFI540:
	movq	%rdi, -24(%rbp)
	movq	%rsi, -32(%rbp)
	movq	%rdx, -40(%rbp)
LBB33:
	.loc 3 578 0
	movq	-40(%rbp), %rsi
	leaq	-1(%rbp), %rdi
	call	__ZNSaISt13_Rb_tree_nodeISt4pairIKSsiEEEC1IS2_EERKSaIT_E
	movq	-24(%rbp), %rdi
	movq	-32(%rbp), %rdx
	leaq	-1(%rbp), %rsi
	call	__ZNSt8_Rb_treeISsSt4pairIKSsiESt10_Select1stIS2_ESt4lessISsESaIS2_EE13_Rb_tree_implIS6_Lb0EEC1ERKSaISt13_Rb_tree_nodeIS2_EERKS6_
	leaq	-1(%rbp), %rdi
	call	__ZNSaISt13_Rb_tree_nodeISt4pairIKSsiEEED1Ev
LBE33:
	.loc 3 579 0
	leave
	ret
LFE2379:
	.align 1
.globl __ZNSt3mapISsiSt4lessISsESaISt4pairIKSsiEEEC1Ev
	.weak_definition __ZNSt3mapISsiSt4lessISsESaISt4pairIKSsiEEEC1Ev
	.private_extern __ZNSt3mapISsiSt4lessISsESaISt4pairIKSsiEEEC1Ev
__ZNSt3mapISsiSt4lessISsESaISt4pairIKSsiEEEC1Ev:
LFB2155:
	.loc 13 157 0
	nop
	nop
	nop
	nop
	nop
	nop
	pushq	%rbp
LCFI541:
	movq	%rsp, %rbp
LCFI542:
	subq	$32, %rsp
LCFI543:
	movq	%rdi, -24(%rbp)
LBB34:
	.loc 13 158 0
	leaq	-1(%rbp), %rdi
	call	__ZNSaISt4pairIKSsiEEC1Ev
	leaq	-2(%rbp), %rdi
	call	__ZNSt4lessISsEC1Ev
	movq	-24(%rbp), %rdi
	leaq	-1(%rbp), %rdx
	leaq	-2(%rbp), %rsi
	call	__ZNSt8_Rb_treeISsSt4pairIKSsiESt10_Select1stIS2_ESt4lessISsESaIS2_EEC1ERKS6_RKS7_
	leaq	-1(%rbp), %rdi
	call	__ZNSaISt4pairIKSsiEED1Ev
LBE34:
	leave
	ret
LFE2155:
	.align 1
.globl __ZN9__gnu_cxx13new_allocatorISt13_Rb_tree_nodeISt4pairIKiSsEEEC2ERKS6_
	.weak_definition __ZN9__gnu_cxx13new_allocatorISt13_Rb_tree_nodeISt4pairIKiSsEEEC2ERKS6_
	.private_extern __ZN9__gnu_cxx13new_allocatorISt13_Rb_tree_nodeISt4pairIKiSsEEEC2ERKS6_
__ZN9__gnu_cxx13new_allocatorISt13_Rb_tree_nodeISt4pairIKiSsEEEC2ERKS6_:
LFB2711:
	.loc 10 70 0
	nop
	nop
	nop
	nop
	nop
	nop
	pushq	%rbp
LCFI544:
	movq	%rsp, %rbp
LCFI545:
	movq	%rdi, -8(%rbp)
	movq	%rsi, -16(%rbp)
	.loc 10 70 0
	leave
	ret
LFE2711:
	.align 1
.globl __ZNSaISt13_Rb_tree_nodeISt4pairIKiSsEEEC2ERKS4_
	.weak_definition __ZNSaISt13_Rb_tree_nodeISt4pairIKiSsEEEC2ERKS4_
	.private_extern __ZNSaISt13_Rb_tree_nodeISt4pairIKiSsEEEC2ERKS4_
__ZNSaISt13_Rb_tree_nodeISt4pairIKiSsEEEC2ERKS4_:
LFB2636:
	.loc 11 102 0
	nop
	nop
	nop
	nop
	nop
	nop
	pushq	%rbp
LCFI546:
	movq	%rsp, %rbp
LCFI547:
	subq	$16, %rsp
LCFI548:
	movq	%rdi, -8(%rbp)
	movq	%rsi, -16(%rbp)
	.loc 11 103 0
	movq	-16(%rbp), %rsi
	movq	-8(%rbp), %rdi
	call	__ZN9__gnu_cxx13new_allocatorISt13_Rb_tree_nodeISt4pairIKiSsEEEC2ERKS6_
	leave
	ret
LFE2636:
	.align 1
.globl __ZNSt8_Rb_treeIiSt4pairIKiSsESt10_Select1stIS2_ESt4lessIiESaIS2_EE13_Rb_tree_implIS6_Lb0EEC1ERKSaISt13_Rb_tree_nodeIS2_EERKS6_
	.weak_definition __ZNSt8_Rb_treeIiSt4pairIKiSsESt10_Select1stIS2_ESt4lessIiESaIS2_EE13_Rb_tree_implIS6_Lb0EEC1ERKSaISt13_Rb_tree_nodeIS2_EERKS6_
	.private_extern __ZNSt8_Rb_treeIiSt4pairIKiSsESt10_Select1stIS2_ESt4lessIiESaIS2_EE13_Rb_tree_implIS6_Lb0EEC1ERKSaISt13_Rb_tree_nodeIS2_EERKS6_
__ZNSt8_Rb_treeIiSt4pairIKiSsESt10_Select1stIS2_ESt4lessIiESaIS2_EE13_Rb_tree_implIS6_Lb0EEC1ERKSaISt13_Rb_tree_nodeIS2_EERKS6_:
LFB2503:
	.loc 3 416 0
	nop
	nop
	nop
	nop
	nop
	nop
	pushq	%rbp
LCFI549:
	movq	%rsp, %rbp
LCFI550:
	subq	$32, %rsp
LCFI551:
	movq	%rdi, -8(%rbp)
	movq	%rsi, -16(%rbp)
	movq	%rdx, -24(%rbp)
LBB35:
	.loc 3 418 0
	movq	-8(%rbp), %rdi
	movq	-16(%rbp), %rsi
	call	__ZNSaISt13_Rb_tree_nodeISt4pairIKiSsEEEC2ERKS4_
	movq	-8(%rbp), %rax
	movl	$0, 8(%rax)
	movq	-8(%rbp), %rax
	movq	$0, 16(%rax)
	movq	-8(%rbp), %rax
	movq	$0, 24(%rax)
	movq	-8(%rbp), %rax
	movq	$0, 32(%rax)
	movq	-8(%rbp), %rax
	movq	$0, 40(%rax)
	.loc 3 420 0
	movq	-8(%rbp), %rax
	movl	$0, 8(%rax)
	.loc 3 421 0
	movq	-8(%rbp), %rax
	movq	$0, 16(%rax)
	.loc 3 422 0
	movq	-8(%rbp), %rdx
	addq	$8, %rdx
	movq	-8(%rbp), %rax
	movq	%rdx, 24(%rax)
	.loc 3 423 0
	movq	-8(%rbp), %rdx
	addq	$8, %rdx
	movq	-8(%rbp), %rax
	movq	%rdx, 32(%rax)
LBE35:
	leave
	ret
LFE2503:
	.align 1
.globl __ZNSt8_Rb_treeIiSt4pairIKiSsESt10_Select1stIS2_ESt4lessIiESaIS2_EEC1ERKS6_RKS7_
	.weak_definition __ZNSt8_Rb_treeIiSt4pairIKiSsESt10_Select1stIS2_ESt4lessIiESaIS2_EEC1ERKS6_RKS7_
	.private_extern __ZNSt8_Rb_treeIiSt4pairIKiSsESt10_Select1stIS2_ESt4lessIiESaIS2_EEC1ERKS6_RKS7_
__ZNSt8_Rb_treeIiSt4pairIKiSsESt10_Select1stIS2_ESt4lessIiESaIS2_EEC1ERKS6_RKS7_:
LFB2391:
	.loc 3 577 0
	nop
	nop
	nop
	nop
	nop
	nop
	pushq	%rbp
LCFI552:
	movq	%rsp, %rbp
LCFI553:
	subq	$48, %rsp
LCFI554:
	movq	%rdi, -24(%rbp)
	movq	%rsi, -32(%rbp)
	movq	%rdx, -40(%rbp)
LBB36:
	.loc 3 578 0
	movq	-40(%rbp), %rsi
	leaq	-1(%rbp), %rdi
	call	__ZNSaISt13_Rb_tree_nodeISt4pairIKiSsEEEC1IS2_EERKSaIT_E
	movq	-24(%rbp), %rdi
	movq	-32(%rbp), %rdx
	leaq	-1(%rbp), %rsi
	call	__ZNSt8_Rb_treeIiSt4pairIKiSsESt10_Select1stIS2_ESt4lessIiESaIS2_EE13_Rb_tree_implIS6_Lb0EEC1ERKSaISt13_Rb_tree_nodeIS2_EERKS6_
	leaq	-1(%rbp), %rdi
	call	__ZNSaISt13_Rb_tree_nodeISt4pairIKiSsEEED1Ev
LBE36:
	.loc 3 579 0
	leave
	ret
LFE2391:
	.align 1
.globl __ZNSt3mapIiSsSt4lessIiESaISt4pairIKiSsEEEC1Ev
	.weak_definition __ZNSt3mapIiSsSt4lessIiESaISt4pairIKiSsEEEC1Ev
	.private_extern __ZNSt3mapIiSsSt4lessIiESaISt4pairIKiSsEEEC1Ev
__ZNSt3mapIiSsSt4lessIiESaISt4pairIKiSsEEEC1Ev:
LFB2164:
	.loc 13 157 0
	nop
	nop
	nop
	nop
	nop
	nop
	pushq	%rbp
LCFI555:
	movq	%rsp, %rbp
LCFI556:
	subq	$32, %rsp
LCFI557:
	movq	%rdi, -24(%rbp)
LBB37:
	.loc 13 158 0
	leaq	-1(%rbp), %rdi
	call	__ZNSaISt4pairIKiSsEEC1Ev
	leaq	-2(%rbp), %rdi
	call	__ZNSt4lessIiEC1Ev
	movq	-24(%rbp), %rdi
	leaq	-1(%rbp), %rdx
	leaq	-2(%rbp), %rsi
	call	__ZNSt8_Rb_treeIiSt4pairIKiSsESt10_Select1stIS2_ESt4lessIiESaIS2_EEC1ERKS6_RKS7_
	leaq	-1(%rbp), %rdi
	call	__ZNSaISt4pairIKiSsEED1Ev
LBE37:
	leave
	ret
LFE2164:
.globl __ZN9__gnu_cxxneIPKSt6vectorISsSaISsEES1_IS3_SaIS3_EEEEbRKNS_17__normal_iteratorIT_T0_EESD_
	.weak_definition __ZN9__gnu_cxxneIPKSt6vectorISsSaISsEES1_IS3_SaIS3_EEEEbRKNS_17__normal_iteratorIT_T0_EESD_
__ZN9__gnu_cxxneIPKSt6vectorISsSaISsEES1_IS3_SaIS3_EEEEbRKNS_17__normal_iteratorIT_T0_EESD_:
LFB2714:
	.loc 12 751 0
	nop
	nop
	nop
	nop
	nop
	nop
	pushq	%rbp
LCFI558:
	movq	%rsp, %rbp
LCFI559:
	pushq	%rbx
LCFI560:
	subq	$24, %rsp
LCFI561:
	movq	%rdi, -24(%rbp)
	movq	%rsi, -32(%rbp)
	.loc 12 752 0
	movq	-24(%rbp), %rdi
	call	__ZNK9__gnu_cxx17__normal_iteratorIPKSt6vectorISsSaISsEES1_IS3_SaIS3_EEE4baseEv
	movq	(%rax), %rbx
	movq	-32(%rbp), %rdi
	call	__ZNK9__gnu_cxx17__normal_iteratorIPKSt6vectorISsSaISsEES1_IS3_SaIS3_EEE4baseEv
	movq	(%rax), %rax
	cmpq	%rax, %rbx
	setne	%al
	movzbl	%al, %eax
	addq	$24, %rsp
	popq	%rbx
	leave
	ret
LFE2714:
	.align 1
.globl __ZN9__gnu_cxx17__normal_iteratorIPKSt6vectorISsSaISsEES1_IS3_SaIS3_EEEppEv
	.weak_definition __ZN9__gnu_cxx17__normal_iteratorIPKSt6vectorISsSaISsEES1_IS3_SaIS3_EEEppEv
	.private_extern __ZN9__gnu_cxx17__normal_iteratorIPKSt6vectorISsSaISsEES1_IS3_SaIS3_EEEppEv
__ZN9__gnu_cxx17__normal_iteratorIPKSt6vectorISsSaISsEES1_IS3_SaIS3_EEEppEv:
LFB2715:
	.loc 12 673 0
	nop
	nop
	nop
	nop
	nop
	nop
	pushq	%rbp
LCFI562:
	movq	%rsp, %rbp
LCFI563:
	movq	%rdi, -8(%rbp)
	.loc 12 675 0
	movq	-8(%rbp), %rax
	movq	(%rax), %rax
	leaq	24(%rax), %rdx
	movq	-8(%rbp), %rax
	movq	%rdx, (%rax)
	.loc 12 676 0
	movq	-8(%rbp), %rax
	leave
	ret
LFE2715:
	.align 1
.globl __ZNK9__gnu_cxx17__normal_iteratorIPKSt6vectorISsSaISsEES1_IS3_SaIS3_EEEdeEv
	.weak_definition __ZNK9__gnu_cxx17__normal_iteratorIPKSt6vectorISsSaISsEES1_IS3_SaIS3_EEEdeEv
	.private_extern __ZNK9__gnu_cxx17__normal_iteratorIPKSt6vectorISsSaISsEES1_IS3_SaIS3_EEEdeEv
__ZNK9__gnu_cxx17__normal_iteratorIPKSt6vectorISsSaISsEES1_IS3_SaIS3_EEEdeEv:
LFB2716:
	.loc 12 665 0
	nop
	nop
	nop
	nop
	nop
	nop
	pushq	%rbp
LCFI564:
	movq	%rsp, %rbp
LCFI565:
	movq	%rdi, -8(%rbp)
	.loc 12 666 0
	movq	-8(%rbp), %rax
	movq	(%rax), %rax
	leave
	ret
LFE2716:
.globl __ZNSt6__copyILb0ESt26random_access_iterator_tagE4copyIPKSsPSsEET0_T_S7_S6_
	.weak_definition __ZNSt6__copyILb0ESt26random_access_iterator_tagE4copyIPKSsPSsEET0_T_S7_S6_
	.private_extern __ZNSt6__copyILb0ESt26random_access_iterator_tagE4copyIPKSsPSsEET0_T_S7_S6_
__ZNSt6__copyILb0ESt26random_access_iterator_tagE4copyIPKSsPSsEET0_T_S7_S6_:
LFB2719:
	.loc 4 278 0
	nop
	nop
	nop
	nop
	nop
	nop
	pushq	%rbp
LCFI566:
	movq	%rsp, %rbp
LCFI567:
	subq	$48, %rsp
LCFI568:
	movq	%rdi, -24(%rbp)
	movq	%rsi, -32(%rbp)
	movq	%rdx, -40(%rbp)
LBB38:
LBB39:
	.loc 4 281 0
	movq	-32(%rbp), %rdx
	movq	-24(%rbp), %rax
	movq	%rdx, %rcx
	subq	%rax, %rcx
	movq	%rcx, %rax
	sarq	$3, %rax
	movq	%rax, -8(%rbp)
	jmp	L523
L524:
	.loc 4 283 0
	movq	-24(%rbp), %rsi
	movq	-40(%rbp), %rdi
	call	__ZNSsaSERKSs
	.loc 4 284 0
	addq	$8, -24(%rbp)
	.loc 4 285 0
	addq	$8, -40(%rbp)
	.loc 4 281 0
	decq	-8(%rbp)
L523:
	cmpq	$0, -8(%rbp)
	jg	L524
LBE39:
	.loc 4 287 0
	movq	-40(%rbp), %rax
LBE38:
	leave
	ret
LFE2719:
.globl __ZSt10__copy_auxIPKSsPSsET0_T_S4_S3_
	.weak_definition __ZSt10__copy_auxIPKSsPSsET0_T_S4_S3_
__ZSt10__copy_auxIPKSsPSsET0_T_S4_S3_:
LFB2645:
	.loc 4 305 0
	nop
	nop
	nop
	nop
	nop
	nop
	pushq	%rbp
LCFI569:
	movq	%rsp, %rbp
LCFI570:
	subq	$48, %rsp
LCFI571:
	movq	%rdi, -24(%rbp)
	movq	%rsi, -32(%rbp)
	movq	%rdx, -40(%rbp)
LBB40:
	.loc 4 313 0
	movb	$0, -1(%rbp)
	.loc 4 315 0
	movq	-40(%rbp), %rdx
	movq	-32(%rbp), %rsi
	movq	-24(%rbp), %rdi
	call	__ZNSt6__copyILb0ESt26random_access_iterator_tagE4copyIPKSsPSsEET0_T_S7_S6_
LBE40:
	leave
	ret
LFE2645:
.globl __ZNSt13__copy_normalILb1ELb1EE8__copy_nIN9__gnu_cxx17__normal_iteratorIPKSsSt6vectorISsSaISsEEEENS3_IPSsS8_EEEET0_T_SD_SC_
	.weak_definition __ZNSt13__copy_normalILb1ELb1EE8__copy_nIN9__gnu_cxx17__normal_iteratorIPKSsSt6vectorISsSaISsEEEENS3_IPSsS8_EEEET0_T_SD_SC_
	.private_extern __ZNSt13__copy_normalILb1ELb1EE8__copy_nIN9__gnu_cxx17__normal_iteratorIPKSsSt6vectorISsSaISsEEEENS3_IPSsS8_EEEET0_T_SD_SC_
__ZNSt13__copy_normalILb1ELb1EE8__copy_nIN9__gnu_cxx17__normal_iteratorIPKSsSt6vectorISsSaISsEEEENS3_IPSsS8_EEEET0_T_SD_SC_:
LFB2525:
	.loc 4 366 0
	nop
	nop
	nop
	nop
	nop
	nop
	pushq	%rbp
LCFI572:
	movq	%rsp, %rbp
LCFI573:
	pushq	%r12
LCFI574:
	pushq	%rbx
LCFI575:
	subq	$48, %rsp
LCFI576:
	movq	%rdi, -40(%rbp)
	movq	%rsi, -48(%rbp)
	movq	%rdx, -56(%rbp)
	.loc 4 368 0
	leaq	-56(%rbp), %rdi
	call	__ZNK9__gnu_cxx17__normal_iteratorIPSsSt6vectorISsSaISsEEE4baseEv
	movq	(%rax), %r12
	leaq	-48(%rbp), %rdi
	call	__ZNK9__gnu_cxx17__normal_iteratorIPKSsSt6vectorISsSaISsEEE4baseEv
	movq	(%rax), %rbx
	leaq	-40(%rbp), %rdi
	call	__ZNK9__gnu_cxx17__normal_iteratorIPKSsSt6vectorISsSaISsEEE4baseEv
	movq	(%rax), %rdi
	movq	%r12, %rdx
	movq	%rbx, %rsi
	call	__ZSt10__copy_auxIPKSsPSsET0_T_S4_S3_
	movq	%rax, -24(%rbp)
	leaq	-24(%rbp), %rsi
	leaq	-32(%rbp), %rdi
	call	__ZN9__gnu_cxx17__normal_iteratorIPSsSt6vectorISsSaISsEEEC1ERKS1_
	movq	-32(%rbp), %rax
	addq	$48, %rsp
	popq	%rbx
	popq	%r12
	leave
	ret
LFE2525:
.globl __ZSt4copyIN9__gnu_cxx17__normal_iteratorIPKSsSt6vectorISsSaISsEEEENS1_IPSsS6_EEET0_T_SB_SA_
	.weak_definition __ZSt4copyIN9__gnu_cxx17__normal_iteratorIPKSsSt6vectorISsSaISsEEEENS1_IPSsS6_EEET0_T_SB_SA_
__ZSt4copyIN9__gnu_cxx17__normal_iteratorIPKSsSt6vectorISsSaISsEEEENS1_IPSsS6_EEET0_T_SB_SA_:
LFB2329:
	.loc 4 390 0
	nop
	nop
	nop
	nop
	nop
	nop
	pushq	%rbp
LCFI577:
	movq	%rsp, %rbp
LCFI578:
	subq	$48, %rsp
LCFI579:
	movq	%rdi, -24(%rbp)
	movq	%rsi, -32(%rbp)
	movq	%rdx, -40(%rbp)
LBB41:
	.loc 4 398 0
	movb	$1, -1(%rbp)
	.loc 4 399 0
	movb	$1, -2(%rbp)
	.loc 4 401 0
	movq	-40(%rbp), %rdx
	movq	-32(%rbp), %rsi
	movq	-24(%rbp), %rdi
	call	__ZNSt13__copy_normalILb1ELb1EE8__copy_nIN9__gnu_cxx17__normal_iteratorIPKSsSt6vectorISsSaISsEEEENS3_IPSsS8_EEEET0_T_SD_SC_
LBE41:
	leave
	ret
LFE2329:
.globl __ZN9__gnu_cxxneIPSsSt6vectorISsSaISsEEEEbRKNS_17__normal_iteratorIT_T0_EESA_
	.weak_definition __ZN9__gnu_cxxneIPSsSt6vectorISsSaISsEEEEbRKNS_17__normal_iteratorIT_T0_EESA_
__ZN9__gnu_cxxneIPSsSt6vectorISsSaISsEEEEbRKNS_17__normal_iteratorIT_T0_EESA_:
LFB2720:
	.loc 12 751 0
	nop
	nop
	nop
	nop
	nop
	nop
	pushq	%rbp
LCFI580:
	movq	%rsp, %rbp
LCFI581:
	pushq	%rbx
LCFI582:
	subq	$24, %rsp
LCFI583:
	movq	%rdi, -24(%rbp)
	movq	%rsi, -32(%rbp)
	.loc 12 752 0
	movq	-24(%rbp), %rdi
	call	__ZNK9__gnu_cxx17__normal_iteratorIPSsSt6vectorISsSaISsEEE4baseEv
	movq	(%rax), %rbx
	movq	-32(%rbp), %rdi
	call	__ZNK9__gnu_cxx17__normal_iteratorIPSsSt6vectorISsSaISsEEE4baseEv
	movq	(%rax), %rax
	cmpq	%rax, %rbx
	setne	%al
	movzbl	%al, %eax
	addq	$24, %rsp
	popq	%rbx
	leave
	ret
LFE2720:
	.align 1
.globl __ZN9__gnu_cxx17__normal_iteratorIPSsSt6vectorISsSaISsEEEppEv
	.weak_definition __ZN9__gnu_cxx17__normal_iteratorIPSsSt6vectorISsSaISsEEEppEv
	.private_extern __ZN9__gnu_cxx17__normal_iteratorIPSsSt6vectorISsSaISsEEEppEv
__ZN9__gnu_cxx17__normal_iteratorIPSsSt6vectorISsSaISsEEEppEv:
LFB2721:
	.loc 12 673 0
	nop
	nop
	nop
	nop
	nop
	nop
	pushq	%rbp
LCFI584:
	movq	%rsp, %rbp
LCFI585:
	movq	%rdi, -8(%rbp)
	.loc 12 675 0
	movq	-8(%rbp), %rax
	movq	(%rax), %rax
	leaq	8(%rax), %rdx
	movq	-8(%rbp), %rax
	movq	%rdx, (%rax)
	.loc 12 676 0
	movq	-8(%rbp), %rax
	leave
	ret
LFE2721:
.globl __ZSt13__destroy_auxIN9__gnu_cxx17__normal_iteratorIPSsSt6vectorISsSaISsEEEEEvT_S7_St12__false_type
	.weak_definition __ZSt13__destroy_auxIN9__gnu_cxx17__normal_iteratorIPSsSt6vectorISsSaISsEEEEEvT_S7_St12__false_type
__ZSt13__destroy_auxIN9__gnu_cxx17__normal_iteratorIPSsSt6vectorISsSaISsEEEEEvT_S7_St12__false_type:
LFB2646:
	.loc 16 119 0
	nop
	nop
	nop
	nop
	nop
	nop
	pushq	%rbp
LCFI586:
	movq	%rsp, %rbp
LCFI587:
	subq	$16, %rsp
LCFI588:
	movq	%rdi, -8(%rbp)
	movq	%rsi, -16(%rbp)
	.loc 16 121 0
	jmp	L538
L539:
	.loc 16 122 0
	leaq	-8(%rbp), %rdi
	call	__ZNK9__gnu_cxx17__normal_iteratorIPSsSt6vectorISsSaISsEEEdeEv
	movq	%rax, %rdi
	call	__ZSt8_DestroyISsEvPT_
	.loc 16 121 0
	leaq	-8(%rbp), %rdi
	call	__ZN9__gnu_cxx17__normal_iteratorIPSsSt6vectorISsSaISsEEEppEv
L538:
	leaq	-16(%rbp), %rsi
	leaq	-8(%rbp), %rdi
	call	__ZN9__gnu_cxxneIPSsSt6vectorISsSaISsEEEEbRKNS_17__normal_iteratorIT_T0_EESA_
	testb	%al, %al
	jne	L539
	.loc 16 122 0
	leave
	ret
LFE2646:
.globl __ZSt8_DestroyIN9__gnu_cxx17__normal_iteratorIPSsSt6vectorISsSaISsEEEEEvT_S7_
	.weak_definition __ZSt8_DestroyIN9__gnu_cxx17__normal_iteratorIPSsSt6vectorISsSaISsEEEEEvT_S7_
__ZSt8_DestroyIN9__gnu_cxx17__normal_iteratorIPSsSt6vectorISsSaISsEEEEEvT_S7_:
LFB2526:
	.loc 16 148 0
	nop
	nop
	nop
	nop
	nop
	nop
	pushq	%rbp
LCFI589:
	movq	%rsp, %rbp
LCFI590:
	subq	$48, %rsp
LCFI591:
	movq	%rdi, -8(%rbp)
	movq	%rsi, -16(%rbp)
LBB42:
	.loc 16 155 0
	movq	-16(%rbp), %rsi
	movq	-8(%rbp), %rdi
	movzbl	-17(%rbp), %eax
	movb	%al, (%rsp)
	call	__ZSt13__destroy_auxIN9__gnu_cxx17__normal_iteratorIPSsSt6vectorISsSaISsEEEEEvT_S7_St12__false_type
LBE42:
	leave
	ret
LFE2526:
.globl __ZSt8_DestroyIN9__gnu_cxx17__normal_iteratorIPSsSt6vectorISsSaISsEEEESsEvT_S7_SaIT0_E
	.weak_definition __ZSt8_DestroyIN9__gnu_cxx17__normal_iteratorIPSsSt6vectorISsSaISsEEEESsEvT_S7_SaIT0_E
__ZSt8_DestroyIN9__gnu_cxx17__normal_iteratorIPSsSt6vectorISsSaISsEEEESsEvT_S7_SaIT0_E:
LFB2330:
	.loc 16 180 0
	nop
	nop
	nop
	nop
	nop
	nop
	pushq	%rbp
LCFI592:
	movq	%rsp, %rbp
LCFI593:
	subq	$32, %rsp
LCFI594:
	movq	%rdi, -8(%rbp)
	movq	%rsi, -16(%rbp)
	movq	%rdx, -24(%rbp)
	.loc 16 182 0
	movq	-16(%rbp), %rsi
	movq	-8(%rbp), %rdi
	call	__ZSt8_DestroyIN9__gnu_cxx17__normal_iteratorIPSsSt6vectorISsSaISsEEEEEvT_S7_
	leave
	ret
LFE2330:
.globl __ZNSt6__copyILb0ESt26random_access_iterator_tagE4copyIPSsS3_EET0_T_S5_S4_
	.weak_definition __ZNSt6__copyILb0ESt26random_access_iterator_tagE4copyIPSsS3_EET0_T_S5_S4_
	.private_extern __ZNSt6__copyILb0ESt26random_access_iterator_tagE4copyIPSsS3_EET0_T_S5_S4_
__ZNSt6__copyILb0ESt26random_access_iterator_tagE4copyIPSsS3_EET0_T_S5_S4_:
LFB2722:
	.loc 4 278 0
	nop
	nop
	nop
	nop
	nop
	nop
	pushq	%rbp
LCFI595:
	movq	%rsp, %rbp
LCFI596:
	subq	$48, %rsp
LCFI597:
	movq	%rdi, -24(%rbp)
	movq	%rsi, -32(%rbp)
	movq	%rdx, -40(%rbp)
LBB43:
LBB44:
	.loc 4 281 0
	movq	-32(%rbp), %rdx
	movq	-24(%rbp), %rax
	movq	%rdx, %rcx
	subq	%rax, %rcx
	movq	%rcx, %rax
	sarq	$3, %rax
	movq	%rax, -8(%rbp)
	jmp	L547
L548:
	.loc 4 283 0
	movq	-24(%rbp), %rsi
	movq	-40(%rbp), %rdi
	call	__ZNSsaSERKSs
	.loc 4 284 0
	addq	$8, -24(%rbp)
	.loc 4 285 0
	addq	$8, -40(%rbp)
	.loc 4 281 0
	decq	-8(%rbp)
L547:
	cmpq	$0, -8(%rbp)
	jg	L548
LBE44:
	.loc 4 287 0
	movq	-40(%rbp), %rax
LBE43:
	leave
	ret
LFE2722:
.globl __ZSt10__copy_auxIPSsS0_ET0_T_S2_S1_
	.weak_definition __ZSt10__copy_auxIPSsS0_ET0_T_S2_S1_
__ZSt10__copy_auxIPSsS0_ET0_T_S2_S1_:
LFB2647:
	.loc 4 305 0
	nop
	nop
	nop
	nop
	nop
	nop
	pushq	%rbp
LCFI598:
	movq	%rsp, %rbp
LCFI599:
	subq	$48, %rsp
LCFI600:
	movq	%rdi, -24(%rbp)
	movq	%rsi, -32(%rbp)
	movq	%rdx, -40(%rbp)
LBB45:
	.loc 4 313 0
	movb	$0, -1(%rbp)
	.loc 4 315 0
	movq	-40(%rbp), %rdx
	movq	-32(%rbp), %rsi
	movq	-24(%rbp), %rdi
	call	__ZNSt6__copyILb0ESt26random_access_iterator_tagE4copyIPSsS3_EET0_T_S5_S4_
LBE45:
	leave
	ret
LFE2647:
.globl __ZNSt13__copy_normalILb0ELb0EE8__copy_nIPSsS2_EET0_T_S4_S3_
	.weak_definition __ZNSt13__copy_normalILb0ELb0EE8__copy_nIPSsS2_EET0_T_S4_S3_
	.private_extern __ZNSt13__copy_normalILb0ELb0EE8__copy_nIPSsS2_EET0_T_S4_S3_
__ZNSt13__copy_normalILb0ELb0EE8__copy_nIPSsS2_EET0_T_S4_S3_:
LFB2527:
	.loc 4 339 0
	nop
	nop
	nop
	nop
	nop
	nop
	pushq	%rbp
LCFI601:
	movq	%rsp, %rbp
LCFI602:
	subq	$32, %rsp
LCFI603:
	movq	%rdi, -8(%rbp)
	movq	%rsi, -16(%rbp)
	movq	%rdx, -24(%rbp)
	.loc 4 340 0
	movq	-24(%rbp), %rdx
	movq	-16(%rbp), %rsi
	movq	-8(%rbp), %rdi
	call	__ZSt10__copy_auxIPSsS0_ET0_T_S2_S1_
	leave
	ret
LFE2527:
.globl __ZSt4copyIPSsS0_ET0_T_S2_S1_
	.weak_definition __ZSt4copyIPSsS0_ET0_T_S2_S1_
__ZSt4copyIPSsS0_ET0_T_S2_S1_:
LFB2331:
	.loc 4 390 0
	nop
	nop
	nop
	nop
	nop
	nop
	pushq	%rbp
LCFI604:
	movq	%rsp, %rbp
LCFI605:
	subq	$48, %rsp
LCFI606:
	movq	%rdi, -24(%rbp)
	movq	%rsi, -32(%rbp)
	movq	%rdx, -40(%rbp)
LBB46:
	.loc 4 398 0
	movb	$0, -1(%rbp)
	.loc 4 399 0
	movb	$0, -2(%rbp)
	.loc 4 401 0
	movq	-40(%rbp), %rdx
	movq	-32(%rbp), %rsi
	movq	-24(%rbp), %rdi
	call	__ZNSt13__copy_normalILb0ELb0EE8__copy_nIPSsS2_EET0_T_S4_S3_
LBE46:
	leave
	ret
LFE2331:
.globl __ZNSt8_Rb_treeISsSt4pairIKSsiESt10_Select1stIS2_ESt4lessISsESaIS2_EE8_S_valueEPKSt13_Rb_tree_nodeIS2_E
	.weak_definition __ZNSt8_Rb_treeISsSt4pairIKSsiESt10_Select1stIS2_ESt4lessISsESaIS2_EE8_S_valueEPKSt13_Rb_tree_nodeIS2_E
	.private_extern __ZNSt8_Rb_treeISsSt4pairIKSsiESt10_Select1stIS2_ESt4lessISsESaIS2_EE8_S_valueEPKSt13_Rb_tree_nodeIS2_E
__ZNSt8_Rb_treeISsSt4pairIKSsiESt10_Select1stIS2_ESt4lessISsESaIS2_EE8_S_valueEPKSt13_Rb_tree_nodeIS2_E:
LFB2724:
	.loc 3 495 0
	nop
	nop
	nop
	nop
	nop
	nop
	pushq	%rbp
LCFI607:
	movq	%rsp, %rbp
LCFI608:
	movq	%rdi, -8(%rbp)
	.loc 3 496 0
	movq	-8(%rbp), %rax
	addq	$32, %rax
	leave
	ret
LFE2724:
.globl __ZNSt8_Rb_treeISsSt4pairIKSsiESt10_Select1stIS2_ESt4lessISsESaIS2_EE6_S_keyEPKSt13_Rb_tree_nodeIS2_E
	.weak_definition __ZNSt8_Rb_treeISsSt4pairIKSsiESt10_Select1stIS2_ESt4lessISsESaIS2_EE6_S_keyEPKSt13_Rb_tree_nodeIS2_E
	.private_extern __ZNSt8_Rb_treeISsSt4pairIKSsiESt10_Select1stIS2_ESt4lessISsESaIS2_EE6_S_keyEPKSt13_Rb_tree_nodeIS2_E
__ZNSt8_Rb_treeISsSt4pairIKSsiESt10_Select1stIS2_ESt4lessISsESaIS2_EE6_S_keyEPKSt13_Rb_tree_nodeIS2_E:
LFB2649:
	.loc 3 499 0
	nop
	nop
	nop
	nop
	nop
	nop
	pushq	%rbp
LCFI609:
	movq	%rsp, %rbp
LCFI610:
	pushq	%rbx
LCFI611:
	subq	$40, %rsp
LCFI612:
	movq	%rdi, -40(%rbp)
	.loc 3 500 0
	movq	-40(%rbp), %rdi
	call	__ZNSt8_Rb_treeISsSt4pairIKSsiESt10_Select1stIS2_ESt4lessISsESaIS2_EE8_S_valueEPKSt13_Rb_tree_nodeIS2_E
	movq	%rax, %rbx
	leaq	-17(%rbp), %rdi
	call	__ZNSt10_Select1stISt4pairIKSsiEEC1Ev
	leaq	-17(%rbp), %rdi
	movq	%rbx, %rsi
	call	__ZNKSt10_Select1stISt4pairIKSsiEEclERKS2_
	addq	$40, %rsp
	popq	%rbx
	leave
	ret
LFE2649:
	.align 1
.globl __ZNSt8_Rb_treeISsSt4pairIKSsiESt10_Select1stIS2_ESt4lessISsESaIS2_EE11lower_boundERS1_
	.weak_definition __ZNSt8_Rb_treeISsSt4pairIKSsiESt10_Select1stIS2_ESt4lessISsESaIS2_EE11lower_boundERS1_
__ZNSt8_Rb_treeISsSt4pairIKSsiESt10_Select1stIS2_ESt4lessISsESaIS2_EE11lower_boundERS1_:
LFB2529:
	.loc 3 1426 0
	nop
	nop
	nop
	nop
	nop
	nop
	pushq	%rbp
LCFI613:
	movq	%rsp, %rbp
LCFI614:
	subq	$48, %rsp
LCFI615:
	movq	%rdi, -40(%rbp)
	movq	%rsi, -48(%rbp)
LBB47:
	.loc 3 1428 0
	movq	-40(%rbp), %rdi
	call	__ZNSt8_Rb_treeISsSt4pairIKSsiESt10_Select1stIS2_ESt4lessISsESaIS2_EE8_M_beginEv
	movq	%rax, -8(%rbp)
	.loc 3 1429 0
	movq	-40(%rbp), %rdi
	call	__ZNSt8_Rb_treeISsSt4pairIKSsiESt10_Select1stIS2_ESt4lessISsESaIS2_EE6_M_endEv
	movq	%rax, -16(%rbp)
	.loc 3 1431 0
	jmp	L562
L563:
	.loc 3 1432 0
	movq	-8(%rbp), %rdi
	call	__ZNSt8_Rb_treeISsSt4pairIKSsiESt10_Select1stIS2_ESt4lessISsESaIS2_EE6_S_keyEPKSt13_Rb_tree_nodeIS2_E
	movq	%rax, %rsi
	movq	-40(%rbp), %rdi
	movq	-48(%rbp), %rdx
	call	__ZNKSt4lessISsEclERKSsS2_
	xorl	$1, %eax
	testb	%al, %al
	je	L564
	.loc 3 1433 0
	movq	-8(%rbp), %rax
	movq	%rax, -16(%rbp)
	movq	-8(%rbp), %rdi
	call	__ZNSt8_Rb_treeISsSt4pairIKSsiESt10_Select1stIS2_ESt4lessISsESaIS2_EE7_S_leftEPSt18_Rb_tree_node_base
	movq	%rax, -8(%rbp)
	jmp	L562
L564:
	.loc 3 1435 0
	movq	-8(%rbp), %rdi
	call	__ZNSt8_Rb_treeISsSt4pairIKSsiESt10_Select1stIS2_ESt4lessISsESaIS2_EE8_S_rightEPSt18_Rb_tree_node_base
	movq	%rax, -8(%rbp)
L562:
	.loc 3 1431 0
	cmpq	$0, -8(%rbp)
	jne	L563
	.loc 3 1437 0
	movq	-16(%rbp), %rsi
	leaq	-32(%rbp), %rdi
	call	__ZNSt17_Rb_tree_iteratorISt4pairIKSsiEEC1EPSt13_Rb_tree_nodeIS2_E
	movq	-32(%rbp), %rax
LBE47:
	leave
	ret
LFE2529:
	.align 1
.globl __ZNSt3mapISsiSt4lessISsESaISt4pairIKSsiEEE11lower_boundERS3_
	.weak_definition __ZNSt3mapISsiSt4lessISsESaISt4pairIKSsiEEE11lower_boundERS3_
	.private_extern __ZNSt3mapISsiSt4lessISsESaISt4pairIKSsiEEE11lower_boundERS3_
__ZNSt3mapISsiSt4lessISsESaISt4pairIKSsiEEE11lower_boundERS3_:
LFB2333:
	.loc 13 583 0
	nop
	nop
	nop
	nop
	nop
	nop
	pushq	%rbp
LCFI616:
	movq	%rsp, %rbp
LCFI617:
	subq	$16, %rsp
LCFI618:
	movq	%rdi, -8(%rbp)
	movq	%rsi, -16(%rbp)
	.loc 13 584 0
	movq	-8(%rbp), %rdi
	movq	-16(%rbp), %rsi
	call	__ZNSt8_Rb_treeISsSt4pairIKSsiESt10_Select1stIS2_ESt4lessISsESaIS2_EE11lower_boundERS1_
	leave
	ret
LFE2333:
.globl __ZNSt8_Rb_treeISsSt4pairIKSsiESt10_Select1stIS2_ESt4lessISsESaIS2_EE8_S_valueEPKSt18_Rb_tree_node_base
	.weak_definition __ZNSt8_Rb_treeISsSt4pairIKSsiESt10_Select1stIS2_ESt4lessISsESaIS2_EE8_S_valueEPKSt18_Rb_tree_node_base
	.private_extern __ZNSt8_Rb_treeISsSt4pairIKSsiESt10_Select1stIS2_ESt4lessISsESaIS2_EE8_S_valueEPKSt18_Rb_tree_node_base
__ZNSt8_Rb_treeISsSt4pairIKSsiESt10_Select1stIS2_ESt4lessISsESaIS2_EE8_S_valueEPKSt18_Rb_tree_node_base:
LFB2725:
	.loc 3 519 0
	nop
	nop
	nop
	nop
	nop
	nop
	pushq	%rbp
LCFI619:
	movq	%rsp, %rbp
LCFI620:
	movq	%rdi, -8(%rbp)
	.loc 3 520 0
	movq	-8(%rbp), %rax
	addq	$32, %rax
	leave
	ret
LFE2725:
.globl __ZNSt8_Rb_treeISsSt4pairIKSsiESt10_Select1stIS2_ESt4lessISsESaIS2_EE6_S_keyEPKSt18_Rb_tree_node_base
	.weak_definition __ZNSt8_Rb_treeISsSt4pairIKSsiESt10_Select1stIS2_ESt4lessISsESaIS2_EE6_S_keyEPKSt18_Rb_tree_node_base
	.private_extern __ZNSt8_Rb_treeISsSt4pairIKSsiESt10_Select1stIS2_ESt4lessISsESaIS2_EE6_S_keyEPKSt18_Rb_tree_node_base
__ZNSt8_Rb_treeISsSt4pairIKSsiESt10_Select1stIS2_ESt4lessISsESaIS2_EE6_S_keyEPKSt18_Rb_tree_node_base:
LFB2650:
	.loc 3 523 0
	nop
	nop
	nop
	nop
	nop
	nop
	pushq	%rbp
LCFI621:
	movq	%rsp, %rbp
LCFI622:
	pushq	%rbx
LCFI623:
	subq	$40, %rsp
LCFI624:
	movq	%rdi, -40(%rbp)
	.loc 3 524 0
	movq	-40(%rbp), %rdi
	call	__ZNSt8_Rb_treeISsSt4pairIKSsiESt10_Select1stIS2_ESt4lessISsESaIS2_EE8_S_valueEPKSt18_Rb_tree_node_base
	movq	%rax, %rbx
	leaq	-17(%rbp), %rdi
	call	__ZNSt10_Select1stISt4pairIKSsiEEC1Ev
	leaq	-17(%rbp), %rdi
	movq	%rbx, %rsi
	call	__ZNKSt10_Select1stISt4pairIKSsiEEclERKS2_
	addq	$40, %rsp
	popq	%rbx
	leave
	ret
LFE2650:
	.align 1
.globl __ZNSt4pairISt17_Rb_tree_iteratorIS_IKSsiEEbEC1ERKS3_RKb
	.weak_definition __ZNSt4pairISt17_Rb_tree_iteratorIS_IKSsiEEbEC1ERKS3_RKb
	.private_extern __ZNSt4pairISt17_Rb_tree_iteratorIS_IKSsiEEbEC1ERKS3_RKb
__ZNSt4pairISt17_Rb_tree_iteratorIS_IKSsiEEbEC1ERKS3_RKb:
LFB2728:
	.loc 9 84 0
	nop
	nop
	nop
	nop
	nop
	nop
	pushq	%rbp
LCFI625:
	movq	%rsp, %rbp
LCFI626:
	movq	%rdi, -8(%rbp)
	movq	%rsi, -16(%rbp)
	movq	%rdx, -24(%rbp)
LBB48:
	.loc 9 85 0
	movq	-16(%rbp), %rax
	movq	(%rax), %rdx
	movq	-8(%rbp), %rax
	movq	%rdx, (%rax)
	movq	-24(%rbp), %rax
	movzbl	(%rax), %edx
	movq	-8(%rbp), %rax
	movb	%dl, 8(%rax)
LBE48:
	leave
	ret
LFE2728:
.globl __ZNSt8_Rb_treeIiSt4pairIKiSsESt10_Select1stIS2_ESt4lessIiESaIS2_EE8_S_valueEPKSt13_Rb_tree_nodeIS2_E
	.weak_definition __ZNSt8_Rb_treeIiSt4pairIKiSsESt10_Select1stIS2_ESt4lessIiESaIS2_EE8_S_valueEPKSt13_Rb_tree_nodeIS2_E
	.private_extern __ZNSt8_Rb_treeIiSt4pairIKiSsESt10_Select1stIS2_ESt4lessIiESaIS2_EE8_S_valueEPKSt13_Rb_tree_nodeIS2_E
__ZNSt8_Rb_treeIiSt4pairIKiSsESt10_Select1stIS2_ESt4lessIiESaIS2_EE8_S_valueEPKSt13_Rb_tree_nodeIS2_E:
LFB2729:
	.loc 3 495 0
	nop
	nop
	nop
	nop
	nop
	nop
	pushq	%rbp
LCFI627:
	movq	%rsp, %rbp
LCFI628:
	movq	%rdi, -8(%rbp)
	.loc 3 496 0
	movq	-8(%rbp), %rax
	addq	$32, %rax
	leave
	ret
LFE2729:
.globl __ZNSt8_Rb_treeIiSt4pairIKiSsESt10_Select1stIS2_ESt4lessIiESaIS2_EE6_S_keyEPKSt13_Rb_tree_nodeIS2_E
	.weak_definition __ZNSt8_Rb_treeIiSt4pairIKiSsESt10_Select1stIS2_ESt4lessIiESaIS2_EE6_S_keyEPKSt13_Rb_tree_nodeIS2_E
	.private_extern __ZNSt8_Rb_treeIiSt4pairIKiSsESt10_Select1stIS2_ESt4lessIiESaIS2_EE6_S_keyEPKSt13_Rb_tree_nodeIS2_E
__ZNSt8_Rb_treeIiSt4pairIKiSsESt10_Select1stIS2_ESt4lessIiESaIS2_EE6_S_keyEPKSt13_Rb_tree_nodeIS2_E:
LFB2657:
	.loc 3 499 0
	nop
	nop
	nop
	nop
	nop
	nop
	pushq	%rbp
LCFI629:
	movq	%rsp, %rbp
LCFI630:
	pushq	%rbx
LCFI631:
	subq	$40, %rsp
LCFI632:
	movq	%rdi, -40(%rbp)
	.loc 3 500 0
	movq	-40(%rbp), %rdi
	call	__ZNSt8_Rb_treeIiSt4pairIKiSsESt10_Select1stIS2_ESt4lessIiESaIS2_EE8_S_valueEPKSt13_Rb_tree_nodeIS2_E
	movq	%rax, %rbx
	leaq	-17(%rbp), %rdi
	call	__ZNSt10_Select1stISt4pairIKiSsEEC1Ev
	leaq	-17(%rbp), %rdi
	movq	%rbx, %rsi
	call	__ZNKSt10_Select1stISt4pairIKiSsEEclERKS2_
	addq	$40, %rsp
	popq	%rbx
	leave
	ret
LFE2657:
	.align 1
.globl __ZNSt8_Rb_treeIiSt4pairIKiSsESt10_Select1stIS2_ESt4lessIiESaIS2_EE11lower_boundERS1_
	.weak_definition __ZNSt8_Rb_treeIiSt4pairIKiSsESt10_Select1stIS2_ESt4lessIiESaIS2_EE11lower_boundERS1_
__ZNSt8_Rb_treeIiSt4pairIKiSsESt10_Select1stIS2_ESt4lessIiESaIS2_EE11lower_boundERS1_:
LFB2545:
	.loc 3 1426 0
	nop
	nop
	nop
	nop
	nop
	nop
	pushq	%rbp
LCFI633:
	movq	%rsp, %rbp
LCFI634:
	subq	$48, %rsp
LCFI635:
	movq	%rdi, -40(%rbp)
	movq	%rsi, -48(%rbp)
LBB49:
	.loc 3 1428 0
	movq	-40(%rbp), %rdi
	call	__ZNSt8_Rb_treeIiSt4pairIKiSsESt10_Select1stIS2_ESt4lessIiESaIS2_EE8_M_beginEv
	movq	%rax, -8(%rbp)
	.loc 3 1429 0
	movq	-40(%rbp), %rdi
	call	__ZNSt8_Rb_treeIiSt4pairIKiSsESt10_Select1stIS2_ESt4lessIiESaIS2_EE6_M_endEv
	movq	%rax, -16(%rbp)
	.loc 3 1431 0
	jmp	L581
L582:
	.loc 3 1432 0
	movq	-8(%rbp), %rdi
	call	__ZNSt8_Rb_treeIiSt4pairIKiSsESt10_Select1stIS2_ESt4lessIiESaIS2_EE6_S_keyEPKSt13_Rb_tree_nodeIS2_E
	movq	%rax, %rsi
	movq	-40(%rbp), %rdi
	movq	-48(%rbp), %rdx
	call	__ZNKSt4lessIiEclERKiS2_
	xorl	$1, %eax
	testb	%al, %al
	je	L583
	.loc 3 1433 0
	movq	-8(%rbp), %rax
	movq	%rax, -16(%rbp)
	movq	-8(%rbp), %rdi
	call	__ZNSt8_Rb_treeIiSt4pairIKiSsESt10_Select1stIS2_ESt4lessIiESaIS2_EE7_S_leftEPSt18_Rb_tree_node_base
	movq	%rax, -8(%rbp)
	jmp	L581
L583:
	.loc 3 1435 0
	movq	-8(%rbp), %rdi
	call	__ZNSt8_Rb_treeIiSt4pairIKiSsESt10_Select1stIS2_ESt4lessIiESaIS2_EE8_S_rightEPSt18_Rb_tree_node_base
	movq	%rax, -8(%rbp)
L581:
	.loc 3 1431 0
	cmpq	$0, -8(%rbp)
	jne	L582
	.loc 3 1437 0
	movq	-16(%rbp), %rsi
	leaq	-32(%rbp), %rdi
	call	__ZNSt17_Rb_tree_iteratorISt4pairIKiSsEEC1EPSt13_Rb_tree_nodeIS2_E
	movq	-32(%rbp), %rax
LBE49:
	leave
	ret
LFE2545:
	.align 1
.globl __ZNSt3mapIiSsSt4lessIiESaISt4pairIKiSsEEE11lower_boundERS3_
	.weak_definition __ZNSt3mapIiSsSt4lessIiESaISt4pairIKiSsEEE11lower_boundERS3_
	.private_extern __ZNSt3mapIiSsSt4lessIiESaISt4pairIKiSsEEE11lower_boundERS3_
__ZNSt3mapIiSsSt4lessIiESaISt4pairIKiSsEEE11lower_boundERS3_:
LFB2358:
	.loc 13 583 0
	nop
	nop
	nop
	nop
	nop
	nop
	pushq	%rbp
LCFI636:
	movq	%rsp, %rbp
LCFI637:
	subq	$16, %rsp
LCFI638:
	movq	%rdi, -8(%rbp)
	movq	%rsi, -16(%rbp)
	.loc 13 584 0
	movq	-8(%rbp), %rdi
	movq	-16(%rbp), %rsi
	call	__ZNSt8_Rb_treeIiSt4pairIKiSsESt10_Select1stIS2_ESt4lessIiESaIS2_EE11lower_boundERS1_
	leave
	ret
LFE2358:
.globl __ZNSt8_Rb_treeIiSt4pairIKiSsESt10_Select1stIS2_ESt4lessIiESaIS2_EE8_S_valueEPKSt18_Rb_tree_node_base
	.weak_definition __ZNSt8_Rb_treeIiSt4pairIKiSsESt10_Select1stIS2_ESt4lessIiESaIS2_EE8_S_valueEPKSt18_Rb_tree_node_base
	.private_extern __ZNSt8_Rb_treeIiSt4pairIKiSsESt10_Select1stIS2_ESt4lessIiESaIS2_EE8_S_valueEPKSt18_Rb_tree_node_base
__ZNSt8_Rb_treeIiSt4pairIKiSsESt10_Select1stIS2_ESt4lessIiESaIS2_EE8_S_valueEPKSt18_Rb_tree_node_base:
LFB2730:
	.loc 3 519 0
	nop
	nop
	nop
	nop
	nop
	nop
	pushq	%rbp
LCFI639:
	movq	%rsp, %rbp
LCFI640:
	movq	%rdi, -8(%rbp)
	.loc 3 520 0
	movq	-8(%rbp), %rax
	addq	$32, %rax
	leave
	ret
LFE2730:
.globl __ZNSt8_Rb_treeIiSt4pairIKiSsESt10_Select1stIS2_ESt4lessIiESaIS2_EE6_S_keyEPKSt18_Rb_tree_node_base
	.weak_definition __ZNSt8_Rb_treeIiSt4pairIKiSsESt10_Select1stIS2_ESt4lessIiESaIS2_EE6_S_keyEPKSt18_Rb_tree_node_base
	.private_extern __ZNSt8_Rb_treeIiSt4pairIKiSsESt10_Select1stIS2_ESt4lessIiESaIS2_EE6_S_keyEPKSt18_Rb_tree_node_base
__ZNSt8_Rb_treeIiSt4pairIKiSsESt10_Select1stIS2_ESt4lessIiESaIS2_EE6_S_keyEPKSt18_Rb_tree_node_base:
LFB2661:
	.loc 3 523 0
	nop
	nop
	nop
	nop
	nop
	nop
	pushq	%rbp
LCFI641:
	movq	%rsp, %rbp
LCFI642:
	pushq	%rbx
LCFI643:
	subq	$40, %rsp
LCFI644:
	movq	%rdi, -40(%rbp)
	.loc 3 524 0
	movq	-40(%rbp), %rdi
	call	__ZNSt8_Rb_treeIiSt4pairIKiSsESt10_Select1stIS2_ESt4lessIiESaIS2_EE8_S_valueEPKSt18_Rb_tree_node_base
	movq	%rax, %rbx
	leaq	-17(%rbp), %rdi
	call	__ZNSt10_Select1stISt4pairIKiSsEEC1Ev
	leaq	-17(%rbp), %rdi
	movq	%rbx, %rsi
	call	__ZNKSt10_Select1stISt4pairIKiSsEEclERKS2_
	addq	$40, %rsp
	popq	%rbx
	leave
	ret
LFE2661:
	.align 1
.globl __ZNSt8_Rb_treeIiSt4pairIKiSsESt10_Select1stIS2_ESt4lessIiESaIS2_EE5beginEv
	.weak_definition __ZNSt8_Rb_treeIiSt4pairIKiSsESt10_Select1stIS2_ESt4lessIiESaIS2_EE5beginEv
	.private_extern __ZNSt8_Rb_treeIiSt4pairIKiSsESt10_Select1stIS2_ESt4lessIiESaIS2_EE5beginEv
__ZNSt8_Rb_treeIiSt4pairIKiSsESt10_Select1stIS2_ESt4lessIiESaIS2_EE5beginEv:
LFB2731:
	.loc 3 605 0
	nop
	nop
	nop
	nop
	nop
	nop
	pushq	%rbp
LCFI645:
	movq	%rsp, %rbp
LCFI646:
	subq	$32, %rsp
LCFI647:
	movq	%rdi, -24(%rbp)
	.loc 3 608 0
	movq	-24(%rbp), %rax
	movq	24(%rax), %rax
	movq	%rax, %rsi
	leaq	-16(%rbp), %rdi
	call	__ZNSt17_Rb_tree_iteratorISt4pairIKiSsEEC1EPSt13_Rb_tree_nodeIS2_E
	movq	-16(%rbp), %rax
	leave
	ret
LFE2731:
	.align 1
.globl __ZNSt4pairISt17_Rb_tree_iteratorIS_IKiSsEEbEC1ERKS3_RKb
	.weak_definition __ZNSt4pairISt17_Rb_tree_iteratorIS_IKiSsEEbEC1ERKS3_RKb
	.private_extern __ZNSt4pairISt17_Rb_tree_iteratorIS_IKiSsEEbEC1ERKS3_RKb
__ZNSt4pairISt17_Rb_tree_iteratorIS_IKiSsEEbEC1ERKS3_RKb:
LFB2734:
	.loc 9 84 0
	nop
	nop
	nop
	nop
	nop
	nop
	pushq	%rbp
LCFI648:
	movq	%rsp, %rbp
LCFI649:
	movq	%rdi, -8(%rbp)
	movq	%rsi, -16(%rbp)
	movq	%rdx, -24(%rbp)
LBB50:
	.loc 9 85 0
	movq	-16(%rbp), %rax
	movq	(%rax), %rdx
	movq	-8(%rbp), %rax
	movq	%rdx, (%rax)
	movq	-24(%rbp), %rax
	movzbl	(%rax), %edx
	movq	-8(%rbp), %rax
	movb	%dl, 8(%rax)
LBE50:
	leave
	ret
LFE2734:
.globl __ZN9__gnu_cxxneIPSt6vectorISsSaISsEES1_IS3_SaIS3_EEEEbRKNS_17__normal_iteratorIT_T0_EESC_
	.weak_definition __ZN9__gnu_cxxneIPSt6vectorISsSaISsEES1_IS3_SaIS3_EEEEbRKNS_17__normal_iteratorIT_T0_EESC_
__ZN9__gnu_cxxneIPSt6vectorISsSaISsEES1_IS3_SaIS3_EEEEbRKNS_17__normal_iteratorIT_T0_EESC_:
LFB2736:
	.loc 12 751 0
	nop
	nop
	nop
	nop
	nop
	nop
	pushq	%rbp
LCFI650:
	movq	%rsp, %rbp
LCFI651:
	pushq	%rbx
LCFI652:
	subq	$24, %rsp
LCFI653:
	movq	%rdi, -24(%rbp)
	movq	%rsi, -32(%rbp)
	.loc 12 752 0
	movq	-24(%rbp), %rdi
	call	__ZNK9__gnu_cxx17__normal_iteratorIPSt6vectorISsSaISsEES1_IS3_SaIS3_EEE4baseEv
	movq	(%rax), %rbx
	movq	-32(%rbp), %rdi
	call	__ZNK9__gnu_cxx17__normal_iteratorIPSt6vectorISsSaISsEES1_IS3_SaIS3_EEE4baseEv
	movq	(%rax), %rax
	cmpq	%rax, %rbx
	setne	%al
	movzbl	%al, %eax
	addq	$24, %rsp
	popq	%rbx
	leave
	ret
LFE2736:
	.align 1
.globl __ZN9__gnu_cxx17__normal_iteratorIPSt6vectorISsSaISsEES1_IS3_SaIS3_EEEppEv
	.weak_definition __ZN9__gnu_cxx17__normal_iteratorIPSt6vectorISsSaISsEES1_IS3_SaIS3_EEEppEv
	.private_extern __ZN9__gnu_cxx17__normal_iteratorIPSt6vectorISsSaISsEES1_IS3_SaIS3_EEEppEv
__ZN9__gnu_cxx17__normal_iteratorIPSt6vectorISsSaISsEES1_IS3_SaIS3_EEEppEv:
LFB2737:
	.loc 12 673 0
	nop
	nop
	nop
	nop
	nop
	nop
	pushq	%rbp
LCFI654:
	movq	%rsp, %rbp
LCFI655:
	movq	%rdi, -8(%rbp)
	.loc 12 675 0
	movq	-8(%rbp), %rax
	movq	(%rax), %rax
	leaq	24(%rax), %rdx
	movq	-8(%rbp), %rax
	movq	%rdx, (%rax)
	.loc 12 676 0
	movq	-8(%rbp), %rax
	leave
	ret
LFE2737:
	.align 1
.globl __ZNKSt8_Rb_treeISsSt4pairIKSs5TableESt10_Select1stIS3_ESt4lessISsESaIS3_EE21_M_get_Node_allocatorEv
	.weak_definition __ZNKSt8_Rb_treeISsSt4pairIKSs5TableESt10_Select1stIS3_ESt4lessISsESaIS3_EE21_M_get_Node_allocatorEv
	.private_extern __ZNKSt8_Rb_treeISsSt4pairIKSs5TableESt10_Select1stIS3_ESt4lessISsESaIS3_EE21_M_get_Node_allocatorEv
__ZNKSt8_Rb_treeISsSt4pairIKSs5TableESt10_Select1stIS3_ESt4lessISsESaIS3_EE21_M_get_Node_allocatorEv:
LFB2740:
	.loc 3 359 0
	nop
	nop
	nop
	nop
	nop
	nop
	pushq	%rbp
LCFI656:
	movq	%rsp, %rbp
LCFI657:
	movq	%rdi, -8(%rbp)
	.loc 3 360 0
	movq	-8(%rbp), %rax
	leave
	ret
LFE2740:
	.align 1
.globl __ZNSaISt4pairIKSs5TableEEC1ISt13_Rb_tree_nodeIS2_EEERKSaIT_E
	.weak_definition __ZNSaISt4pairIKSs5TableEEC1ISt13_Rb_tree_nodeIS2_EEERKSaIT_E
	.private_extern __ZNSaISt4pairIKSs5TableEEC1ISt13_Rb_tree_nodeIS2_EEERKSaIT_E
__ZNSaISt4pairIKSs5TableEEC1ISt13_Rb_tree_nodeIS2_EEERKSaIT_E:
LFB2743:
	.loc 11 106 0
	nop
	nop
	nop
	nop
	nop
	nop
	pushq	%rbp
LCFI658:
	movq	%rsp, %rbp
LCFI659:
	subq	$16, %rsp
LCFI660:
	movq	%rdi, -8(%rbp)
	movq	%rsi, -16(%rbp)
	.loc 11 106 0
	movq	-8(%rbp), %rdi
	call	__ZN9__gnu_cxx13new_allocatorISt4pairIKSs5TableEEC2Ev
	leave
	ret
LFE2743:
	.align 1
.globl __ZNKSt8_Rb_treeISsSt4pairIKSs5TableESt10_Select1stIS3_ESt4lessISsESaIS3_EE13get_allocatorEv
	.weak_definition __ZNKSt8_Rb_treeISsSt4pairIKSs5TableESt10_Select1stIS3_ESt4lessISsESaIS3_EE13get_allocatorEv
	.private_extern __ZNKSt8_Rb_treeISsSt4pairIKSs5TableESt10_Select1stIS3_ESt4lessISsESaIS3_EE13get_allocatorEv
__ZNKSt8_Rb_treeISsSt4pairIKSs5TableESt10_Select1stIS3_ESt4lessISsESaIS3_EE13get_allocatorEv:
LFB2695:
	.loc 3 363 0
	nop
	nop
	nop
	nop
	nop
	nop
	pushq	%rbp
LCFI661:
	movq	%rsp, %rbp
LCFI662:
	pushq	%r12
LCFI663:
	pushq	%rbx
LCFI664:
	subq	$16, %rsp
LCFI665:
	movq	%rdi, %rbx
	movq	%rsi, -24(%rbp)
	.loc 3 364 0
	movq	%rbx, %r12
	movq	-24(%rbp), %rdi
	call	__ZNKSt8_Rb_treeISsSt4pairIKSs5TableESt10_Select1stIS3_ESt4lessISsESaIS3_EE21_M_get_Node_allocatorEv
	movq	%rax, %rsi
	movq	%r12, %rdi
	call	__ZNSaISt4pairIKSs5TableEEC1ISt13_Rb_tree_nodeIS2_EEERKSaIT_E
	movq	%rbx, %rax
	addq	$16, %rsp
	popq	%rbx
	popq	%r12
	leave
	ret
LFE2695:
.globl __ZNSt15__copy_backwardILb0ESt26random_access_iterator_tagE8__copy_bIPSsS3_EET0_T_S5_S4_
	.weak_definition __ZNSt15__copy_backwardILb0ESt26random_access_iterator_tagE8__copy_bIPSsS3_EET0_T_S5_S4_
	.private_extern __ZNSt15__copy_backwardILb0ESt26random_access_iterator_tagE8__copy_bIPSsS3_EET0_T_S5_S4_
__ZNSt15__copy_backwardILb0ESt26random_access_iterator_tagE8__copy_bIPSsS3_EET0_T_S5_S4_:
LFB2745:
	.loc 4 429 0
	nop
	nop
	nop
	nop
	nop
	nop
	pushq	%rbp
LCFI666:
	movq	%rsp, %rbp
LCFI667:
	subq	$48, %rsp
LCFI668:
	movq	%rdi, -24(%rbp)
	movq	%rsi, -32(%rbp)
	movq	%rdx, -40(%rbp)
LBB51:
	.loc 4 432 0
	movq	-32(%rbp), %rdx
	movq	-24(%rbp), %rax
	movq	%rdx, %rcx
	subq	%rax, %rcx
	movq	%rcx, %rax
	sarq	$3, %rax
	movq	%rax, -8(%rbp)
	jmp	L608
L609:
	.loc 4 433 0
	subq	$8, -32(%rbp)
	subq	$8, -40(%rbp)
	movq	-32(%rbp), %rsi
	movq	-40(%rbp), %rdi
	call	__ZNSsaSERKSs
	.loc 4 432 0
	decq	-8(%rbp)
L608:
	cmpq	$0, -8(%rbp)
	jg	L609
	.loc 4 434 0
	movq	-40(%rbp), %rax
LBE51:
	leave
	ret
LFE2745:
.globl __ZSt19__copy_backward_auxIPSsS0_ET0_T_S2_S1_
	.weak_definition __ZSt19__copy_backward_auxIPSsS0_ET0_T_S2_S1_
__ZSt19__copy_backward_auxIPSsS0_ET0_T_S2_S1_:
LFB2699:
	.loc 4 453 0
	nop
	nop
	nop
	nop
	nop
	nop
	pushq	%rbp
LCFI669:
	movq	%rsp, %rbp
LCFI670:
	subq	$48, %rsp
LCFI671:
	movq	%rdi, -24(%rbp)
	movq	%rsi, -32(%rbp)
	movq	%rdx, -40(%rbp)
LBB52:
	.loc 4 461 0
	movb	$0, -1(%rbp)
	.loc 4 465 0
	movq	-40(%rbp), %rdx
	movq	-32(%rbp), %rsi
	movq	-24(%rbp), %rdi
	call	__ZNSt15__copy_backwardILb0ESt26random_access_iterator_tagE8__copy_bIPSsS3_EET0_T_S5_S4_
LBE52:
	leave
	ret
LFE2699:
.globl __ZNSt22__copy_backward_normalILb0ELb0EE10__copy_b_nIPSsS2_EET0_T_S4_S3_
	.weak_definition __ZNSt22__copy_backward_normalILb0ELb0EE10__copy_b_nIPSsS2_EET0_T_S4_S3_
	.private_extern __ZNSt22__copy_backward_normalILb0ELb0EE10__copy_b_nIPSsS2_EET0_T_S4_S3_
__ZNSt22__copy_backward_normalILb0ELb0EE10__copy_b_nIPSsS2_EET0_T_S4_S3_:
LFB2614:
	.loc 4 473 0
	nop
	nop
	nop
	nop
	nop
	nop
	pushq	%rbp
LCFI672:
	movq	%rsp, %rbp
LCFI673:
	subq	$32, %rsp
LCFI674:
	movq	%rdi, -8(%rbp)
	movq	%rsi, -16(%rbp)
	movq	%rdx, -24(%rbp)
	.loc 4 474 0
	movq	-24(%rbp), %rdx
	movq	-16(%rbp), %rsi
	movq	-8(%rbp), %rdi
	call	__ZSt19__copy_backward_auxIPSsS0_ET0_T_S2_S1_
	leave
	ret
LFE2614:
.globl __ZSt13copy_backwardIPSsS0_ET0_T_S2_S1_
	.weak_definition __ZSt13copy_backwardIPSsS0_ET0_T_S2_S1_
__ZSt13copy_backwardIPSsS0_ET0_T_S2_S1_:
LFB2474:
	.loc 4 526 0
	nop
	nop
	nop
	nop
	nop
	nop
	pushq	%rbp
LCFI675:
	movq	%rsp, %rbp
LCFI676:
	subq	$48, %rsp
LCFI677:
	movq	%rdi, -24(%rbp)
	movq	%rsi, -32(%rbp)
	movq	%rdx, -40(%rbp)
LBB53:
	.loc 4 536 0
	movb	$0, -1(%rbp)
	.loc 4 537 0
	movb	$0, -2(%rbp)
	.loc 4 540 0
	movq	-40(%rbp), %rdx
	movq	-32(%rbp), %rsi
	movq	-24(%rbp), %rdi
	call	__ZNSt22__copy_backward_normalILb0ELb0EE10__copy_b_nIPSsS2_EET0_T_S4_S3_
LBE53:
	leave
	ret
LFE2474:
.globl __ZN9__gnu_cxxneIPKSsSt6vectorISsSaISsEEEEbRKNS_17__normal_iteratorIT_T0_EESB_
	.weak_definition __ZN9__gnu_cxxneIPKSsSt6vectorISsSaISsEEEEbRKNS_17__normal_iteratorIT_T0_EESB_
__ZN9__gnu_cxxneIPKSsSt6vectorISsSaISsEEEEbRKNS_17__normal_iteratorIT_T0_EESB_:
LFB2752:
	.loc 12 751 0
	nop
	nop
	nop
	nop
	nop
	nop
	pushq	%rbp
LCFI678:
	movq	%rsp, %rbp
LCFI679:
	pushq	%rbx
LCFI680:
	subq	$24, %rsp
LCFI681:
	movq	%rdi, -24(%rbp)
	movq	%rsi, -32(%rbp)
	.loc 12 752 0
	movq	-24(%rbp), %rdi
	call	__ZNK9__gnu_cxx17__normal_iteratorIPKSsSt6vectorISsSaISsEEE4baseEv
	movq	(%rax), %rbx
	movq	-32(%rbp), %rdi
	call	__ZNK9__gnu_cxx17__normal_iteratorIPKSsSt6vectorISsSaISsEEE4baseEv
	movq	(%rax), %rax
	cmpq	%rax, %rbx
	setne	%al
	movzbl	%al, %eax
	addq	$24, %rsp
	popq	%rbx
	leave
	ret
LFE2752:
	.align 1
.globl __ZN9__gnu_cxx17__normal_iteratorIPKSsSt6vectorISsSaISsEEEppEv
	.weak_definition __ZN9__gnu_cxx17__normal_iteratorIPKSsSt6vectorISsSaISsEEEppEv
	.private_extern __ZN9__gnu_cxx17__normal_iteratorIPKSsSt6vectorISsSaISsEEEppEv
__ZN9__gnu_cxx17__normal_iteratorIPKSsSt6vectorISsSaISsEEEppEv:
LFB2753:
	.loc 12 673 0
	nop
	nop
	nop
	nop
	nop
	nop
	pushq	%rbp
LCFI682:
	movq	%rsp, %rbp
LCFI683:
	movq	%rdi, -8(%rbp)
	.loc 12 675 0
	movq	-8(%rbp), %rax
	movq	(%rax), %rax
	leaq	8(%rax), %rdx
	movq	-8(%rbp), %rax
	movq	%rdx, (%rax)
	.loc 12 676 0
	movq	-8(%rbp), %rax
	leave
	ret
LFE2753:
	.align 1
.globl __ZNK9__gnu_cxx17__normal_iteratorIPKSsSt6vectorISsSaISsEEEdeEv
	.weak_definition __ZNK9__gnu_cxx17__normal_iteratorIPKSsSt6vectorISsSaISsEEEdeEv
	.private_extern __ZNK9__gnu_cxx17__normal_iteratorIPKSsSt6vectorISsSaISsEEEdeEv
__ZNK9__gnu_cxx17__normal_iteratorIPKSsSt6vectorISsSaISsEEEdeEv:
LFB2754:
	.loc 12 665 0
	nop
	nop
	nop
	nop
	nop
	nop
	pushq	%rbp
LCFI684:
	movq	%rsp, %rbp
LCFI685:
	movq	%rdi, -8(%rbp)
	.loc 12 666 0
	movq	-8(%rbp), %rax
	movq	(%rax), %rax
	leave
	ret
LFE2754:
	.align 1
.globl __ZNK9__gnu_cxx13new_allocatorISt13_Rb_tree_nodeISt4pairIKSs5TableEEE8max_sizeEv
	.weak_definition __ZNK9__gnu_cxx13new_allocatorISt13_Rb_tree_nodeISt4pairIKSs5TableEEE8max_sizeEv
	.private_extern __ZNK9__gnu_cxx13new_allocatorISt13_Rb_tree_nodeISt4pairIKSs5TableEEE8max_sizeEv
__ZNK9__gnu_cxx13new_allocatorISt13_Rb_tree_nodeISt4pairIKSs5TableEEE8max_sizeEv:
LFB2759:
	.loc 10 100 0
	nop
	nop
	nop
	nop
	nop
	nop
	pushq	%rbp
LCFI686:
	movq	%rsp, %rbp
LCFI687:
	movq	%rdi, -8(%rbp)
	.loc 10 101 0
	movabsq	$88686269585142075, %rax
	leave
	ret
LFE2759:
	.align 1
.globl __ZNK9__gnu_cxx13new_allocatorISt13_Rb_tree_nodeISt4pairIKSsiEEE8max_sizeEv
	.weak_definition __ZNK9__gnu_cxx13new_allocatorISt13_Rb_tree_nodeISt4pairIKSsiEEE8max_sizeEv
	.private_extern __ZNK9__gnu_cxx13new_allocatorISt13_Rb_tree_nodeISt4pairIKSsiEEE8max_sizeEv
__ZNK9__gnu_cxx13new_allocatorISt13_Rb_tree_nodeISt4pairIKSsiEEE8max_sizeEv:
LFB2760:
	.loc 10 100 0
	nop
	nop
	nop
	nop
	nop
	nop
	pushq	%rbp
LCFI688:
	movq	%rsp, %rbp
LCFI689:
	movq	%rdi, -8(%rbp)
	.loc 10 101 0
	movabsq	$384307168202282325, %rax
	leave
	ret
LFE2760:
	.align 1
.globl __ZNK9__gnu_cxx13new_allocatorISt13_Rb_tree_nodeISt4pairIKiSsEEE8max_sizeEv
	.weak_definition __ZNK9__gnu_cxx13new_allocatorISt13_Rb_tree_nodeISt4pairIKiSsEEE8max_sizeEv
	.private_extern __ZNK9__gnu_cxx13new_allocatorISt13_Rb_tree_nodeISt4pairIKiSsEEE8max_sizeEv
__ZNK9__gnu_cxx13new_allocatorISt13_Rb_tree_nodeISt4pairIKiSsEEE8max_sizeEv:
LFB2761:
	.loc 10 100 0
	nop
	nop
	nop
	nop
	nop
	nop
	pushq	%rbp
LCFI690:
	movq	%rsp, %rbp
LCFI691:
	movq	%rdi, -8(%rbp)
	.loc 10 101 0
	movabsq	$384307168202282325, %rax
	leave
	ret
LFE2761:
	.text
___tcf_1:
LFB2764:
	.loc 7 11 0
	nop
	nop
	nop
	nop
	nop
	nop
	pushq	%rbp
LCFI692:
	movq	%rsp, %rbp
LCFI693:
	subq	$16, %rsp
LCFI694:
	movq	%rdi, -8(%rbp)
	.loc 7 11 0
	movq	_SELECT_CMD@GOTPCREL(%rip), %rdi
	call	__ZNSsD1Ev
	leave
	ret
LFE2764:
___tcf_2:
LFB2765:
	.loc 7 12 0
	nop
	nop
	nop
	nop
	nop
	nop
	pushq	%rbp
LCFI695:
	movq	%rsp, %rbp
LCFI696:
	subq	$16, %rsp
LCFI697:
	movq	%rdi, -8(%rbp)
	.loc 7 12 0
	movq	_CREATE_CMD@GOTPCREL(%rip), %rdi
	call	__ZNSsD1Ev
	leave
	ret
LFE2765:
___tcf_3:
LFB2766:
	.loc 7 13 0
	nop
	nop
	nop
	nop
	nop
	nop
	pushq	%rbp
LCFI698:
	movq	%rsp, %rbp
LCFI699:
	subq	$16, %rsp
LCFI700:
	movq	%rdi, -8(%rbp)
	.loc 7 13 0
	movq	_INSERT_CMD@GOTPCREL(%rip), %rdi
	call	__ZNSsD1Ev
	leave
	ret
LFE2766:
___tcf_4:
LFB2767:
	.loc 7 14 0
	nop
	nop
	nop
	nop
	nop
	nop
	pushq	%rbp
LCFI701:
	movq	%rsp, %rbp
LCFI702:
	subq	$16, %rsp
LCFI703:
	movq	%rdi, -8(%rbp)
	.loc 7 14 0
	movq	_DELETE_CMD@GOTPCREL(%rip), %rdi
	call	__ZNSsD1Ev
	leave
	ret
LFE2767:
___tcf_5:
LFB2768:
	.loc 7 15 0
	nop
	nop
	nop
	nop
	nop
	nop
	pushq	%rbp
LCFI704:
	movq	%rsp, %rbp
LCFI705:
	subq	$16, %rsp
LCFI706:
	movq	%rdi, -8(%rbp)
	.loc 7 15 0
	movq	_SHUTDOWN_CMD@GOTPCREL(%rip), %rdi
	call	__ZNSsD1Ev
	leave
	ret
LFE2768:
___tcf_6:
LFB2769:
	.loc 7 16 0
	nop
	nop
	nop
	nop
	nop
	nop
	pushq	%rbp
LCFI707:
	movq	%rsp, %rbp
LCFI708:
	subq	$16, %rsp
LCFI709:
	movq	%rdi, -8(%rbp)
	.loc 7 16 0
	movq	_DUMP_CMD@GOTPCREL(%rip), %rdi
	call	__ZNSsD1Ev
	leave
	ret
LFE2769:
___tcf_7:
LFB2770:
	.loc 7 17 0
	nop
	nop
	nop
	nop
	nop
	nop
	pushq	%rbp
LCFI710:
	movq	%rsp, %rbp
LCFI711:
	subq	$16, %rsp
LCFI712:
	movq	%rdi, -8(%rbp)
	.loc 7 17 0
	movq	_WHERE_EXPR@GOTPCREL(%rip), %rdi
	call	__ZNSsD1Ev
	leave
	ret
LFE2770:
___tcf_8:
LFB2771:
	.loc 7 18 0
	nop
	nop
	nop
	nop
	nop
	nop
	pushq	%rbp
LCFI713:
	movq	%rsp, %rbp
LCFI714:
	subq	$16, %rsp
LCFI715:
	movq	%rdi, -8(%rbp)
	.loc 7 18 0
	movq	_FROM_EXPR@GOTPCREL(%rip), %rdi
	call	__ZNSsD1Ev
	leave
	ret
LFE2771:
___tcf_9:
LFB2772:
	.loc 7 19 0
	nop
	nop
	nop
	nop
	nop
	nop
	pushq	%rbp
LCFI716:
	movq	%rsp, %rbp
LCFI717:
	subq	$16, %rsp
LCFI718:
	movq	%rdi, -8(%rbp)
	.loc 7 19 0
	movq	_ALL_LITERAL@GOTPCREL(%rip), %rdi
	call	__ZNSsD1Ev
	leave
	ret
LFE2772:
___tcf_10:
LFB2773:
	.loc 7 20 0
	nop
	nop
	nop
	nop
	nop
	nop
	pushq	%rbp
LCFI719:
	movq	%rsp, %rbp
LCFI720:
	subq	$16, %rsp
LCFI721:
	movq	%rdi, -8(%rbp)
	.loc 7 20 0
	movq	_VALUES_EXPR@GOTPCREL(%rip), %rdi
	call	__ZNSsD1Ev
	leave
	ret
LFE2773:
___tcf_11:
LFB2774:
	.loc 7 21 0
	nop
	nop
	nop
	nop
	nop
	nop
	pushq	%rbp
LCFI722:
	movq	%rsp, %rbp
LCFI723:
	subq	$16, %rsp
LCFI724:
	movq	%rdi, -8(%rbp)
	.loc 7 21 0
	movq	_AND_STATEMENT@GOTPCREL(%rip), %rdi
	call	__ZNSsD1Ev
	leave
	ret
LFE2774:
___tcf_12:
LFB2775:
	.loc 7 22 0
	nop
	nop
	nop
	nop
	nop
	nop
	pushq	%rbp
LCFI725:
	movq	%rsp, %rbp
LCFI726:
	subq	$16, %rsp
LCFI727:
	movq	%rdi, -8(%rbp)
	.loc 7 22 0
	movq	_STR_TYPE@GOTPCREL(%rip), %rdi
	call	__ZNSsD1Ev
	leave
	ret
LFE2775:
___tcf_13:
LFB2776:
	.loc 7 23 0
	nop
	nop
	nop
	nop
	nop
	nop
	pushq	%rbp
LCFI728:
	movq	%rsp, %rbp
LCFI729:
	subq	$16, %rsp
LCFI730:
	movq	%rdi, -8(%rbp)
	.loc 7 23 0
	movq	_INT_TYPE@GOTPCREL(%rip), %rdi
	call	__ZNSsD1Ev
	leave
	ret
LFE2776:
___tcf_14:
LFB2777:
	.loc 7 24 0
	nop
	nop
	nop
	nop
	nop
	nop
	pushq	%rbp
LCFI731:
	movq	%rsp, %rbp
LCFI732:
	subq	$16, %rsp
LCFI733:
	movq	%rdi, -8(%rbp)
	.loc 7 24 0
	movq	_CND_EQ@GOTPCREL(%rip), %rdi
	call	__ZNSsD1Ev
	leave
	ret
LFE2777:
___tcf_15:
LFB2778:
	.loc 7 25 0
	nop
	nop
	nop
	nop
	nop
	nop
	pushq	%rbp
LCFI734:
	movq	%rsp, %rbp
LCFI735:
	subq	$16, %rsp
LCFI736:
	movq	%rdi, -8(%rbp)
	.loc 7 25 0
	movq	_CND_GE@GOTPCREL(%rip), %rdi
	call	__ZNSsD1Ev
	leave
	ret
LFE2778:
___tcf_16:
LFB2779:
	.loc 7 26 0
	nop
	nop
	nop
	nop
	nop
	nop
	pushq	%rbp
LCFI737:
	movq	%rsp, %rbp
LCFI738:
	subq	$16, %rsp
LCFI739:
	movq	%rdi, -8(%rbp)
	.loc 7 26 0
	movq	_CND_LE@GOTPCREL(%rip), %rdi
	call	__ZNSsD1Ev
	leave
	ret
LFE2779:
___tcf_19:
LFB2785:
	.loc 7 49 0
	nop
	nop
	nop
	nop
	nop
	nop
	pushq	%rbp
LCFI740:
	movq	%rsp, %rbp
LCFI741:
	subq	$16, %rsp
LCFI742:
	movq	%rdi, -8(%rbp)
	.loc 7 49 0
	movq	_buffer@GOTPCREL(%rip), %rdi
	call	__ZNSsD1Ev
	leave
	ret
LFE2785:
___tcf_20:
LFB2786:
	.loc 7 51 0
	nop
	nop
	nop
	nop
	nop
	nop
	pushq	%rbp
LCFI743:
	movq	%rsp, %rbp
LCFI744:
	subq	$16, %rsp
LCFI745:
	movq	%rdi, -8(%rbp)
	.loc 7 51 0
	movq	_sval@GOTPCREL(%rip), %rdi
	call	__ZNSsD1Ev
	leave
	ret
LFE2786:
___tcf_21:
LFB2787:
	.loc 7 53 0
	nop
	nop
	nop
	nop
	nop
	nop
	pushq	%rbp
LCFI746:
	movq	%rsp, %rbp
LCFI747:
	subq	$16, %rsp
LCFI748:
	movq	%rdi, -8(%rbp)
	.loc 7 53 0
	movq	_cmd@GOTPCREL(%rip), %rdi
	call	__ZNSsD1Ev
	leave
	ret
LFE2787:
___tcf_22:
LFB2788:
	.loc 7 54 0
	nop
	nop
	nop
	nop
	nop
	nop
	pushq	%rbp
LCFI749:
	movq	%rsp, %rbp
LCFI750:
	subq	$16, %rsp
LCFI751:
	movq	%rdi, -8(%rbp)
	.loc 7 54 0
	movq	_tableName@GOTPCREL(%rip), %rdi
	call	__ZNSsD1Ev
	leave
	ret
LFE2788:
___tcf_23:
LFB2789:
	.loc 7 55 0
	nop
	nop
	nop
	nop
	nop
	nop
	pushq	%rbp
LCFI752:
	movq	%rsp, %rbp
LCFI753:
	subq	$16, %rsp
LCFI754:
	movq	%rdi, -8(%rbp)
	.loc 7 55 0
	movq	_token@GOTPCREL(%rip), %rdi
	call	__ZNSsD1Ev
	leave
	ret
LFE2789:
	.cstring
LC0:
	.ascii "SELECT\0"
LC1:
	.ascii "CREATE\0"
LC2:
	.ascii "INSERT\0"
LC3:
	.ascii "DELETE\0"
LC4:
	.ascii "SHUTDOWN\0"
LC5:
	.ascii "SHOW_DUMP\0"
LC6:
	.ascii "WHERE\0"
LC7:
	.ascii "FROM\0"
LC8:
	.ascii "*\0"
LC9:
	.ascii "VALUES\0"
LC10:
	.ascii "AND\0"
LC11:
	.ascii "String\0"
LC12:
	.ascii "Int\0"
LC13:
	.ascii "=\0"
LC14:
	.ascii ">\0"
LC15:
	.ascii "<\0"
	.section __TEXT,__StaticInit,regular,pure_instructions
__Z41__static_initialization_and_destruction_0ii:
LFB2762:
	.loc 7 368 0
	nop
	nop
	nop
	nop
	nop
	nop
	pushq	%rbp
LCFI755:
	movq	%rsp, %rbp
LCFI756:
	pushq	%rbx
LCFI757:
	subq	$56, %rsp
LCFI758:
	movl	%edi, -52(%rbp)
	movl	%esi, -56(%rbp)
	.loc 7 368 0
	cmpl	$1, -52(%rbp)
	jne	L707
	cmpl	$65535, -56(%rbp)
	jne	L707
	.file 17 "/Developer/SDKs/MacOSX10.6.sdk/usr/include/c++/4.2.1/iostream"
	.loc 17 77 0
	movq	__ZStL8__ioinit@GOTPCREL(%rip), %rdi
LEHB2:
	call	__ZNSt8ios_base4InitC1Ev
LEHE2:
	movq	___dso_handle@GOTPCREL(%rip), %rdx
	movl	$0, %esi
	movq	___tcf_0@GOTPCREL(%rip), %rdi
	call	___cxa_atexit
	.loc 7 11 0
	leaq	-17(%rbp), %rdi
	call	__ZNSaIcEC1Ev
	leaq	-17(%rbp), %rdx
	leaq	LC0(%rip), %rsi
	movq	_SELECT_CMD@GOTPCREL(%rip), %rdi
LEHB3:
	call	__ZNSsC1EPKcRKSaIcE
LEHE3:
	leaq	-17(%rbp), %rdi
	call	__ZNSaIcED1Ev
	movq	___dso_handle@GOTPCREL(%rip), %rdx
	movl	$0, %esi
	movq	___tcf_1@GOTPCREL(%rip), %rdi
	call	___cxa_atexit
	.loc 7 12 0
	leaq	-18(%rbp), %rdi
	call	__ZNSaIcEC1Ev
	leaq	-18(%rbp), %rdx
	leaq	LC1(%rip), %rsi
	movq	_CREATE_CMD@GOTPCREL(%rip), %rdi
LEHB4:
	call	__ZNSsC1EPKcRKSaIcE
LEHE4:
	jmp	L676
L723:
	movq	%rax, -64(%rbp)
L677:
	movq	-64(%rbp), %rbx
	.loc 7 11 0
	leaq	-17(%rbp), %rdi
	call	__ZNSaIcED1Ev
	movq	%rbx, -64(%rbp)
	movq	-64(%rbp), %rdi
LEHB5:
	call	__Unwind_Resume
LEHE5:
L676:
	.loc 7 12 0
	leaq	-18(%rbp), %rdi
	call	__ZNSaIcED1Ev
	movq	___dso_handle@GOTPCREL(%rip), %rdx
	movl	$0, %esi
	movq	___tcf_2@GOTPCREL(%rip), %rdi
	call	___cxa_atexit
	.loc 7 13 0
	leaq	-19(%rbp), %rdi
	call	__ZNSaIcEC1Ev
	leaq	-19(%rbp), %rdx
	leaq	LC2(%rip), %rsi
	movq	_INSERT_CMD@GOTPCREL(%rip), %rdi
LEHB6:
	call	__ZNSsC1EPKcRKSaIcE
LEHE6:
	jmp	L678
L722:
	movq	%rax, -64(%rbp)
L679:
	movq	-64(%rbp), %rbx
	.loc 7 12 0
	leaq	-18(%rbp), %rdi
	call	__ZNSaIcED1Ev
	movq	%rbx, -64(%rbp)
	movq	-64(%rbp), %rdi
LEHB7:
	call	__Unwind_Resume
LEHE7:
L678:
	.loc 7 13 0
	leaq	-19(%rbp), %rdi
	call	__ZNSaIcED1Ev
	movq	___dso_handle@GOTPCREL(%rip), %rdx
	movl	$0, %esi
	movq	___tcf_3@GOTPCREL(%rip), %rdi
	call	___cxa_atexit
	.loc 7 14 0
	leaq	-20(%rbp), %rdi
	call	__ZNSaIcEC1Ev
	leaq	-20(%rbp), %rdx
	leaq	LC3(%rip), %rsi
	movq	_DELETE_CMD@GOTPCREL(%rip), %rdi
LEHB8:
	call	__ZNSsC1EPKcRKSaIcE
LEHE8:
	jmp	L680
L721:
	movq	%rax, -64(%rbp)
L681:
	movq	-64(%rbp), %rbx
	.loc 7 13 0
	leaq	-19(%rbp), %rdi
	call	__ZNSaIcED1Ev
	movq	%rbx, -64(%rbp)
	movq	-64(%rbp), %rdi
LEHB9:
	call	__Unwind_Resume
LEHE9:
L680:
	.loc 7 14 0
	leaq	-20(%rbp), %rdi
	call	__ZNSaIcED1Ev
	movq	___dso_handle@GOTPCREL(%rip), %rdx
	movl	$0, %esi
	movq	___tcf_4@GOTPCREL(%rip), %rdi
	call	___cxa_atexit
	.loc 7 15 0
	leaq	-21(%rbp), %rdi
	call	__ZNSaIcEC1Ev
	leaq	-21(%rbp), %rdx
	leaq	LC4(%rip), %rsi
	movq	_SHUTDOWN_CMD@GOTPCREL(%rip), %rdi
LEHB10:
	call	__ZNSsC1EPKcRKSaIcE
LEHE10:
	jmp	L682
L720:
	movq	%rax, -64(%rbp)
L683:
	movq	-64(%rbp), %rbx
	.loc 7 14 0
	leaq	-20(%rbp), %rdi
	call	__ZNSaIcED1Ev
	movq	%rbx, -64(%rbp)
	movq	-64(%rbp), %rdi
LEHB11:
	call	__Unwind_Resume
LEHE11:
L682:
	.loc 7 15 0
	leaq	-21(%rbp), %rdi
	call	__ZNSaIcED1Ev
	movq	___dso_handle@GOTPCREL(%rip), %rdx
	movl	$0, %esi
	movq	___tcf_5@GOTPCREL(%rip), %rdi
	call	___cxa_atexit
	.loc 7 16 0
	leaq	-22(%rbp), %rdi
	call	__ZNSaIcEC1Ev
	leaq	-22(%rbp), %rdx
	leaq	LC5(%rip), %rsi
	movq	_DUMP_CMD@GOTPCREL(%rip), %rdi
LEHB12:
	call	__ZNSsC1EPKcRKSaIcE
LEHE12:
	jmp	L684
L719:
	movq	%rax, -64(%rbp)
L685:
	movq	-64(%rbp), %rbx
	.loc 7 15 0
	leaq	-21(%rbp), %rdi
	call	__ZNSaIcED1Ev
	movq	%rbx, -64(%rbp)
	movq	-64(%rbp), %rdi
LEHB13:
	call	__Unwind_Resume
LEHE13:
L684:
	.loc 7 16 0
	leaq	-22(%rbp), %rdi
	call	__ZNSaIcED1Ev
	movq	___dso_handle@GOTPCREL(%rip), %rdx
	movl	$0, %esi
	movq	___tcf_6@GOTPCREL(%rip), %rdi
	call	___cxa_atexit
	.loc 7 17 0
	leaq	-23(%rbp), %rdi
	call	__ZNSaIcEC1Ev
	leaq	-23(%rbp), %rdx
	leaq	LC6(%rip), %rsi
	movq	_WHERE_EXPR@GOTPCREL(%rip), %rdi
LEHB14:
	call	__ZNSsC1EPKcRKSaIcE
LEHE14:
	jmp	L686
L718:
	movq	%rax, -64(%rbp)
L687:
	movq	-64(%rbp), %rbx
	.loc 7 16 0
	leaq	-22(%rbp), %rdi
	call	__ZNSaIcED1Ev
	movq	%rbx, -64(%rbp)
	movq	-64(%rbp), %rdi
LEHB15:
	call	__Unwind_Resume
LEHE15:
L686:
	.loc 7 17 0
	leaq	-23(%rbp), %rdi
	call	__ZNSaIcED1Ev
	movq	___dso_handle@GOTPCREL(%rip), %rdx
	movl	$0, %esi
	movq	___tcf_7@GOTPCREL(%rip), %rdi
	call	___cxa_atexit
	.loc 7 18 0
	leaq	-24(%rbp), %rdi
	call	__ZNSaIcEC1Ev
	leaq	-24(%rbp), %rdx
	leaq	LC7(%rip), %rsi
	movq	_FROM_EXPR@GOTPCREL(%rip), %rdi
LEHB16:
	call	__ZNSsC1EPKcRKSaIcE
LEHE16:
	jmp	L688
L717:
	movq	%rax, -64(%rbp)
L689:
	movq	-64(%rbp), %rbx
	.loc 7 17 0
	leaq	-23(%rbp), %rdi
	call	__ZNSaIcED1Ev
	movq	%rbx, -64(%rbp)
	movq	-64(%rbp), %rdi
LEHB17:
	call	__Unwind_Resume
LEHE17:
L688:
	.loc 7 18 0
	leaq	-24(%rbp), %rdi
	call	__ZNSaIcED1Ev
	movq	___dso_handle@GOTPCREL(%rip), %rdx
	movl	$0, %esi
	movq	___tcf_8@GOTPCREL(%rip), %rdi
	call	___cxa_atexit
	.loc 7 19 0
	leaq	-25(%rbp), %rdi
	call	__ZNSaIcEC1Ev
	leaq	-25(%rbp), %rdx
	leaq	LC8(%rip), %rsi
	movq	_ALL_LITERAL@GOTPCREL(%rip), %rdi
LEHB18:
	call	__ZNSsC1EPKcRKSaIcE
LEHE18:
	jmp	L690
L716:
	movq	%rax, -64(%rbp)
L691:
	movq	-64(%rbp), %rbx
	.loc 7 18 0
	leaq	-24(%rbp), %rdi
	call	__ZNSaIcED1Ev
	movq	%rbx, -64(%rbp)
	movq	-64(%rbp), %rdi
LEHB19:
	call	__Unwind_Resume
LEHE19:
L690:
	.loc 7 19 0
	leaq	-25(%rbp), %rdi
	call	__ZNSaIcED1Ev
	movq	___dso_handle@GOTPCREL(%rip), %rdx
	movl	$0, %esi
	movq	___tcf_9@GOTPCREL(%rip), %rdi
	call	___cxa_atexit
	.loc 7 20 0
	leaq	-26(%rbp), %rdi
	call	__ZNSaIcEC1Ev
	leaq	-26(%rbp), %rdx
	leaq	LC9(%rip), %rsi
	movq	_VALUES_EXPR@GOTPCREL(%rip), %rdi
LEHB20:
	call	__ZNSsC1EPKcRKSaIcE
LEHE20:
	jmp	L692
L715:
	movq	%rax, -64(%rbp)
L693:
	movq	-64(%rbp), %rbx
	.loc 7 19 0
	leaq	-25(%rbp), %rdi
	call	__ZNSaIcED1Ev
	movq	%rbx, -64(%rbp)
	movq	-64(%rbp), %rdi
LEHB21:
	call	__Unwind_Resume
LEHE21:
L692:
	.loc 7 20 0
	leaq	-26(%rbp), %rdi
	call	__ZNSaIcED1Ev
	movq	___dso_handle@GOTPCREL(%rip), %rdx
	movl	$0, %esi
	movq	___tcf_10@GOTPCREL(%rip), %rdi
	call	___cxa_atexit
	.loc 7 21 0
	leaq	-27(%rbp), %rdi
	call	__ZNSaIcEC1Ev
	leaq	-27(%rbp), %rdx
	leaq	LC10(%rip), %rsi
	movq	_AND_STATEMENT@GOTPCREL(%rip), %rdi
LEHB22:
	call	__ZNSsC1EPKcRKSaIcE
LEHE22:
	jmp	L694
L714:
	movq	%rax, -64(%rbp)
L695:
	movq	-64(%rbp), %rbx
	.loc 7 20 0
	leaq	-26(%rbp), %rdi
	call	__ZNSaIcED1Ev
	movq	%rbx, -64(%rbp)
	movq	-64(%rbp), %rdi
LEHB23:
	call	__Unwind_Resume
LEHE23:
L694:
	.loc 7 21 0
	leaq	-27(%rbp), %rdi
	call	__ZNSaIcED1Ev
	movq	___dso_handle@GOTPCREL(%rip), %rdx
	movl	$0, %esi
	movq	___tcf_11@GOTPCREL(%rip), %rdi
	call	___cxa_atexit
	.loc 7 22 0
	leaq	-28(%rbp), %rdi
	call	__ZNSaIcEC1Ev
	leaq	-28(%rbp), %rdx
	leaq	LC11(%rip), %rsi
	movq	_STR_TYPE@GOTPCREL(%rip), %rdi
LEHB24:
	call	__ZNSsC1EPKcRKSaIcE
LEHE24:
	jmp	L696
L713:
	movq	%rax, -64(%rbp)
L697:
	movq	-64(%rbp), %rbx
	.loc 7 21 0
	leaq	-27(%rbp), %rdi
	call	__ZNSaIcED1Ev
	movq	%rbx, -64(%rbp)
	movq	-64(%rbp), %rdi
LEHB25:
	call	__Unwind_Resume
LEHE25:
L696:
	.loc 7 22 0
	leaq	-28(%rbp), %rdi
	call	__ZNSaIcED1Ev
	movq	___dso_handle@GOTPCREL(%rip), %rdx
	movl	$0, %esi
	movq	___tcf_12@GOTPCREL(%rip), %rdi
	call	___cxa_atexit
	.loc 7 23 0
	leaq	-29(%rbp), %rdi
	call	__ZNSaIcEC1Ev
	leaq	-29(%rbp), %rdx
	leaq	LC12(%rip), %rsi
	movq	_INT_TYPE@GOTPCREL(%rip), %rdi
LEHB26:
	call	__ZNSsC1EPKcRKSaIcE
LEHE26:
	jmp	L698
L712:
	movq	%rax, -64(%rbp)
L699:
	movq	-64(%rbp), %rbx
	.loc 7 22 0
	leaq	-28(%rbp), %rdi
	call	__ZNSaIcED1Ev
	movq	%rbx, -64(%rbp)
	movq	-64(%rbp), %rdi
LEHB27:
	call	__Unwind_Resume
LEHE27:
L698:
	.loc 7 23 0
	leaq	-29(%rbp), %rdi
	call	__ZNSaIcED1Ev
	movq	___dso_handle@GOTPCREL(%rip), %rdx
	movl	$0, %esi
	movq	___tcf_13@GOTPCREL(%rip), %rdi
	call	___cxa_atexit
	.loc 7 24 0
	leaq	-30(%rbp), %rdi
	call	__ZNSaIcEC1Ev
	leaq	-30(%rbp), %rdx
	leaq	LC13(%rip), %rsi
	movq	_CND_EQ@GOTPCREL(%rip), %rdi
LEHB28:
	call	__ZNSsC1EPKcRKSaIcE
LEHE28:
	jmp	L700
L711:
	movq	%rax, -64(%rbp)
L701:
	movq	-64(%rbp), %rbx
	.loc 7 23 0
	leaq	-29(%rbp), %rdi
	call	__ZNSaIcED1Ev
	movq	%rbx, -64(%rbp)
	movq	-64(%rbp), %rdi
LEHB29:
	call	__Unwind_Resume
LEHE29:
L700:
	.loc 7 24 0
	leaq	-30(%rbp), %rdi
	call	__ZNSaIcED1Ev
	movq	___dso_handle@GOTPCREL(%rip), %rdx
	movl	$0, %esi
	movq	___tcf_14@GOTPCREL(%rip), %rdi
	call	___cxa_atexit
	.loc 7 25 0
	leaq	-31(%rbp), %rdi
	call	__ZNSaIcEC1Ev
	leaq	-31(%rbp), %rdx
	leaq	LC14(%rip), %rsi
	movq	_CND_GE@GOTPCREL(%rip), %rdi
LEHB30:
	call	__ZNSsC1EPKcRKSaIcE
LEHE30:
	jmp	L702
L710:
	movq	%rax, -64(%rbp)
L703:
	movq	-64(%rbp), %rbx
	.loc 7 24 0
	leaq	-30(%rbp), %rdi
	call	__ZNSaIcED1Ev
	movq	%rbx, -64(%rbp)
	movq	-64(%rbp), %rdi
LEHB31:
	call	__Unwind_Resume
LEHE31:
L702:
	.loc 7 25 0
	leaq	-31(%rbp), %rdi
	call	__ZNSaIcED1Ev
	movq	___dso_handle@GOTPCREL(%rip), %rdx
	movl	$0, %esi
	movq	___tcf_15@GOTPCREL(%rip), %rdi
	call	___cxa_atexit
	.loc 7 26 0
	leaq	-32(%rbp), %rdi
	call	__ZNSaIcEC1Ev
	leaq	-32(%rbp), %rdx
	leaq	LC15(%rip), %rsi
	movq	_CND_LE@GOTPCREL(%rip), %rdi
LEHB32:
	call	__ZNSsC1EPKcRKSaIcE
LEHE32:
	jmp	L704
L709:
	movq	%rax, -64(%rbp)
L705:
	movq	-64(%rbp), %rbx
	.loc 7 25 0
	leaq	-31(%rbp), %rdi
	call	__ZNSaIcED1Ev
	movq	%rbx, -64(%rbp)
	movq	-64(%rbp), %rdi
LEHB33:
	call	__Unwind_Resume
L704:
	.loc 7 26 0
	leaq	-32(%rbp), %rdi
	call	__ZNSaIcED1Ev
	movq	___dso_handle@GOTPCREL(%rip), %rdx
	movl	$0, %esi
	movq	___tcf_16@GOTPCREL(%rip), %rdi
	call	___cxa_atexit
	.loc 7 44 0
	movq	_tables@GOTPCREL(%rip), %rdi
	call	__ZNSt3mapISs5TableSt4lessISsESaISt4pairIKSsS0_EEEC1Ev
	movq	___dso_handle@GOTPCREL(%rip), %rdx
	movl	$0, %esi
	movq	___tcf_17@GOTPCREL(%rip), %rdi
	call	___cxa_atexit
	.loc 7 45 0
	movq	_it@GOTPCREL(%rip), %rdi
	call	__ZNSt17_Rb_tree_iteratorISt4pairIKSs5TableEEC1Ev
	.loc 7 46 0
	movq	_jt@GOTPCREL(%rip), %rdi
	call	__ZNSt17_Rb_tree_iteratorISt4pairIKSsiEEC1Ev
	.loc 7 47 0
	leaq	-33(%rbp), %rdi
	call	__ZNSaISsEC1Ev
	leaq	-33(%rbp), %rsi
	movq	_r@GOTPCREL(%rip), %rdi
	call	__ZNSt6vectorISsSaISsEEC1ERKS0_
	leaq	-33(%rbp), %rdi
	call	__ZNSaISsED1Ev
	movq	___dso_handle@GOTPCREL(%rip), %rdx
	movl	$0, %esi
	movq	___tcf_18@GOTPCREL(%rip), %rdi
	call	___cxa_atexit
	.loc 7 49 0
	movq	_buffer@GOTPCREL(%rip), %rdi
	call	__ZNSsC1Ev
	movq	___dso_handle@GOTPCREL(%rip), %rdx
	movl	$0, %esi
	movq	___tcf_19@GOTPCREL(%rip), %rdi
	call	___cxa_atexit
	.loc 7 51 0
	movq	_sval@GOTPCREL(%rip), %rdi
	call	__ZNSsC1Ev
	movq	___dso_handle@GOTPCREL(%rip), %rdx
	movl	$0, %esi
	movq	___tcf_20@GOTPCREL(%rip), %rdi
	call	___cxa_atexit
	.loc 7 53 0
	movq	_cmd@GOTPCREL(%rip), %rdi
	call	__ZNSsC1Ev
	movq	___dso_handle@GOTPCREL(%rip), %rdx
	movl	$0, %esi
	movq	___tcf_21@GOTPCREL(%rip), %rdi
	call	___cxa_atexit
	.loc 7 54 0
	movq	_tableName@GOTPCREL(%rip), %rdi
	call	__ZNSsC1Ev
	movq	___dso_handle@GOTPCREL(%rip), %rdx
	movl	$0, %esi
	movq	___tcf_22@GOTPCREL(%rip), %rdi
	call	___cxa_atexit
	.loc 7 55 0
	movq	_token@GOTPCREL(%rip), %rdi
	call	__ZNSsC1Ev
	movq	___dso_handle@GOTPCREL(%rip), %rdx
	movl	$0, %esi
	movq	___tcf_23@GOTPCREL(%rip), %rdi
	call	___cxa_atexit
	jmp	L707
L708:
	movq	%rax, -64(%rbp)
L706:
	movq	-64(%rbp), %rbx
	.loc 7 26 0
	leaq	-32(%rbp), %rdi
	call	__ZNSaIcED1Ev
	movq	%rbx, -64(%rbp)
	movq	-64(%rbp), %rdi
	call	__Unwind_Resume
LEHE33:
L707:
	.loc 7 368 0
	addq	$56, %rsp
	popq	%rbx
	leave
	ret
LFE2762:
	.section __TEXT,__gcc_except_tab
GCC_except_table1:
LLSDA2762:
	.byte	0xff
	.byte	0xff
	.byte	0x3
	.byte	0xa0,0x3
	.set L$set$5,LEHB2-LFB2762
	.long L$set$5
	.set L$set$6,LEHE2-LEHB2
	.long L$set$6
	.long	0x0
	.byte	0x0
	.set L$set$7,LEHB3-LFB2762
	.long L$set$7
	.set L$set$8,LEHE3-LEHB3
	.long L$set$8
	.set L$set$9,L723-LFB2762
	.long L$set$9
	.byte	0x0
	.set L$set$10,LEHB4-LFB2762
	.long L$set$10
	.set L$set$11,LEHE4-LEHB4
	.long L$set$11
	.set L$set$12,L722-LFB2762
	.long L$set$12
	.byte	0x0
	.set L$set$13,LEHB5-LFB2762
	.long L$set$13
	.set L$set$14,LEHE5-LEHB5
	.long L$set$14
	.long	0x0
	.byte	0x0
	.set L$set$15,LEHB6-LFB2762
	.long L$set$15
	.set L$set$16,LEHE6-LEHB6
	.long L$set$16
	.set L$set$17,L721-LFB2762
	.long L$set$17
	.byte	0x0
	.set L$set$18,LEHB7-LFB2762
	.long L$set$18
	.set L$set$19,LEHE7-LEHB7
	.long L$set$19
	.long	0x0
	.byte	0x0
	.set L$set$20,LEHB8-LFB2762
	.long L$set$20
	.set L$set$21,LEHE8-LEHB8
	.long L$set$21
	.set L$set$22,L720-LFB2762
	.long L$set$22
	.byte	0x0
	.set L$set$23,LEHB9-LFB2762
	.long L$set$23
	.set L$set$24,LEHE9-LEHB9
	.long L$set$24
	.long	0x0
	.byte	0x0
	.set L$set$25,LEHB10-LFB2762
	.long L$set$25
	.set L$set$26,LEHE10-LEHB10
	.long L$set$26
	.set L$set$27,L719-LFB2762
	.long L$set$27
	.byte	0x0
	.set L$set$28,LEHB11-LFB2762
	.long L$set$28
	.set L$set$29,LEHE11-LEHB11
	.long L$set$29
	.long	0x0
	.byte	0x0
	.set L$set$30,LEHB12-LFB2762
	.long L$set$30
	.set L$set$31,LEHE12-LEHB12
	.long L$set$31
	.set L$set$32,L718-LFB2762
	.long L$set$32
	.byte	0x0
	.set L$set$33,LEHB13-LFB2762
	.long L$set$33
	.set L$set$34,LEHE13-LEHB13
	.long L$set$34
	.long	0x0
	.byte	0x0
	.set L$set$35,LEHB14-LFB2762
	.long L$set$35
	.set L$set$36,LEHE14-LEHB14
	.long L$set$36
	.set L$set$37,L717-LFB2762
	.long L$set$37
	.byte	0x0
	.set L$set$38,LEHB15-LFB2762
	.long L$set$38
	.set L$set$39,LEHE15-LEHB15
	.long L$set$39
	.long	0x0
	.byte	0x0
	.set L$set$40,LEHB16-LFB2762
	.long L$set$40
	.set L$set$41,LEHE16-LEHB16
	.long L$set$41
	.set L$set$42,L716-LFB2762
	.long L$set$42
	.byte	0x0
	.set L$set$43,LEHB17-LFB2762
	.long L$set$43
	.set L$set$44,LEHE17-LEHB17
	.long L$set$44
	.long	0x0
	.byte	0x0
	.set L$set$45,LEHB18-LFB2762
	.long L$set$45
	.set L$set$46,LEHE18-LEHB18
	.long L$set$46
	.set L$set$47,L715-LFB2762
	.long L$set$47
	.byte	0x0
	.set L$set$48,LEHB19-LFB2762
	.long L$set$48
	.set L$set$49,LEHE19-LEHB19
	.long L$set$49
	.long	0x0
	.byte	0x0
	.set L$set$50,LEHB20-LFB2762
	.long L$set$50
	.set L$set$51,LEHE20-LEHB20
	.long L$set$51
	.set L$set$52,L714-LFB2762
	.long L$set$52
	.byte	0x0
	.set L$set$53,LEHB21-LFB2762
	.long L$set$53
	.set L$set$54,LEHE21-LEHB21
	.long L$set$54
	.long	0x0
	.byte	0x0
	.set L$set$55,LEHB22-LFB2762
	.long L$set$55
	.set L$set$56,LEHE22-LEHB22
	.long L$set$56
	.set L$set$57,L713-LFB2762
	.long L$set$57
	.byte	0x0
	.set L$set$58,LEHB23-LFB2762
	.long L$set$58
	.set L$set$59,LEHE23-LEHB23
	.long L$set$59
	.long	0x0
	.byte	0x0
	.set L$set$60,LEHB24-LFB2762
	.long L$set$60
	.set L$set$61,LEHE24-LEHB24
	.long L$set$61
	.set L$set$62,L712-LFB2762
	.long L$set$62
	.byte	0x0
	.set L$set$63,LEHB25-LFB2762
	.long L$set$63
	.set L$set$64,LEHE25-LEHB25
	.long L$set$64
	.long	0x0
	.byte	0x0
	.set L$set$65,LEHB26-LFB2762
	.long L$set$65
	.set L$set$66,LEHE26-LEHB26
	.long L$set$66
	.set L$set$67,L711-LFB2762
	.long L$set$67
	.byte	0x0
	.set L$set$68,LEHB27-LFB2762
	.long L$set$68
	.set L$set$69,LEHE27-LEHB27
	.long L$set$69
	.long	0x0
	.byte	0x0
	.set L$set$70,LEHB28-LFB2762
	.long L$set$70
	.set L$set$71,LEHE28-LEHB28
	.long L$set$71
	.set L$set$72,L710-LFB2762
	.long L$set$72
	.byte	0x0
	.set L$set$73,LEHB29-LFB2762
	.long L$set$73
	.set L$set$74,LEHE29-LEHB29
	.long L$set$74
	.long	0x0
	.byte	0x0
	.set L$set$75,LEHB30-LFB2762
	.long L$set$75
	.set L$set$76,LEHE30-LEHB30
	.long L$set$76
	.set L$set$77,L709-LFB2762
	.long L$set$77
	.byte	0x0
	.set L$set$78,LEHB31-LFB2762
	.long L$set$78
	.set L$set$79,LEHE31-LEHB31
	.long L$set$79
	.long	0x0
	.byte	0x0
	.set L$set$80,LEHB32-LFB2762
	.long L$set$80
	.set L$set$81,LEHE32-LEHB32
	.long L$set$81
	.set L$set$82,L708-LFB2762
	.long L$set$82
	.byte	0x0
	.set L$set$83,LEHB33-LFB2762
	.long L$set$83
	.set L$set$84,LEHE33-LEHB33
	.long L$set$84
	.long	0x0
	.byte	0x0
	.section __TEXT,__StaticInit,regular,pure_instructions
__GLOBAL__I_SELECT_CMD:
LFB2790:
	.loc 7 369 0
	nop
	nop
	nop
	nop
	nop
	nop
	pushq	%rbp
LCFI759:
	movq	%rsp, %rbp
LCFI760:
	.loc 7 369 0
	movl	$65535, %esi
	movl	$1, %edi
	call	__Z41__static_initialization_and_destruction_0ii
	leave
	ret
LFE2790:
	.text
.globl __Z9nextTokenv
__Z9nextTokenv:
LFB1990:
	.loc 7 63 0
	nop
	nop
	nop
	nop
	nop
	nop
	pushq	%rbp
LCFI761:
	movq	%rsp, %rbp
LCFI762:
	pushq	%rbx
LCFI763:
	subq	$40, %rsp
LCFI764:
LBB54:
	.loc 7 64 0
	movq	_bi@GOTPCREL(%rip), %rax
	movl	(%rax), %eax
	movl	%eax, -20(%rbp)
	movl	$0, -24(%rbp)
	.loc 7 65 0
	jmp	L727
L728:
	.loc 7 66 0
	movq	_bi@GOTPCREL(%rip), %rax
	movl	(%rax), %eax
	leal	1(%rax), %edx
	movq	_bi@GOTPCREL(%rip), %rax
	movl	%edx, (%rax)
	.loc 7 67 0
	incl	-24(%rbp)
L727:
	.loc 7 65 0
	movq	_bi@GOTPCREL(%rip), %rax
	movl	(%rax), %eax
	movslq	%eax,%rbx
	movq	_buffer@GOTPCREL(%rip), %rdi
LEHB34:
	call	__ZNKSs6lengthEv
	cmpq	%rax, %rbx
	jae	L729
	movq	_bi@GOTPCREL(%rip), %rax
	movl	(%rax), %eax
	movslq	%eax,%rsi
	movq	_buffer@GOTPCREL(%rip), %rdi
	call	__ZNSs2atEm
	movzbl	(%rax), %eax
	cmpb	$32, %al
	je	L729
	movb	$1, -33(%rbp)
	jmp	L732
L729:
	movb	$0, -33(%rbp)
L732:
	movzbl	-33(%rbp), %eax
	testb	%al, %al
	jne	L728
	.loc 7 69 0
	movl	-24(%rbp), %eax
	movslq	%eax,%rcx
	movl	-20(%rbp), %eax
	movslq	%eax,%rdx
	leaq	-32(%rbp), %rdi
	movq	_buffer@GOTPCREL(%rip), %rsi
	call	__ZNKSs6substrEmm
LEHE34:
	leaq	-32(%rbp), %rsi
	movq	_sval@GOTPCREL(%rip), %rdi
LEHB35:
	call	__ZNSsaSERKSs
LEHE35:
	leaq	-32(%rbp), %rdi
LEHB36:
	call	__ZNSsD1Ev
LEHE36:
	.loc 7 70 0
	jmp	L735
L736:
	movq	%rax, -48(%rbp)
L734:
	movq	-48(%rbp), %rbx
	.loc 7 69 0
	leaq	-32(%rbp), %rdi
	call	__ZNSsD1Ev
	movq	%rbx, -48(%rbp)
	movq	-48(%rbp), %rdi
LEHB37:
	call	__Unwind_Resume
LEHE37:
L735:
LBE54:
	.loc 7 70 0
	addq	$40, %rsp
	popq	%rbx
	leave
	ret
LFE1990:
	.section __TEXT,__gcc_except_tab
GCC_except_table2:
LLSDA1990:
	.byte	0xff
	.byte	0xff
	.byte	0x3
	.byte	0x34
	.set L$set$85,LEHB34-LFB1990
	.long L$set$85
	.set L$set$86,LEHE34-LEHB34
	.long L$set$86
	.long	0x0
	.byte	0x0
	.set L$set$87,LEHB35-LFB1990
	.long L$set$87
	.set L$set$88,LEHE35-LEHB35
	.long L$set$88
	.set L$set$89,L736-LFB1990
	.long L$set$89
	.byte	0x0
	.set L$set$90,LEHB36-LFB1990
	.long L$set$90
	.set L$set$91,LEHE36-LEHB36
	.long L$set$91
	.long	0x0
	.byte	0x0
	.set L$set$92,LEHB37-LFB1990
	.long L$set$92
	.set L$set$93,LEHE37-LEHB37
	.long L$set$93
	.long	0x0
	.byte	0x0
	.text
	.section __TEXT,__textcoal_nt,coalesced,pure_instructions
	.align 1
.globl __ZN9__gnu_cxx13new_allocatorISsE10deallocateEPSsm
	.weak_definition __ZN9__gnu_cxx13new_allocatorISsE10deallocateEPSsm
	.private_extern __ZN9__gnu_cxx13new_allocatorISsE10deallocateEPSsm
__ZN9__gnu_cxx13new_allocatorISsE10deallocateEPSsm:
LFB2524:
	.loc 10 96 0
	nop
	nop
	nop
	nop
	nop
	nop
	pushq	%rbp
LCFI765:
	movq	%rsp, %rbp
LCFI766:
	subq	$32, %rsp
LCFI767:
	movq	%rdi, -8(%rbp)
	movq	%rsi, -16(%rbp)
	movq	%rdx, -24(%rbp)
	.loc 10 97 0
	movq	-16(%rbp), %rdi
	call	__ZdlPv
	leave
	ret
LFE2524:
	.align 1
.globl __ZNSt12_Vector_baseISsSaISsEE13_M_deallocateEPSsm
	.weak_definition __ZNSt12_Vector_baseISsSaISsEE13_M_deallocateEPSsm
	.private_extern __ZNSt12_Vector_baseISsSaISsEE13_M_deallocateEPSsm
__ZNSt12_Vector_baseISsSaISsEE13_M_deallocateEPSsm:
LFB2327:
	.loc 8 134 0
	nop
	nop
	nop
	nop
	nop
	nop
	pushq	%rbp
LCFI768:
	movq	%rsp, %rbp
LCFI769:
	subq	$32, %rsp
LCFI770:
	movq	%rdi, -8(%rbp)
	movq	%rsi, -16(%rbp)
	movq	%rdx, -24(%rbp)
	.loc 8 136 0
	cmpq	$0, -16(%rbp)
	je	L742
	.loc 8 137 0
	movq	-8(%rbp), %rax
	movq	%rax, %rdi
	movq	-24(%rbp), %rdx
	movq	-16(%rbp), %rsi
	call	__ZN9__gnu_cxx13new_allocatorISsE10deallocateEPSsm
L742:
	leave
	ret
LFE2327:
	.align 1
.globl __ZNSt12_Vector_baseISsSaISsEED2Ev
	.weak_definition __ZNSt12_Vector_baseISsSaISsEED2Ev
	.private_extern __ZNSt12_Vector_baseISsSaISsEED2Ev
__ZNSt12_Vector_baseISsSaISsEED2Ev:
LFB2253:
	.loc 8 122 0
	nop
	nop
	nop
	nop
	nop
	nop
	pushq	%rbp
LCFI771:
	movq	%rsp, %rbp
LCFI772:
	subq	$16, %rsp
LCFI773:
	movq	%rdi, -8(%rbp)
	.loc 8 123 0
	movq	-8(%rbp), %rax
	movq	16(%rax), %rax
	movq	%rax, %rdx
	movq	-8(%rbp), %rax
	movq	(%rax), %rax
	movq	%rdx, %rcx
	subq	%rax, %rcx
	movq	%rcx, %rax
	sarq	$3, %rax
	movq	%rax, %rdx
	movq	-8(%rbp), %rax
	movq	(%rax), %rsi
	movq	-8(%rbp), %rdi
	call	__ZNSt12_Vector_baseISsSaISsEE13_M_deallocateEPSsm
	movq	-8(%rbp), %rdi
	call	__ZNSt12_Vector_baseISsSaISsEE12_Vector_implD1Ev
	leave
	ret
LFE2253:
	.align 1
.globl __ZNSt6vectorISsSaISsEED1Ev
	.weak_definition __ZNSt6vectorISsSaISsEED1Ev
	.private_extern __ZNSt6vectorISsSaISsEED1Ev
__ZNSt6vectorISsSaISsEED1Ev:
LFB2089:
	.loc 8 270 0
	nop
	nop
	nop
	nop
	nop
	nop
	pushq	%rbp
LCFI774:
	movq	%rsp, %rbp
LCFI775:
	pushq	%rbx
LCFI776:
	subq	$56, %rsp
LCFI777:
	movq	%rdi, -40(%rbp)
	.loc 8 271 0
	movq	-40(%rbp), %rdi
	call	__ZNSt12_Vector_baseISsSaISsEE19_M_get_Tp_allocatorEv
	movq	%rax, %rsi
	leaq	-17(%rbp), %rdi
	call	__ZNSaISsEC1ERKS_
	movq	-40(%rbp), %rax
	movq	8(%rax), %rsi
	movq	-40(%rbp), %rax
	movq	(%rax), %rdi
	leaq	-17(%rbp), %rdx
LEHB38:
	call	__ZSt8_DestroyIPSsSsEvT_S1_SaIT0_E
LEHE38:
	leaq	-17(%rbp), %rdi
	call	__ZNSaISsED1Ev
	movq	-40(%rbp), %rax
	movq	%rax, -48(%rbp)
	movq	-48(%rbp), %rdi
	call	__ZNSt12_Vector_baseISsSaISsEED2Ev
	jmp	L750
L751:
	movq	%rax, -56(%rbp)
L748:
	movq	-56(%rbp), %rbx
	leaq	-17(%rbp), %rdi
	call	__ZNSaISsED1Ev
	movq	%rbx, -56(%rbp)
L752:
L749:
	movq	-56(%rbp), %rbx
	movq	-40(%rbp), %rax
	movq	%rax, -48(%rbp)
	movq	-48(%rbp), %rdi
	call	__ZNSt12_Vector_baseISsSaISsEED2Ev
	movq	%rbx, -56(%rbp)
	movq	-56(%rbp), %rdi
LEHB39:
	call	__Unwind_Resume
LEHE39:
L750:
	addq	$56, %rsp
	popq	%rbx
	leave
	ret
LFE2089:
	.section __TEXT,__gcc_except_tab
GCC_except_table3:
LLSDA2089:
	.byte	0xff
	.byte	0xff
	.byte	0x3
	.byte	0x1a
	.set L$set$94,LEHB38-LFB2089
	.long L$set$94
	.set L$set$95,LEHE38-LEHB38
	.long L$set$95
	.set L$set$96,L751-LFB2089
	.long L$set$96
	.byte	0x0
	.set L$set$97,LEHB39-LFB2089
	.long L$set$97
	.set L$set$98,LEHE39-LEHB39
	.long L$set$98
	.long	0x0
	.byte	0x0
	.section __TEXT,__textcoal_nt,coalesced,pure_instructions
	.text
___tcf_18:
LFB2784:
	.loc 7 47 0
	nop
	nop
	nop
	nop
	nop
	nop
	pushq	%rbp
LCFI778:
	movq	%rsp, %rbp
LCFI779:
	subq	$16, %rsp
LCFI780:
	movq	%rdi, -8(%rbp)
	.loc 7 47 0
	movq	_r@GOTPCREL(%rip), %rdi
	call	__ZNSt6vectorISsSaISsEED1Ev
	leave
	ret
LFE2784:
	.section __TEXT,__textcoal_nt,coalesced,pure_instructions
.globl __ZSt8_DestroyISt6vectorISsSaISsEEEvPT_
	.weak_definition __ZSt8_DestroyISt6vectorISsSaISsEEEvPT_
__ZSt8_DestroyISt6vectorISsSaISsEEEvPT_:
LFB2691:
	.loc 16 106 0
	nop
	nop
	nop
	nop
	nop
	nop
	pushq	%rbp
LCFI781:
	movq	%rsp, %rbp
LCFI782:
	subq	$16, %rsp
LCFI783:
	movq	%rdi, -8(%rbp)
	.loc 16 107 0
	movq	-8(%rbp), %rdi
	call	__ZNSt6vectorISsSaISsEED1Ev
	leave
	ret
LFE2691:
.globl __ZSt13__destroy_auxIPSt6vectorISsSaISsEEEvT_S4_St12__false_type
	.weak_definition __ZSt13__destroy_auxIPSt6vectorISsSaISsEEEvT_S4_St12__false_type
__ZSt13__destroy_auxIPSt6vectorISsSaISsEEEvT_S4_St12__false_type:
LFB2600:
	.loc 16 119 0
	nop
	nop
	nop
	nop
	nop
	nop
	pushq	%rbp
LCFI784:
	movq	%rsp, %rbp
LCFI785:
	subq	$16, %rsp
LCFI786:
	movq	%rdi, -8(%rbp)
	movq	%rsi, -16(%rbp)
	.loc 16 121 0
	jmp	L758
L759:
	.loc 16 122 0
	movq	-8(%rbp), %rdi
	call	__ZSt8_DestroyISt6vectorISsSaISsEEEvPT_
	.loc 16 121 0
	addq	$24, -8(%rbp)
L758:
	movq	-8(%rbp), %rax
	cmpq	-16(%rbp), %rax
	jne	L759
	.loc 16 122 0
	leave
	ret
LFE2600:
.globl __ZSt8_DestroyIPSt6vectorISsSaISsEEEvT_S4_
	.weak_definition __ZSt8_DestroyIPSt6vectorISsSaISsEEEvT_S4_
__ZSt8_DestroyIPSt6vectorISsSaISsEEEvT_S4_:
LFB2431:
	.loc 16 148 0
	nop
	nop
	nop
	nop
	nop
	nop
	pushq	%rbp
LCFI787:
	movq	%rsp, %rbp
LCFI788:
	subq	$48, %rsp
LCFI789:
	movq	%rdi, -8(%rbp)
	movq	%rsi, -16(%rbp)
LBB55:
	.loc 16 155 0
	movq	-16(%rbp), %rsi
	movq	-8(%rbp), %rdi
	movzbl	-17(%rbp), %eax
	movb	%al, (%rsp)
	call	__ZSt13__destroy_auxIPSt6vectorISsSaISsEEEvT_S4_St12__false_type
LBE55:
	leave
	ret
LFE2431:
.globl __ZSt8_DestroyIPSt6vectorISsSaISsEES2_EvT_S4_SaIT0_E
	.weak_definition __ZSt8_DestroyIPSt6vectorISsSaISsEES2_EvT_S4_SaIT0_E
__ZSt8_DestroyIPSt6vectorISsSaISsEES2_EvT_S4_SaIT0_E:
LFB2215:
	.loc 16 180 0
	nop
	nop
	nop
	nop
	nop
	nop
	pushq	%rbp
LCFI790:
	movq	%rsp, %rbp
LCFI791:
	subq	$32, %rsp
LCFI792:
	movq	%rdi, -8(%rbp)
	movq	%rsi, -16(%rbp)
	movq	%rdx, -24(%rbp)
	.loc 16 182 0
	movq	-16(%rbp), %rsi
	movq	-8(%rbp), %rdi
	call	__ZSt8_DestroyIPSt6vectorISsSaISsEEEvT_S4_
	leave
	ret
LFE2215:
	.align 1
.globl __ZNSt6vectorIS_ISsSaISsEESaIS1_EE15_M_erase_at_endEPS1_
	.weak_definition __ZNSt6vectorIS_ISsSaISsEESaIS1_EE15_M_erase_at_endEPS1_
	.private_extern __ZNSt6vectorIS_ISsSaISsEESaIS1_EE15_M_erase_at_endEPS1_
__ZNSt6vectorIS_ISsSaISsEESaIS1_EE15_M_erase_at_endEPS1_:
LFB2218:
	.loc 8 922 0
	nop
	nop
	nop
	nop
	nop
	nop
	pushq	%rbp
LCFI793:
	movq	%rsp, %rbp
LCFI794:
	pushq	%rbx
LCFI795:
	subq	$56, %rsp
LCFI796:
	movq	%rdi, -40(%rbp)
	movq	%rsi, -48(%rbp)
	.loc 8 924 0
	movq	-40(%rbp), %rdi
	call	__ZNSt12_Vector_baseISt6vectorISsSaISsEESaIS2_EE19_M_get_Tp_allocatorEv
	movq	%rax, %rsi
	leaq	-17(%rbp), %rdi
	call	__ZNSaISt6vectorISsSaISsEEEC1ERKS2_
	movq	-40(%rbp), %rax
	movq	8(%rax), %rsi
	leaq	-17(%rbp), %rdx
	movq	-48(%rbp), %rdi
LEHB40:
	call	__ZSt8_DestroyIPSt6vectorISsSaISsEES2_EvT_S4_SaIT0_E
LEHE40:
	leaq	-17(%rbp), %rdi
	call	__ZNSaISt6vectorISsSaISsEEED1Ev
	.loc 8 925 0
	movq	-40(%rbp), %rdx
	movq	-48(%rbp), %rax
	movq	%rax, 8(%rdx)
	jmp	L768
L769:
	movq	%rax, -56(%rbp)
L767:
	movq	-56(%rbp), %rbx
	.loc 8 924 0
	leaq	-17(%rbp), %rdi
	call	__ZNSaISt6vectorISsSaISsEEED1Ev
	movq	%rbx, -56(%rbp)
	movq	-56(%rbp), %rdi
LEHB41:
	call	__Unwind_Resume
LEHE41:
L768:
	.loc 8 925 0
	addq	$56, %rsp
	popq	%rbx
	leave
	ret
LFE2218:
	.section __TEXT,__gcc_except_tab
GCC_except_table4:
LLSDA2218:
	.byte	0xff
	.byte	0xff
	.byte	0x3
	.byte	0x1a
	.set L$set$99,LEHB40-LFB2218
	.long L$set$99
	.set L$set$100,LEHE40-LEHB40
	.long L$set$100
	.set L$set$101,L769-LFB2218
	.long L$set$101
	.byte	0x0
	.set L$set$102,LEHB41-LFB2218
	.long L$set$102
	.set L$set$103,LEHE41-LEHB41
	.long L$set$103
	.long	0x0
	.byte	0x0
	.section __TEXT,__textcoal_nt,coalesced,pure_instructions
	.align 1
.globl __ZNSt6vectorIS_ISsSaISsEESaIS1_EE5clearEv
	.weak_definition __ZNSt6vectorIS_ISsSaISsEESaIS1_EE5clearEv
	.private_extern __ZNSt6vectorIS_ISsSaISsEESaIS1_EE5clearEv
__ZNSt6vectorIS_ISsSaISsEESaIS1_EE5clearEv:
LFB2039:
	.loc 8 751 0
	nop
	nop
	nop
	nop
	nop
	nop
	pushq	%rbp
LCFI797:
	movq	%rsp, %rbp
LCFI798:
	subq	$16, %rsp
LCFI799:
	movq	%rdi, -8(%rbp)
	.loc 8 752 0
	movq	-8(%rbp), %rax
	movq	(%rax), %rsi
	movq	-8(%rbp), %rdi
	call	__ZNSt6vectorIS_ISsSaISsEESaIS1_EE15_M_erase_at_endEPS1_
	leave
	ret
LFE2039:
.globl __ZSt13__destroy_auxIN9__gnu_cxx17__normal_iteratorIPSt6vectorISsSaISsEES2_IS4_SaIS4_EEEEEvT_S9_St12__false_type
	.weak_definition __ZSt13__destroy_auxIN9__gnu_cxx17__normal_iteratorIPSt6vectorISsSaISsEES2_IS4_SaIS4_EEEEEvT_S9_St12__false_type
__ZSt13__destroy_auxIN9__gnu_cxx17__normal_iteratorIPSt6vectorISsSaISsEES2_IS4_SaIS4_EEEEEvT_S9_St12__false_type:
LFB2675:
	.loc 16 119 0
	nop
	nop
	nop
	nop
	nop
	nop
	pushq	%rbp
LCFI800:
	movq	%rsp, %rbp
LCFI801:
	subq	$16, %rsp
LCFI802:
	movq	%rdi, -8(%rbp)
	movq	%rsi, -16(%rbp)
	.loc 16 121 0
	jmp	L773
L774:
	.loc 16 122 0
	leaq	-8(%rbp), %rdi
	call	__ZNK9__gnu_cxx17__normal_iteratorIPSt6vectorISsSaISsEES1_IS3_SaIS3_EEEdeEv
	movq	%rax, %rdi
	call	__ZSt8_DestroyISt6vectorISsSaISsEEEvPT_
	.loc 16 121 0
	leaq	-8(%rbp), %rdi
	call	__ZN9__gnu_cxx17__normal_iteratorIPSt6vectorISsSaISsEES1_IS3_SaIS3_EEEppEv
L773:
	leaq	-16(%rbp), %rsi
	leaq	-8(%rbp), %rdi
	call	__ZN9__gnu_cxxneIPSt6vectorISsSaISsEES1_IS3_SaIS3_EEEEbRKNS_17__normal_iteratorIT_T0_EESC_
	testb	%al, %al
	jne	L774
	.loc 16 122 0
	leave
	ret
LFE2675:
.globl __ZSt8_DestroyIN9__gnu_cxx17__normal_iteratorIPSt6vectorISsSaISsEES2_IS4_SaIS4_EEEEEvT_S9_
	.weak_definition __ZSt8_DestroyIN9__gnu_cxx17__normal_iteratorIPSt6vectorISsSaISsEES2_IS4_SaIS4_EEEEEvT_S9_
__ZSt8_DestroyIN9__gnu_cxx17__normal_iteratorIPSt6vectorISsSaISsEES2_IS4_SaIS4_EEEEEvT_S9_:
LFB2584:
	.loc 16 148 0
	nop
	nop
	nop
	nop
	nop
	nop
	pushq	%rbp
LCFI803:
	movq	%rsp, %rbp
LCFI804:
	subq	$48, %rsp
LCFI805:
	movq	%rdi, -8(%rbp)
	movq	%rsi, -16(%rbp)
LBB56:
	.loc 16 155 0
	movq	-16(%rbp), %rsi
	movq	-8(%rbp), %rdi
	movzbl	-17(%rbp), %eax
	movb	%al, (%rsp)
	call	__ZSt13__destroy_auxIN9__gnu_cxx17__normal_iteratorIPSt6vectorISsSaISsEES2_IS4_SaIS4_EEEEEvT_S9_St12__false_type
LBE56:
	leave
	ret
LFE2584:
.globl __ZSt8_DestroyIN9__gnu_cxx17__normal_iteratorIPSt6vectorISsSaISsEES2_IS4_SaIS4_EEEES4_EvT_S9_SaIT0_E
	.weak_definition __ZSt8_DestroyIN9__gnu_cxx17__normal_iteratorIPSt6vectorISsSaISsEES2_IS4_SaIS4_EEEES4_EvT_S9_SaIT0_E
__ZSt8_DestroyIN9__gnu_cxx17__normal_iteratorIPSt6vectorISsSaISsEES2_IS4_SaIS4_EEEES4_EvT_S9_SaIT0_E:
LFB2412:
	.loc 16 180 0
	nop
	nop
	nop
	nop
	nop
	nop
	pushq	%rbp
LCFI806:
	movq	%rsp, %rbp
LCFI807:
	subq	$32, %rsp
LCFI808:
	movq	%rdi, -8(%rbp)
	movq	%rsi, -16(%rbp)
	movq	%rdx, -24(%rbp)
	.loc 16 182 0
	movq	-16(%rbp), %rsi
	movq	-8(%rbp), %rdi
	call	__ZSt8_DestroyIN9__gnu_cxx17__normal_iteratorIPSt6vectorISsSaISsEES2_IS4_SaIS4_EEEEEvT_S9_
	leave
	ret
LFE2412:
	.align 1
.globl __ZN9__gnu_cxx13new_allocatorISt13_Rb_tree_nodeISt4pairIKSsiEEE10deallocateEPS5_m
	.weak_definition __ZN9__gnu_cxx13new_allocatorISt13_Rb_tree_nodeISt4pairIKSsiEEE10deallocateEPS5_m
	.private_extern __ZN9__gnu_cxx13new_allocatorISt13_Rb_tree_nodeISt4pairIKSsiEEE10deallocateEPS5_m
__ZN9__gnu_cxx13new_allocatorISt13_Rb_tree_nodeISt4pairIKSsiEEE10deallocateEPS5_m:
LFB2686:
	.loc 10 96 0
	nop
	nop
	nop
	nop
	nop
	nop
	pushq	%rbp
LCFI809:
	movq	%rsp, %rbp
LCFI810:
	subq	$32, %rsp
LCFI811:
	movq	%rdi, -8(%rbp)
	movq	%rsi, -16(%rbp)
	movq	%rdx, -24(%rbp)
	.loc 10 97 0
	movq	-16(%rbp), %rdi
	call	__ZdlPv
	leave
	ret
LFE2686:
	.align 1
.globl __ZNSt8_Rb_treeISsSt4pairIKSsiESt10_Select1stIS2_ESt4lessISsESaIS2_EE11_M_put_nodeEPSt13_Rb_tree_nodeIS2_E
	.weak_definition __ZNSt8_Rb_treeISsSt4pairIKSsiESt10_Select1stIS2_ESt4lessISsESaIS2_EE11_M_put_nodeEPSt13_Rb_tree_nodeIS2_E
	.private_extern __ZNSt8_Rb_treeISsSt4pairIKSsiESt10_Select1stIS2_ESt4lessISsESaIS2_EE11_M_put_nodeEPSt13_Rb_tree_nodeIS2_E
__ZNSt8_Rb_treeISsSt4pairIKSsiESt10_Select1stIS2_ESt4lessISsESaIS2_EE11_M_put_nodeEPSt13_Rb_tree_nodeIS2_E:
LFB2596:
	.loc 3 372 0
	nop
	nop
	nop
	nop
	nop
	nop
	pushq	%rbp
LCFI812:
	movq	%rsp, %rbp
LCFI813:
	subq	$16, %rsp
LCFI814:
	movq	%rdi, -8(%rbp)
	movq	%rsi, -16(%rbp)
	.loc 3 373 0
	movq	-8(%rbp), %rax
	movq	%rax, %rdi
	movq	-16(%rbp), %rsi
	movl	$1, %edx
	call	__ZN9__gnu_cxx13new_allocatorISt13_Rb_tree_nodeISt4pairIKSsiEEE10deallocateEPS5_m
	leave
	ret
LFE2596:
	.align 1
.globl __ZNSt8_Rb_treeISsSt4pairIKSsiESt10_Select1stIS2_ESt4lessISsESaIS2_EE15_M_destroy_nodeEPSt13_Rb_tree_nodeIS2_E
	.weak_definition __ZNSt8_Rb_treeISsSt4pairIKSsiESt10_Select1stIS2_ESt4lessISsESaIS2_EE15_M_destroy_nodeEPSt13_Rb_tree_nodeIS2_E
	.private_extern __ZNSt8_Rb_treeISsSt4pairIKSsiESt10_Select1stIS2_ESt4lessISsESaIS2_EE15_M_destroy_nodeEPSt13_Rb_tree_nodeIS2_E
__ZNSt8_Rb_treeISsSt4pairIKSsiESt10_Select1stIS2_ESt4lessISsESaIS2_EE15_M_destroy_nodeEPSt13_Rb_tree_nodeIS2_E:
LFB2424:
	.loc 3 400 0
	nop
	nop
	nop
	nop
	nop
	nop
	pushq	%rbp
LCFI815:
	movq	%rsp, %rbp
LCFI816:
	pushq	%rbx
LCFI817:
	subq	$56, %rsp
LCFI818:
	movq	%rdi, -40(%rbp)
	movq	%rsi, -48(%rbp)
	.loc 3 402 0
	movq	-48(%rbp), %rbx
	addq	$32, %rbx
	leaq	-17(%rbp), %rdi
	movq	-40(%rbp), %rsi
	call	__ZNKSt8_Rb_treeISsSt4pairIKSsiESt10_Select1stIS2_ESt4lessISsESaIS2_EE13get_allocatorEv
	leaq	-17(%rbp), %rdi
	movq	%rbx, %rsi
LEHB42:
	call	__ZN9__gnu_cxx13new_allocatorISt4pairIKSsiEE7destroyEPS3_
LEHE42:
	leaq	-17(%rbp), %rdi
	call	__ZNSaISt4pairIKSsiEED1Ev
	.loc 3 403 0
	movq	-48(%rbp), %rsi
	movq	-40(%rbp), %rdi
	call	__ZNSt8_Rb_treeISsSt4pairIKSsiESt10_Select1stIS2_ESt4lessISsESaIS2_EE11_M_put_nodeEPSt13_Rb_tree_nodeIS2_E
	jmp	L787
L788:
	movq	%rax, -56(%rbp)
L786:
	movq	-56(%rbp), %rbx
	.loc 3 402 0
	leaq	-17(%rbp), %rdi
	call	__ZNSaISt4pairIKSsiEED1Ev
	movq	%rbx, -56(%rbp)
	movq	-56(%rbp), %rdi
LEHB43:
	call	__Unwind_Resume
LEHE43:
L787:
	.loc 3 403 0
	addq	$56, %rsp
	popq	%rbx
	leave
	ret
LFE2424:
	.section __TEXT,__gcc_except_tab
GCC_except_table5:
LLSDA2424:
	.byte	0xff
	.byte	0xff
	.byte	0x3
	.byte	0x1a
	.set L$set$104,LEHB42-LFB2424
	.long L$set$104
	.set L$set$105,LEHE42-LEHB42
	.long L$set$105
	.set L$set$106,L788-LFB2424
	.long L$set$106
	.byte	0x0
	.set L$set$107,LEHB43-LFB2424
	.long L$set$107
	.set L$set$108,LEHE43-LEHB43
	.long L$set$108
	.long	0x0
	.byte	0x0
	.section __TEXT,__textcoal_nt,coalesced,pure_instructions
	.align 1
.globl __ZNSt8_Rb_treeISsSt4pairIKSsiESt10_Select1stIS2_ESt4lessISsESaIS2_EE8_M_eraseEPSt13_Rb_tree_nodeIS2_E
	.weak_definition __ZNSt8_Rb_treeISsSt4pairIKSsiESt10_Select1stIS2_ESt4lessISsESaIS2_EE8_M_eraseEPSt13_Rb_tree_nodeIS2_E
__ZNSt8_Rb_treeISsSt4pairIKSsiESt10_Select1stIS2_ESt4lessISsESaIS2_EE8_M_eraseEPSt13_Rb_tree_nodeIS2_E:
LFB2201:
	.loc 3 1320 0
	nop
	nop
	nop
	nop
	nop
	nop
	pushq	%rbp
LCFI819:
	movq	%rsp, %rbp
LCFI820:
	subq	$32, %rsp
LCFI821:
	movq	%rdi, -24(%rbp)
	movq	%rsi, -32(%rbp)
LBB57:
LBB58:
	.loc 3 1323 0
	jmp	L790
L791:
	.loc 3 1325 0
	movq	-32(%rbp), %rdi
	call	__ZNSt8_Rb_treeISsSt4pairIKSsiESt10_Select1stIS2_ESt4lessISsESaIS2_EE8_S_rightEPSt18_Rb_tree_node_base
	movq	%rax, %rsi
	movq	-24(%rbp), %rdi
	call	__ZNSt8_Rb_treeISsSt4pairIKSsiESt10_Select1stIS2_ESt4lessISsESaIS2_EE8_M_eraseEPSt13_Rb_tree_nodeIS2_E
	.loc 3 1326 0
	movq	-32(%rbp), %rdi
	call	__ZNSt8_Rb_treeISsSt4pairIKSsiESt10_Select1stIS2_ESt4lessISsESaIS2_EE7_S_leftEPSt18_Rb_tree_node_base
	movq	%rax, -8(%rbp)
	.loc 3 1327 0
	movq	-32(%rbp), %rsi
	movq	-24(%rbp), %rdi
	call	__ZNSt8_Rb_treeISsSt4pairIKSsiESt10_Select1stIS2_ESt4lessISsESaIS2_EE15_M_destroy_nodeEPSt13_Rb_tree_nodeIS2_E
	.loc 3 1328 0
	movq	-8(%rbp), %rax
	movq	%rax, -32(%rbp)
L790:
LBE58:
	.loc 3 1323 0
	cmpq	$0, -32(%rbp)
	jne	L791
LBE57:
	.loc 3 1328 0
	leave
	ret
LFE2201:
	.align 1
.globl __ZNSt8_Rb_treeISsSt4pairIKSsiESt10_Select1stIS2_ESt4lessISsESaIS2_EE5clearEv
	.weak_definition __ZNSt8_Rb_treeISsSt4pairIKSsiESt10_Select1stIS2_ESt4lessISsESaIS2_EE5clearEv
	.private_extern __ZNSt8_Rb_treeISsSt4pairIKSsiESt10_Select1stIS2_ESt4lessISsESaIS2_EE5clearEv
__ZNSt8_Rb_treeISsSt4pairIKSsiESt10_Select1stIS2_ESt4lessISsESaIS2_EE5clearEv:
LFB2216:
	.loc 3 711 0
	nop
	nop
	nop
	nop
	nop
	nop
	pushq	%rbp
LCFI822:
	movq	%rsp, %rbp
LCFI823:
	pushq	%rbx
LCFI824:
	subq	$24, %rsp
LCFI825:
	movq	%rdi, -24(%rbp)
	.loc 3 713 0
	movq	-24(%rbp), %rdi
	call	__ZNSt8_Rb_treeISsSt4pairIKSsiESt10_Select1stIS2_ESt4lessISsESaIS2_EE8_M_beginEv
	movq	%rax, %rsi
	movq	-24(%rbp), %rdi
	call	__ZNSt8_Rb_treeISsSt4pairIKSsiESt10_Select1stIS2_ESt4lessISsESaIS2_EE8_M_eraseEPSt13_Rb_tree_nodeIS2_E
	.loc 3 714 0
	movq	-24(%rbp), %rdi
	call	__ZNSt8_Rb_treeISsSt4pairIKSsiESt10_Select1stIS2_ESt4lessISsESaIS2_EE11_M_leftmostEv
	movq	%rax, %rbx
	movq	-24(%rbp), %rdi
	call	__ZNSt8_Rb_treeISsSt4pairIKSsiESt10_Select1stIS2_ESt4lessISsESaIS2_EE6_M_endEv
	movq	%rax, (%rbx)
	.loc 3 715 0
	movq	-24(%rbp), %rdi
	call	__ZNSt8_Rb_treeISsSt4pairIKSsiESt10_Select1stIS2_ESt4lessISsESaIS2_EE7_M_rootEv
	movq	$0, (%rax)
	.loc 3 716 0
	movq	-24(%rbp), %rdi
	call	__ZNSt8_Rb_treeISsSt4pairIKSsiESt10_Select1stIS2_ESt4lessISsESaIS2_EE12_M_rightmostEv
	movq	%rax, %rbx
	movq	-24(%rbp), %rdi
	call	__ZNSt8_Rb_treeISsSt4pairIKSsiESt10_Select1stIS2_ESt4lessISsESaIS2_EE6_M_endEv
	movq	%rax, (%rbx)
	.loc 3 717 0
	movq	-24(%rbp), %rax
	movq	$0, 40(%rax)
	addq	$24, %rsp
	popq	%rbx
	leave
	ret
LFE2216:
	.align 1
.globl __ZNSt3mapISsiSt4lessISsESaISt4pairIKSsiEEE5clearEv
	.weak_definition __ZNSt3mapISsiSt4lessISsESaISt4pairIKSsiEEE5clearEv
	.private_extern __ZNSt3mapISsiSt4lessISsESaISt4pairIKSsiEEE5clearEv
__ZNSt3mapISsiSt4lessISsESaISt4pairIKSsiEEE5clearEv:
LFB2037:
	.loc 13 508 0
	nop
	nop
	nop
	nop
	nop
	nop
	pushq	%rbp
LCFI826:
	movq	%rsp, %rbp
LCFI827:
	subq	$16, %rsp
LCFI828:
	movq	%rdi, -8(%rbp)
	.loc 13 509 0
	movq	-8(%rbp), %rdi
	call	__ZNSt8_Rb_treeISsSt4pairIKSsiESt10_Select1stIS2_ESt4lessISsESaIS2_EE5clearEv
	leave
	ret
LFE2037:
	.align 1
.globl __ZNSt8_Rb_treeISsSt4pairIKSsiESt10_Select1stIS2_ESt4lessISsESaIS2_EED1Ev
	.weak_definition __ZNSt8_Rb_treeISsSt4pairIKSsiESt10_Select1stIS2_ESt4lessISsESaIS2_EED1Ev
	.private_extern __ZNSt8_Rb_treeISsSt4pairIKSsiESt10_Select1stIS2_ESt4lessISsESaIS2_EED1Ev
__ZNSt8_Rb_treeISsSt4pairIKSsiESt10_Select1stIS2_ESt4lessISsESaIS2_EED1Ev:
LFB2027:
	.loc 3 593 0
	nop
	nop
	nop
	nop
	nop
	nop
	pushq	%rbp
LCFI829:
	movq	%rsp, %rbp
LCFI830:
	pushq	%rbx
LCFI831:
	subq	$40, %rsp
LCFI832:
	movq	%rdi, -24(%rbp)
	.loc 3 594 0
	movq	-24(%rbp), %rdi
	call	__ZNSt8_Rb_treeISsSt4pairIKSsiESt10_Select1stIS2_ESt4lessISsESaIS2_EE8_M_beginEv
	movq	%rax, %rsi
	movq	-24(%rbp), %rdi
LEHB44:
	call	__ZNSt8_Rb_treeISsSt4pairIKSsiESt10_Select1stIS2_ESt4lessISsESaIS2_EE8_M_eraseEPSt13_Rb_tree_nodeIS2_E
LEHE44:
	movq	-24(%rbp), %rax
	movq	%rax, -32(%rbp)
	movq	-32(%rbp), %rdi
	call	__ZNSt8_Rb_treeISsSt4pairIKSsiESt10_Select1stIS2_ESt4lessISsESaIS2_EE13_Rb_tree_implIS6_Lb0EED1Ev
	jmp	L801
L802:
	movq	%rax, -40(%rbp)
L800:
	movq	-40(%rbp), %rbx
	movq	-24(%rbp), %rax
	movq	%rax, -32(%rbp)
	movq	-32(%rbp), %rdi
	call	__ZNSt8_Rb_treeISsSt4pairIKSsiESt10_Select1stIS2_ESt4lessISsESaIS2_EE13_Rb_tree_implIS6_Lb0EED1Ev
	movq	%rbx, -40(%rbp)
	movq	-40(%rbp), %rdi
LEHB45:
	call	__Unwind_Resume
LEHE45:
L801:
	addq	$40, %rsp
	popq	%rbx
	leave
	ret
LFE2027:
	.section __TEXT,__gcc_except_tab
GCC_except_table6:
LLSDA2027:
	.byte	0xff
	.byte	0xff
	.byte	0x3
	.byte	0x1a
	.set L$set$109,LEHB44-LFB2027
	.long L$set$109
	.set L$set$110,LEHE44-LEHB44
	.long L$set$110
	.set L$set$111,L802-LFB2027
	.long L$set$111
	.byte	0x0
	.set L$set$112,LEHB45-LFB2027
	.long L$set$112
	.set L$set$113,LEHE45-LEHB45
	.long L$set$113
	.long	0x0
	.byte	0x0
	.section __TEXT,__textcoal_nt,coalesced,pure_instructions
	.align 1
.globl __ZNSt3mapISsiSt4lessISsESaISt4pairIKSsiEEED1Ev
	.weak_definition __ZNSt3mapISsiSt4lessISsESaISt4pairIKSsiEEED1Ev
	.private_extern __ZNSt3mapISsiSt4lessISsESaISt4pairIKSsiEEED1Ev
__ZNSt3mapISsiSt4lessISsESaISt4pairIKSsiEEED1Ev:
LFB1983:
	.loc 13 94 0
	nop
	nop
	nop
	nop
	nop
	nop
	pushq	%rbp
LCFI833:
	movq	%rsp, %rbp
LCFI834:
	subq	$16, %rsp
LCFI835:
	movq	%rdi, -8(%rbp)
	.loc 13 94 0
	movq	-8(%rbp), %rdi
	call	__ZNSt8_Rb_treeISsSt4pairIKSsiESt10_Select1stIS2_ESt4lessISsESaIS2_EED1Ev
	leave
	ret
LFE1983:
	.align 1
.globl __ZN9__gnu_cxx13new_allocatorISt13_Rb_tree_nodeISt4pairIKiSsEEE10deallocateEPS5_m
	.weak_definition __ZN9__gnu_cxx13new_allocatorISt13_Rb_tree_nodeISt4pairIKiSsEEE10deallocateEPS5_m
	.private_extern __ZN9__gnu_cxx13new_allocatorISt13_Rb_tree_nodeISt4pairIKiSsEEE10deallocateEPS5_m
__ZN9__gnu_cxx13new_allocatorISt13_Rb_tree_nodeISt4pairIKiSsEEE10deallocateEPS5_m:
LFB2690:
	.loc 10 96 0
	nop
	nop
	nop
	nop
	nop
	nop
	pushq	%rbp
LCFI836:
	movq	%rsp, %rbp
LCFI837:
	subq	$32, %rsp
LCFI838:
	movq	%rdi, -8(%rbp)
	movq	%rsi, -16(%rbp)
	movq	%rdx, -24(%rbp)
	.loc 10 97 0
	movq	-16(%rbp), %rdi
	call	__ZdlPv
	leave
	ret
LFE2690:
	.align 1
.globl __ZNSt8_Rb_treeIiSt4pairIKiSsESt10_Select1stIS2_ESt4lessIiESaIS2_EE11_M_put_nodeEPSt13_Rb_tree_nodeIS2_E
	.weak_definition __ZNSt8_Rb_treeIiSt4pairIKiSsESt10_Select1stIS2_ESt4lessIiESaIS2_EE11_M_put_nodeEPSt13_Rb_tree_nodeIS2_E
	.private_extern __ZNSt8_Rb_treeIiSt4pairIKiSsESt10_Select1stIS2_ESt4lessIiESaIS2_EE11_M_put_nodeEPSt13_Rb_tree_nodeIS2_E
__ZNSt8_Rb_treeIiSt4pairIKiSsESt10_Select1stIS2_ESt4lessIiESaIS2_EE11_M_put_nodeEPSt13_Rb_tree_nodeIS2_E:
LFB2599:
	.loc 3 372 0
	nop
	nop
	nop
	nop
	nop
	nop
	pushq	%rbp
LCFI839:
	movq	%rsp, %rbp
LCFI840:
	subq	$16, %rsp
LCFI841:
	movq	%rdi, -8(%rbp)
	movq	%rsi, -16(%rbp)
	.loc 3 373 0
	movq	-8(%rbp), %rax
	movq	%rax, %rdi
	movq	-16(%rbp), %rsi
	movl	$1, %edx
	call	__ZN9__gnu_cxx13new_allocatorISt13_Rb_tree_nodeISt4pairIKiSsEEE10deallocateEPS5_m
	leave
	ret
LFE2599:
	.align 1
.globl __ZNSt8_Rb_treeIiSt4pairIKiSsESt10_Select1stIS2_ESt4lessIiESaIS2_EE15_M_destroy_nodeEPSt13_Rb_tree_nodeIS2_E
	.weak_definition __ZNSt8_Rb_treeIiSt4pairIKiSsESt10_Select1stIS2_ESt4lessIiESaIS2_EE15_M_destroy_nodeEPSt13_Rb_tree_nodeIS2_E
	.private_extern __ZNSt8_Rb_treeIiSt4pairIKiSsESt10_Select1stIS2_ESt4lessIiESaIS2_EE15_M_destroy_nodeEPSt13_Rb_tree_nodeIS2_E
__ZNSt8_Rb_treeIiSt4pairIKiSsESt10_Select1stIS2_ESt4lessIiESaIS2_EE15_M_destroy_nodeEPSt13_Rb_tree_nodeIS2_E:
LFB2430:
	.loc 3 400 0
	nop
	nop
	nop
	nop
	nop
	nop
	pushq	%rbp
LCFI842:
	movq	%rsp, %rbp
LCFI843:
	pushq	%rbx
LCFI844:
	subq	$56, %rsp
LCFI845:
	movq	%rdi, -40(%rbp)
	movq	%rsi, -48(%rbp)
	.loc 3 402 0
	movq	-48(%rbp), %rbx
	addq	$32, %rbx
	leaq	-17(%rbp), %rdi
	movq	-40(%rbp), %rsi
	call	__ZNKSt8_Rb_treeIiSt4pairIKiSsESt10_Select1stIS2_ESt4lessIiESaIS2_EE13get_allocatorEv
	leaq	-17(%rbp), %rdi
	movq	%rbx, %rsi
LEHB46:
	call	__ZN9__gnu_cxx13new_allocatorISt4pairIKiSsEE7destroyEPS3_
LEHE46:
	leaq	-17(%rbp), %rdi
	call	__ZNSaISt4pairIKiSsEED1Ev
	.loc 3 403 0
	movq	-48(%rbp), %rsi
	movq	-40(%rbp), %rdi
	call	__ZNSt8_Rb_treeIiSt4pairIKiSsESt10_Select1stIS2_ESt4lessIiESaIS2_EE11_M_put_nodeEPSt13_Rb_tree_nodeIS2_E
	jmp	L812
L813:
	movq	%rax, -56(%rbp)
L811:
	movq	-56(%rbp), %rbx
	.loc 3 402 0
	leaq	-17(%rbp), %rdi
	call	__ZNSaISt4pairIKiSsEED1Ev
	movq	%rbx, -56(%rbp)
	movq	-56(%rbp), %rdi
LEHB47:
	call	__Unwind_Resume
LEHE47:
L812:
	.loc 3 403 0
	addq	$56, %rsp
	popq	%rbx
	leave
	ret
LFE2430:
	.section __TEXT,__gcc_except_tab
GCC_except_table7:
LLSDA2430:
	.byte	0xff
	.byte	0xff
	.byte	0x3
	.byte	0x1a
	.set L$set$114,LEHB46-LFB2430
	.long L$set$114
	.set L$set$115,LEHE46-LEHB46
	.long L$set$115
	.set L$set$116,L813-LFB2430
	.long L$set$116
	.byte	0x0
	.set L$set$117,LEHB47-LFB2430
	.long L$set$117
	.set L$set$118,LEHE47-LEHB47
	.long L$set$118
	.long	0x0
	.byte	0x0
	.section __TEXT,__textcoal_nt,coalesced,pure_instructions
	.align 1
.globl __ZNSt8_Rb_treeIiSt4pairIKiSsESt10_Select1stIS2_ESt4lessIiESaIS2_EE8_M_eraseEPSt13_Rb_tree_nodeIS2_E
	.weak_definition __ZNSt8_Rb_treeIiSt4pairIKiSsESt10_Select1stIS2_ESt4lessIiESaIS2_EE8_M_eraseEPSt13_Rb_tree_nodeIS2_E
__ZNSt8_Rb_treeIiSt4pairIKiSsESt10_Select1stIS2_ESt4lessIiESaIS2_EE8_M_eraseEPSt13_Rb_tree_nodeIS2_E:
LFB2206:
	.loc 3 1320 0
	nop
	nop
	nop
	nop
	nop
	nop
	pushq	%rbp
LCFI846:
	movq	%rsp, %rbp
LCFI847:
	subq	$32, %rsp
LCFI848:
	movq	%rdi, -24(%rbp)
	movq	%rsi, -32(%rbp)
LBB59:
LBB60:
	.loc 3 1323 0
	jmp	L815
L816:
	.loc 3 1325 0
	movq	-32(%rbp), %rdi
	call	__ZNSt8_Rb_treeIiSt4pairIKiSsESt10_Select1stIS2_ESt4lessIiESaIS2_EE8_S_rightEPSt18_Rb_tree_node_base
	movq	%rax, %rsi
	movq	-24(%rbp), %rdi
	call	__ZNSt8_Rb_treeIiSt4pairIKiSsESt10_Select1stIS2_ESt4lessIiESaIS2_EE8_M_eraseEPSt13_Rb_tree_nodeIS2_E
	.loc 3 1326 0
	movq	-32(%rbp), %rdi
	call	__ZNSt8_Rb_treeIiSt4pairIKiSsESt10_Select1stIS2_ESt4lessIiESaIS2_EE7_S_leftEPSt18_Rb_tree_node_base
	movq	%rax, -8(%rbp)
	.loc 3 1327 0
	movq	-32(%rbp), %rsi
	movq	-24(%rbp), %rdi
	call	__ZNSt8_Rb_treeIiSt4pairIKiSsESt10_Select1stIS2_ESt4lessIiESaIS2_EE15_M_destroy_nodeEPSt13_Rb_tree_nodeIS2_E
	.loc 3 1328 0
	movq	-8(%rbp), %rax
	movq	%rax, -32(%rbp)
L815:
LBE60:
	.loc 3 1323 0
	cmpq	$0, -32(%rbp)
	jne	L816
LBE59:
	.loc 3 1328 0
	leave
	ret
LFE2206:
	.align 1
.globl __ZNSt8_Rb_treeIiSt4pairIKiSsESt10_Select1stIS2_ESt4lessIiESaIS2_EE5clearEv
	.weak_definition __ZNSt8_Rb_treeIiSt4pairIKiSsESt10_Select1stIS2_ESt4lessIiESaIS2_EE5clearEv
	.private_extern __ZNSt8_Rb_treeIiSt4pairIKiSsESt10_Select1stIS2_ESt4lessIiESaIS2_EE5clearEv
__ZNSt8_Rb_treeIiSt4pairIKiSsESt10_Select1stIS2_ESt4lessIiESaIS2_EE5clearEv:
LFB2217:
	.loc 3 711 0
	nop
	nop
	nop
	nop
	nop
	nop
	pushq	%rbp
LCFI849:
	movq	%rsp, %rbp
LCFI850:
	pushq	%rbx
LCFI851:
	subq	$24, %rsp
LCFI852:
	movq	%rdi, -24(%rbp)
	.loc 3 713 0
	movq	-24(%rbp), %rdi
	call	__ZNSt8_Rb_treeIiSt4pairIKiSsESt10_Select1stIS2_ESt4lessIiESaIS2_EE8_M_beginEv
	movq	%rax, %rsi
	movq	-24(%rbp), %rdi
	call	__ZNSt8_Rb_treeIiSt4pairIKiSsESt10_Select1stIS2_ESt4lessIiESaIS2_EE8_M_eraseEPSt13_Rb_tree_nodeIS2_E
	.loc 3 714 0
	movq	-24(%rbp), %rdi
	call	__ZNSt8_Rb_treeIiSt4pairIKiSsESt10_Select1stIS2_ESt4lessIiESaIS2_EE11_M_leftmostEv
	movq	%rax, %rbx
	movq	-24(%rbp), %rdi
	call	__ZNSt8_Rb_treeIiSt4pairIKiSsESt10_Select1stIS2_ESt4lessIiESaIS2_EE6_M_endEv
	movq	%rax, (%rbx)
	.loc 3 715 0
	movq	-24(%rbp), %rdi
	call	__ZNSt8_Rb_treeIiSt4pairIKiSsESt10_Select1stIS2_ESt4lessIiESaIS2_EE7_M_rootEv
	movq	$0, (%rax)
	.loc 3 716 0
	movq	-24(%rbp), %rdi
	call	__ZNSt8_Rb_treeIiSt4pairIKiSsESt10_Select1stIS2_ESt4lessIiESaIS2_EE12_M_rightmostEv
	movq	%rax, %rbx
	movq	-24(%rbp), %rdi
	call	__ZNSt8_Rb_treeIiSt4pairIKiSsESt10_Select1stIS2_ESt4lessIiESaIS2_EE6_M_endEv
	movq	%rax, (%rbx)
	.loc 3 717 0
	movq	-24(%rbp), %rax
	movq	$0, 40(%rax)
	addq	$24, %rsp
	popq	%rbx
	leave
	ret
LFE2217:
	.align 1
.globl __ZNSt3mapIiSsSt4lessIiESaISt4pairIKiSsEEE5clearEv
	.weak_definition __ZNSt3mapIiSsSt4lessIiESaISt4pairIKiSsEEE5clearEv
	.private_extern __ZNSt3mapIiSsSt4lessIiESaISt4pairIKiSsEEE5clearEv
__ZNSt3mapIiSsSt4lessIiESaISt4pairIKiSsEEE5clearEv:
LFB2038:
	.loc 13 508 0
	nop
	nop
	nop
	nop
	nop
	nop
	pushq	%rbp
LCFI853:
	movq	%rsp, %rbp
LCFI854:
	subq	$16, %rsp
LCFI855:
	movq	%rdi, -8(%rbp)
	.loc 13 509 0
	movq	-8(%rbp), %rdi
	call	__ZNSt8_Rb_treeIiSt4pairIKiSsESt10_Select1stIS2_ESt4lessIiESaIS2_EE5clearEv
	leave
	ret
LFE2038:
	.align 1
.globl __ZNSt8_Rb_treeIiSt4pairIKiSsESt10_Select1stIS2_ESt4lessIiESaIS2_EED1Ev
	.weak_definition __ZNSt8_Rb_treeIiSt4pairIKiSsESt10_Select1stIS2_ESt4lessIiESaIS2_EED1Ev
	.private_extern __ZNSt8_Rb_treeIiSt4pairIKiSsESt10_Select1stIS2_ESt4lessIiESaIS2_EED1Ev
__ZNSt8_Rb_treeIiSt4pairIKiSsESt10_Select1stIS2_ESt4lessIiESaIS2_EED1Ev:
LFB2033:
	.loc 3 593 0
	nop
	nop
	nop
	nop
	nop
	nop
	pushq	%rbp
LCFI856:
	movq	%rsp, %rbp
LCFI857:
	pushq	%rbx
LCFI858:
	subq	$40, %rsp
LCFI859:
	movq	%rdi, -24(%rbp)
	.loc 3 594 0
	movq	-24(%rbp), %rdi
	call	__ZNSt8_Rb_treeIiSt4pairIKiSsESt10_Select1stIS2_ESt4lessIiESaIS2_EE8_M_beginEv
	movq	%rax, %rsi
	movq	-24(%rbp), %rdi
LEHB48:
	call	__ZNSt8_Rb_treeIiSt4pairIKiSsESt10_Select1stIS2_ESt4lessIiESaIS2_EE8_M_eraseEPSt13_Rb_tree_nodeIS2_E
LEHE48:
	movq	-24(%rbp), %rax
	movq	%rax, -32(%rbp)
	movq	-32(%rbp), %rdi
	call	__ZNSt8_Rb_treeIiSt4pairIKiSsESt10_Select1stIS2_ESt4lessIiESaIS2_EE13_Rb_tree_implIS6_Lb0EED1Ev
	jmp	L826
L827:
	movq	%rax, -40(%rbp)
L825:
	movq	-40(%rbp), %rbx
	movq	-24(%rbp), %rax
	movq	%rax, -32(%rbp)
	movq	-32(%rbp), %rdi
	call	__ZNSt8_Rb_treeIiSt4pairIKiSsESt10_Select1stIS2_ESt4lessIiESaIS2_EE13_Rb_tree_implIS6_Lb0EED1Ev
	movq	%rbx, -40(%rbp)
	movq	-40(%rbp), %rdi
LEHB49:
	call	__Unwind_Resume
LEHE49:
L826:
	addq	$40, %rsp
	popq	%rbx
	leave
	ret
LFE2033:
	.section __TEXT,__gcc_except_tab
GCC_except_table8:
LLSDA2033:
	.byte	0xff
	.byte	0xff
	.byte	0x3
	.byte	0x1a
	.set L$set$119,LEHB48-LFB2033
	.long L$set$119
	.set L$set$120,LEHE48-LEHB48
	.long L$set$120
	.set L$set$121,L827-LFB2033
	.long L$set$121
	.byte	0x0
	.set L$set$122,LEHB49-LFB2033
	.long L$set$122
	.set L$set$123,LEHE49-LEHB49
	.long L$set$123
	.long	0x0
	.byte	0x0
	.section __TEXT,__textcoal_nt,coalesced,pure_instructions
	.align 1
.globl __ZNSt3mapIiSsSt4lessIiESaISt4pairIKiSsEEED1Ev
	.weak_definition __ZNSt3mapIiSsSt4lessIiESaISt4pairIKiSsEEED1Ev
	.private_extern __ZNSt3mapIiSsSt4lessIiESaISt4pairIKiSsEEED1Ev
__ZNSt3mapIiSsSt4lessIiESaISt4pairIKiSsEEED1Ev:
LFB1986:
	.loc 13 94 0
	nop
	nop
	nop
	nop
	nop
	nop
	pushq	%rbp
LCFI860:
	movq	%rsp, %rbp
LCFI861:
	subq	$16, %rsp
LCFI862:
	movq	%rdi, -8(%rbp)
	.loc 13 94 0
	movq	-8(%rbp), %rdi
	call	__ZNSt8_Rb_treeIiSt4pairIKiSsESt10_Select1stIS2_ESt4lessIiESaIS2_EED1Ev
	leave
	ret
LFE1986:
	.align 1
.globl __ZN5TableC1Ev
	.weak_definition __ZN5TableC1Ev
	.private_extern __ZN5TableC1Ev
__ZN5TableC1Ev:
LFB2000:
	.loc 7 31 0
	nop
	nop
	nop
	nop
	nop
	nop
	pushq	%rbp
LCFI863:
	movq	%rsp, %rbp
LCFI864:
	subq	$32, %rsp
LCFI865:
	movq	%rdi, -24(%rbp)
LBB61:
	.loc 7 31 0
	movq	-24(%rbp), %rdi
	call	__ZNSt3mapISsiSt4lessISsESaISt4pairIKSsiEEEC1Ev
	movq	-24(%rbp), %rdi
	addq	$48, %rdi
	call	__ZNSt3mapIiSsSt4lessIiESaISt4pairIKiSsEEEC1Ev
	movq	-24(%rbp), %rdi
	addq	$96, %rdi
	call	__ZNSt3mapIiSsSt4lessIiESaISt4pairIKiSsEEEC1Ev
	leaq	-1(%rbp), %rdi
	call	__ZNSaISt6vectorISsSaISsEEEC1Ev
	movq	-24(%rbp), %rdi
	addq	$144, %rdi
	leaq	-1(%rbp), %rsi
	call	__ZNSt6vectorIS_ISsSaISsEESaIS1_EEC1ERKS2_
	leaq	-1(%rbp), %rdi
	call	__ZNSaISt6vectorISsSaISsEEED1Ev
LBE61:
	leave
	ret
LFE2000:
	.align 1
.globl __ZN9__gnu_cxx13new_allocatorISt6vectorISsSaISsEEE10deallocateEPS3_m
	.weak_definition __ZN9__gnu_cxx13new_allocatorISt6vectorISsSaISsEEE10deallocateEPS3_m
	.private_extern __ZN9__gnu_cxx13new_allocatorISt6vectorISsSaISsEEE10deallocateEPS3_m
__ZN9__gnu_cxx13new_allocatorISt6vectorISsSaISsEEE10deallocateEPS3_m:
LFB2579:
	.loc 10 96 0
	nop
	nop
	nop
	nop
	nop
	nop
	pushq	%rbp
LCFI866:
	movq	%rsp, %rbp
LCFI867:
	subq	$32, %rsp
LCFI868:
	movq	%rdi, -8(%rbp)
	movq	%rsi, -16(%rbp)
	movq	%rdx, -24(%rbp)
	.loc 10 97 0
	movq	-16(%rbp), %rdi
	call	__ZdlPv
	leave
	ret
LFE2579:
	.align 1
.globl __ZNSt12_Vector_baseISt6vectorISsSaISsEESaIS2_EE13_M_deallocateEPS2_m
	.weak_definition __ZNSt12_Vector_baseISt6vectorISsSaISsEESaIS2_EE13_M_deallocateEPS2_m
	.private_extern __ZNSt12_Vector_baseISt6vectorISsSaISsEESaIS2_EE13_M_deallocateEPS2_m
__ZNSt12_Vector_baseISt6vectorISsSaISsEESaIS2_EE13_M_deallocateEPS2_m:
LFB2408:
	.loc 8 134 0
	nop
	nop
	nop
	nop
	nop
	nop
	pushq	%rbp
LCFI869:
	movq	%rsp, %rbp
LCFI870:
	subq	$32, %rsp
LCFI871:
	movq	%rdi, -8(%rbp)
	movq	%rsi, -16(%rbp)
	movq	%rdx, -24(%rbp)
	.loc 8 136 0
	cmpq	$0, -16(%rbp)
	je	L838
	.loc 8 137 0
	movq	-8(%rbp), %rax
	movq	%rax, %rdi
	movq	-24(%rbp), %rdx
	movq	-16(%rbp), %rsi
	call	__ZN9__gnu_cxx13new_allocatorISt6vectorISsSaISsEEE10deallocateEPS3_m
L838:
	leave
	ret
LFE2408:
	.align 1
.globl __ZNSt12_Vector_baseISt6vectorISsSaISsEESaIS2_EED2Ev
	.weak_definition __ZNSt12_Vector_baseISt6vectorISsSaISsEESaIS2_EED2Ev
	.private_extern __ZNSt12_Vector_baseISt6vectorISsSaISsEESaIS2_EED2Ev
__ZNSt12_Vector_baseISt6vectorISsSaISsEESaIS2_EED2Ev:
LFB2212:
	.loc 8 122 0
	nop
	nop
	nop
	nop
	nop
	nop
	pushq	%rbp
LCFI872:
	movq	%rsp, %rbp
LCFI873:
	subq	$16, %rsp
LCFI874:
	movq	%rdi, -8(%rbp)
	.loc 8 123 0
	movq	-8(%rbp), %rax
	movq	16(%rax), %rax
	movq	%rax, %rdx
	movq	-8(%rbp), %rax
	movq	(%rax), %rax
	movq	%rdx, %rcx
	subq	%rax, %rcx
	movq	%rcx, %rax
	movq	%rax, %rdx
	sarq	$3, %rdx
	movabsq	$-6148914691236517205, %rax
	imulq	%rdx, %rax
	movq	%rax, %rdx
	movq	-8(%rbp), %rax
	movq	(%rax), %rsi
	movq	-8(%rbp), %rdi
	call	__ZNSt12_Vector_baseISt6vectorISsSaISsEESaIS2_EE13_M_deallocateEPS2_m
	movq	-8(%rbp), %rdi
	call	__ZNSt12_Vector_baseISt6vectorISsSaISsEESaIS2_EE12_Vector_implD1Ev
	leave
	ret
LFE2212:
	.align 1
.globl __ZNSt6vectorIS_ISsSaISsEESaIS1_EED1Ev
	.weak_definition __ZNSt6vectorIS_ISsSaISsEESaIS1_EED1Ev
	.private_extern __ZNSt6vectorIS_ISsSaISsEESaIS1_EED1Ev
__ZNSt6vectorIS_ISsSaISsEESaIS1_EED1Ev:
LFB2036:
	.loc 8 270 0
	nop
	nop
	nop
	nop
	nop
	nop
	pushq	%rbp
LCFI875:
	movq	%rsp, %rbp
LCFI876:
	pushq	%rbx
LCFI877:
	subq	$56, %rsp
LCFI878:
	movq	%rdi, -40(%rbp)
	.loc 8 271 0
	movq	-40(%rbp), %rdi
	call	__ZNSt12_Vector_baseISt6vectorISsSaISsEESaIS2_EE19_M_get_Tp_allocatorEv
	movq	%rax, %rsi
	leaq	-17(%rbp), %rdi
	call	__ZNSaISt6vectorISsSaISsEEEC1ERKS2_
	movq	-40(%rbp), %rax
	movq	8(%rax), %rsi
	movq	-40(%rbp), %rax
	movq	(%rax), %rdi
	leaq	-17(%rbp), %rdx
LEHB50:
	call	__ZSt8_DestroyIPSt6vectorISsSaISsEES2_EvT_S4_SaIT0_E
LEHE50:
	leaq	-17(%rbp), %rdi
	call	__ZNSaISt6vectorISsSaISsEEED1Ev
	movq	-40(%rbp), %rax
	movq	%rax, -48(%rbp)
	movq	-48(%rbp), %rdi
	call	__ZNSt12_Vector_baseISt6vectorISsSaISsEESaIS2_EED2Ev
	jmp	L846
L847:
	movq	%rax, -56(%rbp)
L844:
	movq	-56(%rbp), %rbx
	leaq	-17(%rbp), %rdi
	call	__ZNSaISt6vectorISsSaISsEEED1Ev
	movq	%rbx, -56(%rbp)
L848:
L845:
	movq	-56(%rbp), %rbx
	movq	-40(%rbp), %rax
	movq	%rax, -48(%rbp)
	movq	-48(%rbp), %rdi
	call	__ZNSt12_Vector_baseISt6vectorISsSaISsEESaIS2_EED2Ev
	movq	%rbx, -56(%rbp)
	movq	-56(%rbp), %rdi
LEHB51:
	call	__Unwind_Resume
LEHE51:
L846:
	addq	$56, %rsp
	popq	%rbx
	leave
	ret
LFE2036:
	.section __TEXT,__gcc_except_tab
GCC_except_table9:
LLSDA2036:
	.byte	0xff
	.byte	0xff
	.byte	0x3
	.byte	0x1a
	.set L$set$124,LEHB50-LFB2036
	.long L$set$124
	.set L$set$125,LEHE50-LEHB50
	.long L$set$125
	.set L$set$126,L847-LFB2036
	.long L$set$126
	.byte	0x0
	.set L$set$127,LEHB51-LFB2036
	.long L$set$127
	.set L$set$128,LEHE51-LEHB51
	.long L$set$128
	.long	0x0
	.byte	0x0
	.section __TEXT,__textcoal_nt,coalesced,pure_instructions
	.align 1
.globl __ZN5TableD1Ev
	.weak_definition __ZN5TableD1Ev
	.private_extern __ZN5TableD1Ev
__ZN5TableD1Ev:
LFB1988:
	.loc 7 37 0
	nop
	nop
	nop
	nop
	nop
	nop
	pushq	%rbp
LCFI879:
	movq	%rsp, %rbp
LCFI880:
	pushq	%rbx
LCFI881:
	subq	$56, %rsp
LCFI882:
	movq	%rdi, -24(%rbp)
	.loc 7 38 0
	movq	-24(%rbp), %rdi
LEHB52:
	call	__ZNSt3mapISsiSt4lessISsESaISt4pairIKSsiEEE5clearEv
	.loc 7 39 0
	movq	-24(%rbp), %rdi
	addq	$96, %rdi
	call	__ZNSt3mapIiSsSt4lessIiESaISt4pairIKiSsEEE5clearEv
	.loc 7 40 0
	movq	-24(%rbp), %rdi
	addq	$144, %rdi
	call	__ZNSt6vectorIS_ISsSaISsEESaIS1_EE5clearEv
LEHE52:
	.loc 7 41 0
	movq	-24(%rbp), %rax
	addq	$144, %rax
	movq	%rax, -56(%rbp)
	movq	-56(%rbp), %rdi
LEHB53:
	call	__ZNSt6vectorIS_ISsSaISsEESaIS1_EED1Ev
LEHE53:
	jmp	L850
L859:
	movq	%rax, -64(%rbp)
L851:
	movq	-64(%rbp), %rbx
	movq	-24(%rbp), %rax
	addq	$144, %rax
	movq	%rax, -56(%rbp)
	movq	-56(%rbp), %rdi
	call	__ZNSt6vectorIS_ISsSaISsEESaIS1_EED1Ev
	movq	%rbx, -64(%rbp)
	jmp	L853
L850:
	movq	-24(%rbp), %rax
	addq	$96, %rax
	movq	%rax, -48(%rbp)
	movq	-48(%rbp), %rdi
LEHB54:
	call	__ZNSt3mapIiSsSt4lessIiESaISt4pairIKiSsEEED1Ev
LEHE54:
	jmp	L852
L860:
	movq	%rax, -64(%rbp)
L853:
	movq	-64(%rbp), %rbx
	movq	-24(%rbp), %rax
	addq	$96, %rax
	movq	%rax, -48(%rbp)
	movq	-48(%rbp), %rdi
	call	__ZNSt3mapIiSsSt4lessIiESaISt4pairIKiSsEEED1Ev
	movq	%rbx, -64(%rbp)
	jmp	L855
L852:
	movq	-24(%rbp), %rax
	addq	$48, %rax
	movq	%rax, -40(%rbp)
	movq	-40(%rbp), %rdi
LEHB55:
	call	__ZNSt3mapIiSsSt4lessIiESaISt4pairIKiSsEEED1Ev
LEHE55:
	jmp	L854
L861:
	movq	%rax, -64(%rbp)
L855:
	movq	-64(%rbp), %rbx
	movq	-24(%rbp), %rax
	addq	$48, %rax
	movq	%rax, -40(%rbp)
	movq	-40(%rbp), %rdi
	call	__ZNSt3mapIiSsSt4lessIiESaISt4pairIKiSsEEED1Ev
	movq	%rbx, -64(%rbp)
	jmp	L857
L854:
	movq	-24(%rbp), %rax
	movq	%rax, -32(%rbp)
	movq	-32(%rbp), %rdi
LEHB56:
	call	__ZNSt3mapISsiSt4lessISsESaISt4pairIKSsiEEED1Ev
LEHE56:
	jmp	L858
L862:
	movq	%rax, -64(%rbp)
L857:
	movq	-64(%rbp), %rbx
	movq	-24(%rbp), %rax
	movq	%rax, -32(%rbp)
	movq	-32(%rbp), %rdi
	call	__ZNSt3mapISsiSt4lessISsESaISt4pairIKSsiEEED1Ev
	movq	%rbx, -64(%rbp)
	movq	-64(%rbp), %rdi
LEHB57:
	call	__Unwind_Resume
LEHE57:
L858:
	addq	$56, %rsp
	popq	%rbx
	leave
	ret
LFE1988:
	.section __TEXT,__gcc_except_tab
GCC_except_table10:
LLSDA1988:
	.byte	0xff
	.byte	0xff
	.byte	0x3
	.byte	0x4e
	.set L$set$129,LEHB52-LFB1988
	.long L$set$129
	.set L$set$130,LEHE52-LEHB52
	.long L$set$130
	.set L$set$131,L859-LFB1988
	.long L$set$131
	.byte	0x0
	.set L$set$132,LEHB53-LFB1988
	.long L$set$132
	.set L$set$133,LEHE53-LEHB53
	.long L$set$133
	.set L$set$134,L860-LFB1988
	.long L$set$134
	.byte	0x0
	.set L$set$135,LEHB54-LFB1988
	.long L$set$135
	.set L$set$136,LEHE54-LEHB54
	.long L$set$136
	.set L$set$137,L861-LFB1988
	.long L$set$137
	.byte	0x0
	.set L$set$138,LEHB55-LFB1988
	.long L$set$138
	.set L$set$139,LEHE55-LEHB55
	.long L$set$139
	.set L$set$140,L862-LFB1988
	.long L$set$140
	.byte	0x0
	.set L$set$141,LEHB56-LFB1988
	.long L$set$141
	.set L$set$142,LEHE56-LEHB56
	.long L$set$142
	.long	0x0
	.byte	0x0
	.set L$set$143,LEHB57-LFB1988
	.long L$set$143
	.set L$set$144,LEHE57-LEHB57
	.long L$set$144
	.long	0x0
	.byte	0x0
	.section __TEXT,__textcoal_nt,coalesced,pure_instructions
	.align 1
.globl __ZNSt4pairIKSs5TableED1Ev
	.weak_definition __ZNSt4pairIKSs5TableED1Ev
	.private_extern __ZNSt4pairIKSs5TableED1Ev
__ZNSt4pairIKSs5TableED1Ev:
LFB2094:
	.loc 9 69 0
	nop
	nop
	nop
	nop
	nop
	nop
	pushq	%rbp
LCFI883:
	movq	%rsp, %rbp
LCFI884:
	pushq	%rbx
LCFI885:
	subq	$40, %rsp
LCFI886:
	movq	%rdi, -24(%rbp)
	.loc 9 69 0
	movq	-24(%rbp), %rdi
	addq	$8, %rdi
LEHB58:
	call	__ZN5TableD1Ev
LEHE58:
	movq	-24(%rbp), %rax
	movq	%rax, -40(%rbp)
	movq	-40(%rbp), %rax
	movq	%rax, -32(%rbp)
	movq	-32(%rbp), %rdi
LEHB59:
	call	__ZNSsD1Ev
LEHE59:
	jmp	L866
L867:
	movq	%rax, -48(%rbp)
L865:
	movq	-48(%rbp), %rbx
	movq	-24(%rbp), %rax
	movq	%rax, -40(%rbp)
	movq	-40(%rbp), %rax
	movq	%rax, -32(%rbp)
	movq	-32(%rbp), %rdi
	call	__ZNSsD1Ev
	movq	%rbx, -48(%rbp)
	movq	-48(%rbp), %rdi
LEHB60:
	call	__Unwind_Resume
LEHE60:
L866:
	addq	$40, %rsp
	popq	%rbx
	leave
	ret
LFE2094:
	.section __TEXT,__gcc_except_tab
GCC_except_table11:
LLSDA2094:
	.byte	0xff
	.byte	0xff
	.byte	0x3
	.byte	0x27
	.set L$set$145,LEHB58-LFB2094
	.long L$set$145
	.set L$set$146,LEHE58-LEHB58
	.long L$set$146
	.set L$set$147,L867-LFB2094
	.long L$set$147
	.byte	0x0
	.set L$set$148,LEHB59-LFB2094
	.long L$set$148
	.set L$set$149,LEHE59-LEHB59
	.long L$set$149
	.long	0x0
	.byte	0x0
	.set L$set$150,LEHB60-LFB2094
	.long L$set$150
	.set L$set$151,LEHE60-LEHB60
	.long L$set$151
	.long	0x0
	.byte	0x0
	.section __TEXT,__textcoal_nt,coalesced,pure_instructions
	.align 1
.globl __ZN9__gnu_cxx13new_allocatorISt4pairIKSs5TableEE7destroyEPS4_
	.weak_definition __ZN9__gnu_cxx13new_allocatorISt4pairIKSs5TableEE7destroyEPS4_
	.private_extern __ZN9__gnu_cxx13new_allocatorISt4pairIKSs5TableEE7destroyEPS4_
__ZN9__gnu_cxx13new_allocatorISt4pairIKSs5TableEE7destroyEPS4_:
LFB2696:
	.loc 10 110 0
	nop
	nop
	nop
	nop
	nop
	nop
	pushq	%rbp
LCFI887:
	movq	%rsp, %rbp
LCFI888:
	subq	$16, %rsp
LCFI889:
	movq	%rdi, -8(%rbp)
	movq	%rsi, -16(%rbp)
	.loc 10 110 0
	movq	-16(%rbp), %rdi
	call	__ZNSt4pairIKSs5TableED1Ev
	leave
	ret
LFE2696:
	.align 1
.globl __ZN9__gnu_cxx13new_allocatorISt13_Rb_tree_nodeISt4pairIKSs5TableEEE10deallocateEPS6_m
	.weak_definition __ZN9__gnu_cxx13new_allocatorISt13_Rb_tree_nodeISt4pairIKSs5TableEEE10deallocateEPS6_m
	.private_extern __ZN9__gnu_cxx13new_allocatorISt13_Rb_tree_nodeISt4pairIKSs5TableEEE10deallocateEPS6_m
__ZN9__gnu_cxx13new_allocatorISt13_Rb_tree_nodeISt4pairIKSs5TableEEE10deallocateEPS6_m:
LFB2744:
	.loc 10 96 0
	nop
	nop
	nop
	nop
	nop
	nop
	pushq	%rbp
LCFI890:
	movq	%rsp, %rbp
LCFI891:
	subq	$32, %rsp
LCFI892:
	movq	%rdi, -8(%rbp)
	movq	%rsi, -16(%rbp)
	movq	%rdx, -24(%rbp)
	.loc 10 97 0
	movq	-16(%rbp), %rdi
	call	__ZdlPv
	leave
	ret
LFE2744:
	.align 1
.globl __ZNSt8_Rb_treeISsSt4pairIKSs5TableESt10_Select1stIS3_ESt4lessISsESaIS3_EE11_M_put_nodeEPSt13_Rb_tree_nodeIS3_E
	.weak_definition __ZNSt8_Rb_treeISsSt4pairIKSs5TableESt10_Select1stIS3_ESt4lessISsESaIS3_EE11_M_put_nodeEPSt13_Rb_tree_nodeIS3_E
	.private_extern __ZNSt8_Rb_treeISsSt4pairIKSs5TableESt10_Select1stIS3_ESt4lessISsESaIS3_EE11_M_put_nodeEPSt13_Rb_tree_nodeIS3_E
__ZNSt8_Rb_treeISsSt4pairIKSs5TableESt10_Select1stIS3_ESt4lessISsESaIS3_EE11_M_put_nodeEPSt13_Rb_tree_nodeIS3_E:
LFB2697:
	.loc 3 372 0
	nop
	nop
	nop
	nop
	nop
	nop
	pushq	%rbp
LCFI893:
	movq	%rsp, %rbp
LCFI894:
	subq	$16, %rsp
LCFI895:
	movq	%rdi, -8(%rbp)
	movq	%rsi, -16(%rbp)
	.loc 3 373 0
	movq	-8(%rbp), %rax
	movq	%rax, %rdi
	movq	-16(%rbp), %rsi
	movl	$1, %edx
	call	__ZN9__gnu_cxx13new_allocatorISt13_Rb_tree_nodeISt4pairIKSs5TableEEE10deallocateEPS6_m
	leave
	ret
LFE2697:
	.align 1
.globl __ZNSt8_Rb_treeISsSt4pairIKSs5TableESt10_Select1stIS3_ESt4lessISsESaIS3_EE15_M_destroy_nodeEPSt13_Rb_tree_nodeIS3_E
	.weak_definition __ZNSt8_Rb_treeISsSt4pairIKSs5TableESt10_Select1stIS3_ESt4lessISsESaIS3_EE15_M_destroy_nodeEPSt13_Rb_tree_nodeIS3_E
	.private_extern __ZNSt8_Rb_treeISsSt4pairIKSs5TableESt10_Select1stIS3_ESt4lessISsESaIS3_EE15_M_destroy_nodeEPSt13_Rb_tree_nodeIS3_E
__ZNSt8_Rb_treeISsSt4pairIKSs5TableESt10_Select1stIS3_ESt4lessISsESaIS3_EE15_M_destroy_nodeEPSt13_Rb_tree_nodeIS3_E:
LFB2612:
	.loc 3 400 0
	nop
	nop
	nop
	nop
	nop
	nop
	pushq	%rbp
LCFI896:
	movq	%rsp, %rbp
LCFI897:
	pushq	%rbx
LCFI898:
	subq	$56, %rsp
LCFI899:
	movq	%rdi, -40(%rbp)
	movq	%rsi, -48(%rbp)
	.loc 3 402 0
	movq	-48(%rbp), %rbx
	addq	$32, %rbx
	leaq	-17(%rbp), %rdi
	movq	-40(%rbp), %rsi
	call	__ZNKSt8_Rb_treeISsSt4pairIKSs5TableESt10_Select1stIS3_ESt4lessISsESaIS3_EE13get_allocatorEv
	leaq	-17(%rbp), %rdi
	movq	%rbx, %rsi
LEHB61:
	call	__ZN9__gnu_cxx13new_allocatorISt4pairIKSs5TableEE7destroyEPS4_
LEHE61:
	leaq	-17(%rbp), %rdi
	call	__ZNSaISt4pairIKSs5TableEED1Ev
	.loc 3 403 0
	movq	-48(%rbp), %rsi
	movq	-40(%rbp), %rdi
	call	__ZNSt8_Rb_treeISsSt4pairIKSs5TableESt10_Select1stIS3_ESt4lessISsESaIS3_EE11_M_put_nodeEPSt13_Rb_tree_nodeIS3_E
	jmp	L876
L877:
	movq	%rax, -56(%rbp)
L875:
	movq	-56(%rbp), %rbx
	.loc 3 402 0
	leaq	-17(%rbp), %rdi
	call	__ZNSaISt4pairIKSs5TableEED1Ev
	movq	%rbx, -56(%rbp)
	movq	-56(%rbp), %rdi
LEHB62:
	call	__Unwind_Resume
LEHE62:
L876:
	.loc 3 403 0
	addq	$56, %rsp
	popq	%rbx
	leave
	ret
LFE2612:
	.section __TEXT,__gcc_except_tab
GCC_except_table12:
LLSDA2612:
	.byte	0xff
	.byte	0xff
	.byte	0x3
	.byte	0x1a
	.set L$set$152,LEHB61-LFB2612
	.long L$set$152
	.set L$set$153,LEHE61-LEHB61
	.long L$set$153
	.set L$set$154,L877-LFB2612
	.long L$set$154
	.byte	0x0
	.set L$set$155,LEHB62-LFB2612
	.long L$set$155
	.set L$set$156,LEHE62-LEHB62
	.long L$set$156
	.long	0x0
	.byte	0x0
	.section __TEXT,__textcoal_nt,coalesced,pure_instructions
	.align 1
.globl __ZNSt8_Rb_treeISsSt4pairIKSs5TableESt10_Select1stIS3_ESt4lessISsESaIS3_EE8_M_eraseEPSt13_Rb_tree_nodeIS3_E
	.weak_definition __ZNSt8_Rb_treeISsSt4pairIKSs5TableESt10_Select1stIS3_ESt4lessISsESaIS3_EE8_M_eraseEPSt13_Rb_tree_nodeIS3_E
__ZNSt8_Rb_treeISsSt4pairIKSs5TableESt10_Select1stIS3_ESt4lessISsESaIS3_EE8_M_eraseEPSt13_Rb_tree_nodeIS3_E:
LFB2458:
	.loc 3 1320 0
	nop
	nop
	nop
	nop
	nop
	nop
	pushq	%rbp
LCFI900:
	movq	%rsp, %rbp
LCFI901:
	subq	$32, %rsp
LCFI902:
	movq	%rdi, -24(%rbp)
	movq	%rsi, -32(%rbp)
LBB62:
LBB63:
	.loc 3 1323 0
	jmp	L879
L880:
	.loc 3 1325 0
	movq	-32(%rbp), %rdi
	call	__ZNSt8_Rb_treeISsSt4pairIKSs5TableESt10_Select1stIS3_ESt4lessISsESaIS3_EE8_S_rightEPSt18_Rb_tree_node_base
	movq	%rax, %rsi
	movq	-24(%rbp), %rdi
	call	__ZNSt8_Rb_treeISsSt4pairIKSs5TableESt10_Select1stIS3_ESt4lessISsESaIS3_EE8_M_eraseEPSt13_Rb_tree_nodeIS3_E
	.loc 3 1326 0
	movq	-32(%rbp), %rdi
	call	__ZNSt8_Rb_treeISsSt4pairIKSs5TableESt10_Select1stIS3_ESt4lessISsESaIS3_EE7_S_leftEPSt18_Rb_tree_node_base
	movq	%rax, -8(%rbp)
	.loc 3 1327 0
	movq	-32(%rbp), %rsi
	movq	-24(%rbp), %rdi
	call	__ZNSt8_Rb_treeISsSt4pairIKSs5TableESt10_Select1stIS3_ESt4lessISsESaIS3_EE15_M_destroy_nodeEPSt13_Rb_tree_nodeIS3_E
	.loc 3 1328 0
	movq	-8(%rbp), %rax
	movq	%rax, -32(%rbp)
L879:
LBE63:
	.loc 3 1323 0
	cmpq	$0, -32(%rbp)
	jne	L880
LBE62:
	.loc 3 1328 0
	leave
	ret
LFE2458:
	.align 1
.globl __ZNSt8_Rb_treeISsSt4pairIKSs5TableESt10_Select1stIS3_ESt4lessISsESaIS3_EED1Ev
	.weak_definition __ZNSt8_Rb_treeISsSt4pairIKSs5TableESt10_Select1stIS3_ESt4lessISsESaIS3_EED1Ev
	.private_extern __ZNSt8_Rb_treeISsSt4pairIKSs5TableESt10_Select1stIS3_ESt4lessISsESaIS3_EED1Ev
__ZNSt8_Rb_treeISsSt4pairIKSs5TableESt10_Select1stIS3_ESt4lessISsESaIS3_EED1Ev:
LFB2236:
	.loc 3 593 0
	nop
	nop
	nop
	nop
	nop
	nop
	pushq	%rbp
LCFI903:
	movq	%rsp, %rbp
LCFI904:
	pushq	%rbx
LCFI905:
	subq	$40, %rsp
LCFI906:
	movq	%rdi, -24(%rbp)
	.loc 3 594 0
	movq	-24(%rbp), %rdi
	call	__ZNSt8_Rb_treeISsSt4pairIKSs5TableESt10_Select1stIS3_ESt4lessISsESaIS3_EE8_M_beginEv
	movq	%rax, %rsi
	movq	-24(%rbp), %rdi
LEHB63:
	call	__ZNSt8_Rb_treeISsSt4pairIKSs5TableESt10_Select1stIS3_ESt4lessISsESaIS3_EE8_M_eraseEPSt13_Rb_tree_nodeIS3_E
LEHE63:
	movq	-24(%rbp), %rax
	movq	%rax, -32(%rbp)
	movq	-32(%rbp), %rdi
	call	__ZNSt8_Rb_treeISsSt4pairIKSs5TableESt10_Select1stIS3_ESt4lessISsESaIS3_EE13_Rb_tree_implIS7_Lb0EED1Ev
	jmp	L886
L887:
	movq	%rax, -40(%rbp)
L885:
	movq	-40(%rbp), %rbx
	movq	-24(%rbp), %rax
	movq	%rax, -32(%rbp)
	movq	-32(%rbp), %rdi
	call	__ZNSt8_Rb_treeISsSt4pairIKSs5TableESt10_Select1stIS3_ESt4lessISsESaIS3_EE13_Rb_tree_implIS7_Lb0EED1Ev
	movq	%rbx, -40(%rbp)
	movq	-40(%rbp), %rdi
LEHB64:
	call	__Unwind_Resume
LEHE64:
L886:
	addq	$40, %rsp
	popq	%rbx
	leave
	ret
LFE2236:
	.section __TEXT,__gcc_except_tab
GCC_except_table13:
LLSDA2236:
	.byte	0xff
	.byte	0xff
	.byte	0x3
	.byte	0x1a
	.set L$set$157,LEHB63-LFB2236
	.long L$set$157
	.set L$set$158,LEHE63-LEHB63
	.long L$set$158
	.set L$set$159,L887-LFB2236
	.long L$set$159
	.byte	0x0
	.set L$set$160,LEHB64-LFB2236
	.long L$set$160
	.set L$set$161,LEHE64-LEHB64
	.long L$set$161
	.long	0x0
	.byte	0x0
	.section __TEXT,__textcoal_nt,coalesced,pure_instructions
	.align 1
.globl __ZNSt3mapISs5TableSt4lessISsESaISt4pairIKSsS0_EEED1Ev
	.weak_definition __ZNSt3mapISs5TableSt4lessISsESaISt4pairIKSsS0_EEED1Ev
	.private_extern __ZNSt3mapISs5TableSt4lessISsESaISt4pairIKSsS0_EEED1Ev
__ZNSt3mapISs5TableSt4lessISsESaISt4pairIKSsS0_EEED1Ev:
LFB2782:
	.loc 13 94 0
	nop
	nop
	nop
	nop
	nop
	nop
	pushq	%rbp
LCFI907:
	movq	%rsp, %rbp
LCFI908:
	subq	$16, %rsp
LCFI909:
	movq	%rdi, -8(%rbp)
	.loc 13 94 0
	movq	-8(%rbp), %rdi
	call	__ZNSt8_Rb_treeISsSt4pairIKSs5TableESt10_Select1stIS3_ESt4lessISsESaIS3_EED1Ev
	leave
	ret
LFE2782:
	.text
___tcf_17:
LFB2783:
	.loc 7 44 0
	nop
	nop
	nop
	nop
	nop
	nop
	pushq	%rbp
LCFI910:
	movq	%rsp, %rbp
LCFI911:
	subq	$16, %rsp
LCFI912:
	movq	%rdi, -8(%rbp)
	.loc 7 44 0
	movq	_tables@GOTPCREL(%rip), %rdi
	call	__ZNSt3mapISs5TableSt4lessISsESaISt4pairIKSsS0_EEED1Ev
	leave
	ret
LFE2783:
___tcf_0:
LFB2763:
	.loc 17 77 0
	nop
	nop
	nop
	nop
	nop
	nop
	pushq	%rbp
LCFI913:
	movq	%rsp, %rbp
LCFI914:
	subq	$16, %rsp
LCFI915:
	movq	%rdi, -8(%rbp)
	.loc 17 77 0
	movq	__ZStL8__ioinit@GOTPCREL(%rip), %rdi
	call	__ZNSt8ios_base4InitD1Ev
	leave
	ret
LFE2763:
	.section __TEXT,__textcoal_nt,coalesced,pure_instructions
	.align 1
.globl __ZNSt4pairIKSsiEC1ERKS1_
	.weak_definition __ZNSt4pairIKSsiEC1ERKS1_
	.private_extern __ZNSt4pairIKSsiEC1ERKS1_
__ZNSt4pairIKSsiEC1ERKS1_:
LFB2124:
	.loc 9 69 0
	nop
	nop
	nop
	nop
	nop
	nop
	pushq	%rbp
LCFI916:
	movq	%rsp, %rbp
LCFI917:
	subq	$16, %rsp
LCFI918:
	movq	%rdi, -8(%rbp)
	movq	%rsi, -16(%rbp)
LBB64:
	.loc 9 69 0
	movq	-16(%rbp), %rsi
	movq	-8(%rbp), %rdi
	call	__ZNSsC1ERKSs
	movq	-16(%rbp), %rax
	movl	8(%rax), %edx
	movq	-8(%rbp), %rax
	movl	%edx, 8(%rax)
LBE64:
	leave
	ret
LFE2124:
	.align 1
.globl __ZN9__gnu_cxx13new_allocatorISt4pairIKSsiEE9constructEPS3_RKS3_
	.weak_definition __ZN9__gnu_cxx13new_allocatorISt4pairIKSsiEE9constructEPS3_RKS3_
	.private_extern __ZN9__gnu_cxx13new_allocatorISt4pairIKSsiEE9constructEPS3_RKS3_
__ZN9__gnu_cxx13new_allocatorISt4pairIKSsiEE9constructEPS3_RKS3_:
LFB2749:
	.loc 10 106 0
	nop
	nop
	nop
	nop
	nop
	nop
	pushq	%rbp
LCFI919:
	movq	%rsp, %rbp
LCFI920:
	pushq	%rbx
LCFI921:
	subq	$56, %rsp
LCFI922:
	movq	%rdi, -24(%rbp)
	movq	%rsi, -32(%rbp)
	movq	%rdx, -40(%rbp)
	.loc 10 107 0
	movq	-32(%rbp), %rsi
	movl	$16, %edi
	call	__ZnwmPv
	movq	%rax, -48(%rbp)
	cmpq	$0, -48(%rbp)
	je	L902
	movq	-40(%rbp), %rsi
	movq	-48(%rbp), %rdi
LEHB65:
	call	__ZNSt4pairIKSsiEC1ERKS1_
LEHE65:
	jmp	L902
L903:
	movq	%rax, -56(%rbp)
L901:
	movq	-56(%rbp), %rbx
	movq	-32(%rbp), %rsi
	movq	-48(%rbp), %rdi
	call	__ZdlPvS_
	movq	%rbx, -56(%rbp)
	movq	-56(%rbp), %rdi
LEHB66:
	call	__Unwind_Resume
LEHE66:
L902:
	addq	$56, %rsp
	popq	%rbx
	leave
	ret
LFE2749:
	.section __TEXT,__gcc_except_tab
GCC_except_table14:
LLSDA2749:
	.byte	0xff
	.byte	0xff
	.byte	0x3
	.byte	0x1a
	.set L$set$162,LEHB65-LFB2749
	.long L$set$162
	.set L$set$163,LEHE65-LEHB65
	.long L$set$163
	.set L$set$164,L903-LFB2749
	.long L$set$164
	.byte	0x0
	.set L$set$165,LEHB66-LFB2749
	.long L$set$165
	.set L$set$166,LEHE66-LEHB66
	.long L$set$166
	.long	0x0
	.byte	0x0
	.section __TEXT,__textcoal_nt,coalesced,pure_instructions
	.align 1
.globl __ZNSt4pairIKiSsEC1ERKS1_
	.weak_definition __ZNSt4pairIKiSsEC1ERKS1_
	.private_extern __ZNSt4pairIKiSsEC1ERKS1_
__ZNSt4pairIKiSsEC1ERKS1_:
LFB2152:
	.loc 9 69 0
	nop
	nop
	nop
	nop
	nop
	nop
	pushq	%rbp
LCFI923:
	movq	%rsp, %rbp
LCFI924:
	subq	$16, %rsp
LCFI925:
	movq	%rdi, -8(%rbp)
	movq	%rsi, -16(%rbp)
LBB65:
	.loc 9 69 0
	movq	-16(%rbp), %rax
	movl	(%rax), %edx
	movq	-8(%rbp), %rax
	movl	%edx, (%rax)
	movq	-16(%rbp), %rsi
	addq	$8, %rsi
	movq	-8(%rbp), %rdi
	addq	$8, %rdi
	call	__ZNSsC1ERKSs
LBE65:
	leave
	ret
LFE2152:
	.align 1
.globl __ZN9__gnu_cxx13new_allocatorISt4pairIKiSsEE9constructEPS3_RKS3_
	.weak_definition __ZN9__gnu_cxx13new_allocatorISt4pairIKiSsEE9constructEPS3_RKS3_
	.private_extern __ZN9__gnu_cxx13new_allocatorISt4pairIKiSsEE9constructEPS3_RKS3_
__ZN9__gnu_cxx13new_allocatorISt4pairIKiSsEE9constructEPS3_RKS3_:
LFB2751:
	.loc 10 106 0
	nop
	nop
	nop
	nop
	nop
	nop
	pushq	%rbp
LCFI926:
	movq	%rsp, %rbp
LCFI927:
	pushq	%rbx
LCFI928:
	subq	$56, %rsp
LCFI929:
	movq	%rdi, -24(%rbp)
	movq	%rsi, -32(%rbp)
	movq	%rdx, -40(%rbp)
	.loc 10 107 0
	movq	-32(%rbp), %rsi
	movl	$16, %edi
	call	__ZnwmPv
	movq	%rax, -48(%rbp)
	cmpq	$0, -48(%rbp)
	je	L911
	movq	-40(%rbp), %rsi
	movq	-48(%rbp), %rdi
LEHB67:
	call	__ZNSt4pairIKiSsEC1ERKS1_
LEHE67:
	jmp	L911
L912:
	movq	%rax, -56(%rbp)
L910:
	movq	-56(%rbp), %rbx
	movq	-32(%rbp), %rsi
	movq	-48(%rbp), %rdi
	call	__ZdlPvS_
	movq	%rbx, -56(%rbp)
	movq	-56(%rbp), %rdi
LEHB68:
	call	__Unwind_Resume
LEHE68:
L911:
	addq	$56, %rsp
	popq	%rbx
	leave
	ret
LFE2751:
	.section __TEXT,__gcc_except_tab
GCC_except_table15:
LLSDA2751:
	.byte	0xff
	.byte	0xff
	.byte	0x3
	.byte	0x1a
	.set L$set$167,LEHB67-LFB2751
	.long L$set$167
	.set L$set$168,LEHE67-LEHB67
	.long L$set$168
	.set L$set$169,L912-LFB2751
	.long L$set$169
	.byte	0x0
	.set L$set$170,LEHB68-LFB2751
	.long L$set$170
	.set L$set$171,LEHE68-LEHB68
	.long L$set$171
	.long	0x0
	.byte	0x0
	.section __TEXT,__textcoal_nt,coalesced,pure_instructions
.globl __ZStplIcSt11char_traitsIcESaIcEESbIT_T0_T1_ERKS6_PKS3_
	.weak_definition __ZStplIcSt11char_traitsIcESaIcEESbIT_T0_T1_ERKS6_PKS3_
__ZStplIcSt11char_traitsIcESaIcEESbIT_T0_T1_ERKS6_PKS3_:
LFB2181:
	.loc 15 2119 0
	nop
	nop
	nop
	nop
	nop
	nop
	pushq	%rbp
LCFI930:
	movq	%rsp, %rbp
LCFI931:
	pushq	%rbx
LCFI932:
	subq	$56, %rsp
LCFI933:
	movq	%rdi, -56(%rbp)
	movq	%rsi, -40(%rbp)
	movq	%rdx, -48(%rbp)
LBB66:
	.loc 15 2121 0
	movq	-56(%rbp), %rdi
	movq	-40(%rbp), %rsi
LEHB69:
	call	__ZNSsC1ERKSs
LEHE69:
	.loc 15 2122 0
	movq	-56(%rbp), %rdi
	movq	-48(%rbp), %rsi
LEHB70:
	call	__ZNSs6appendEPKc
LEHE70:
	jmp	L913
L916:
	movq	%rax, -64(%rbp)
L914:
	movq	-64(%rbp), %rbx
	.loc 15 2123 0
	movq	-56(%rbp), %rdi
	call	__ZNSsD1Ev
	movq	%rbx, -64(%rbp)
	movq	-64(%rbp), %rdi
LEHB71:
	call	__Unwind_Resume
LEHE71:
L913:
LBE66:
	movq	-56(%rbp), %rax
	addq	$56, %rsp
	popq	%rbx
	leave
	ret
LFE2181:
	.section __TEXT,__gcc_except_tab
GCC_except_table16:
LLSDA2181:
	.byte	0xff
	.byte	0xff
	.byte	0x3
	.byte	0x27
	.set L$set$172,LEHB69-LFB2181
	.long L$set$172
	.set L$set$173,LEHE69-LEHB69
	.long L$set$173
	.long	0x0
	.byte	0x0
	.set L$set$174,LEHB70-LFB2181
	.long L$set$174
	.set L$set$175,LEHE70-LEHB70
	.long L$set$175
	.set L$set$176,L916-LFB2181
	.long L$set$176
	.byte	0x0
	.set L$set$177,LEHB71-LFB2181
	.long L$set$177
	.set L$set$178,LEHE71-LEHB71
	.long L$set$178
	.long	0x0
	.byte	0x0
	.section __TEXT,__textcoal_nt,coalesced,pure_instructions
	.align 1
.globl __ZN9__gnu_cxx13new_allocatorISsE9constructEPSsRKSs
	.weak_definition __ZN9__gnu_cxx13new_allocatorISsE9constructEPSsRKSs
	.private_extern __ZN9__gnu_cxx13new_allocatorISsE9constructEPSsRKSs
__ZN9__gnu_cxx13new_allocatorISsE9constructEPSsRKSs:
LFB2292:
	.loc 10 106 0
	nop
	nop
	nop
	nop
	nop
	nop
	pushq	%rbp
LCFI934:
	movq	%rsp, %rbp
LCFI935:
	pushq	%rbx
LCFI936:
	subq	$56, %rsp
LCFI937:
	movq	%rdi, -24(%rbp)
	movq	%rsi, -32(%rbp)
	movq	%rdx, -40(%rbp)
	.loc 10 107 0
	movq	-32(%rbp), %rsi
	movl	$8, %edi
	call	__ZnwmPv
	movq	%rax, -48(%rbp)
	cmpq	$0, -48(%rbp)
	je	L922
	movq	-40(%rbp), %rsi
	movq	-48(%rbp), %rdi
LEHB72:
	call	__ZNSsC1ERKSs
LEHE72:
	jmp	L922
L923:
	movq	%rax, -56(%rbp)
L921:
	movq	-56(%rbp), %rbx
	movq	-32(%rbp), %rsi
	movq	-48(%rbp), %rdi
	call	__ZdlPvS_
	movq	%rbx, -56(%rbp)
	movq	-56(%rbp), %rdi
LEHB73:
	call	__Unwind_Resume
LEHE73:
L922:
	addq	$56, %rsp
	popq	%rbx
	leave
	ret
LFE2292:
	.section __TEXT,__gcc_except_tab
GCC_except_table17:
LLSDA2292:
	.byte	0xff
	.byte	0xff
	.byte	0x3
	.byte	0x1a
	.set L$set$179,LEHB72-LFB2292
	.long L$set$179
	.set L$set$180,LEHE72-LEHB72
	.long L$set$180
	.set L$set$181,L923-LFB2292
	.long L$set$181
	.byte	0x0
	.set L$set$182,LEHB73-LFB2292
	.long L$set$182
	.set L$set$183,LEHE73-LEHB73
	.long L$set$183
	.long	0x0
	.byte	0x0
	.section __TEXT,__textcoal_nt,coalesced,pure_instructions
.globl __ZSt10_ConstructISsSsEvPT_RKT0_
	.weak_definition __ZSt10_ConstructISsSsEvPT_RKT0_
__ZSt10_ConstructISsSsEvPT_RKT0_:
LFB2723:
	.loc 16 77 0
	nop
	nop
	nop
	nop
	nop
	nop
	pushq	%rbp
LCFI938:
	movq	%rsp, %rbp
LCFI939:
	pushq	%rbx
LCFI940:
	subq	$40, %rsp
LCFI941:
	movq	%rdi, -24(%rbp)
	movq	%rsi, -32(%rbp)
	.loc 16 81 0
	movq	-24(%rbp), %rsi
	movl	$8, %edi
	call	__ZnwmPv
	movq	%rax, -40(%rbp)
	cmpq	$0, -40(%rbp)
	je	L929
	movq	-32(%rbp), %rsi
	movq	-40(%rbp), %rdi
LEHB74:
	call	__ZNSsC1ERKSs
LEHE74:
	jmp	L929
L930:
	movq	%rax, -48(%rbp)
L928:
	movq	-48(%rbp), %rbx
	movq	-24(%rbp), %rsi
	movq	-40(%rbp), %rdi
	call	__ZdlPvS_
	movq	%rbx, -48(%rbp)
	movq	-48(%rbp), %rdi
LEHB75:
	call	__Unwind_Resume
LEHE75:
L929:
	addq	$40, %rsp
	popq	%rbx
	leave
	ret
LFE2723:
	.section __TEXT,__gcc_except_tab
GCC_except_table18:
LLSDA2723:
	.byte	0xff
	.byte	0xff
	.byte	0x3
	.byte	0x1a
	.set L$set$184,LEHB74-LFB2723
	.long L$set$184
	.set L$set$185,LEHE74-LEHB74
	.long L$set$185
	.set L$set$186,L930-LFB2723
	.long L$set$186
	.byte	0x0
	.set L$set$187,LEHB75-LFB2723
	.long L$set$187
	.set L$set$188,LEHE75-LEHB75
	.long L$set$188
	.long	0x0
	.byte	0x0
	.section __TEXT,__textcoal_nt,coalesced,pure_instructions
	.align 1
.globl __ZNSt4pairIKSsiEC1ERS0_RKi
	.weak_definition __ZNSt4pairIKSsiEC1ERS0_RKi
	.private_extern __ZNSt4pairIKSsiEC1ERS0_RKi
__ZNSt4pairIKSsiEC1ERS0_RKi:
LFB2338:
	.loc 9 84 0
	nop
	nop
	nop
	nop
	nop
	nop
	pushq	%rbp
LCFI942:
	movq	%rsp, %rbp
LCFI943:
	subq	$32, %rsp
LCFI944:
	movq	%rdi, -8(%rbp)
	movq	%rsi, -16(%rbp)
	movq	%rdx, -24(%rbp)
LBB67:
	.loc 9 85 0
	movq	-8(%rbp), %rdi
	movq	-16(%rbp), %rsi
	call	__ZNSsC1ERKSs
	movq	-24(%rbp), %rax
	movl	(%rax), %edx
	movq	-8(%rbp), %rax
	movl	%edx, 8(%rax)
LBE67:
	leave
	ret
LFE2338:
	.align 1
.globl __ZNSt4pairIKiSsEC1ERS0_RKSs
	.weak_definition __ZNSt4pairIKiSsEC1ERS0_RKSs
	.private_extern __ZNSt4pairIKiSsEC1ERS0_RKSs
__ZNSt4pairIKiSsEC1ERS0_RKSs:
LFB2366:
	.loc 9 84 0
	nop
	nop
	nop
	nop
	nop
	nop
	pushq	%rbp
LCFI945:
	movq	%rsp, %rbp
LCFI946:
	subq	$32, %rsp
LCFI947:
	movq	%rdi, -8(%rbp)
	movq	%rsi, -16(%rbp)
	movq	%rdx, -24(%rbp)
LBB68:
	.loc 9 85 0
	movq	-16(%rbp), %rax
	movl	(%rax), %edx
	movq	-8(%rbp), %rax
	movl	%edx, (%rax)
	movq	-8(%rbp), %rdi
	addq	$8, %rdi
	movq	-24(%rbp), %rsi
	call	__ZNSsC1ERKSs
LBE68:
	leave
	ret
LFE2366:
	.text
.globl __Z4nextv
__Z4nextv:
LFB1991:
	.loc 7 72 0
	nop
	nop
	nop
	nop
	nop
	nop
	pushq	%rbp
LCFI948:
	movq	%rsp, %rbp
LCFI949:
	pushq	%rbx
LCFI950:
	subq	$8, %rsp
LCFI951:
	movq	%rdi, %rbx
	.loc 7 73 0
	call	__Z5blankv
	.loc 7 74 0
	call	__Z9nextTokenv
	.loc 7 75 0
	movq	%rbx, %rdi
	movq	_sval@GOTPCREL(%rip), %rsi
	call	__ZNSsC1ERKSs
	.loc 7 76 0
	movq	%rbx, %rax
	addq	$8, %rsp
	popq	%rbx
	leave
	ret
LFE1991:
	.section __TEXT,__textcoal_nt,coalesced,pure_instructions
	.align 1
.globl __ZNSt17_Rb_tree_iteratorISt4pairIKSsiEEppEi
	.weak_definition __ZNSt17_Rb_tree_iteratorISt4pairIKSsiEEppEi
	.private_extern __ZNSt17_Rb_tree_iteratorISt4pairIKSsiEEppEi
__ZNSt17_Rb_tree_iteratorISt4pairIKSsiEEppEi:
LFB2113:
	.loc 3 190 0
	nop
	nop
	nop
	nop
	nop
	nop
	pushq	%rbp
LCFI952:
	movq	%rsp, %rbp
LCFI953:
	subq	$32, %rsp
LCFI954:
	movq	%rdi, -24(%rbp)
	movl	%esi, -28(%rbp)
LBB69:
	.loc 3 192 0
	movq	-24(%rbp), %rax
	movq	(%rax), %rax
	movq	%rax, -16(%rbp)
	.loc 3 193 0
	movq	-24(%rbp), %rax
	movq	(%rax), %rdi
	call	__ZSt18_Rb_tree_incrementPSt18_Rb_tree_node_base
	movq	%rax, %rdx
	movq	-24(%rbp), %rax
	movq	%rdx, (%rax)
	.loc 3 194 0
	movq	-16(%rbp), %rax
LBE69:
	leave
	ret
LFE2113:
	.align 1
.globl __ZNSt17_Rb_tree_iteratorISt4pairIKSsiEEppEv
	.weak_definition __ZNSt17_Rb_tree_iteratorISt4pairIKSsiEEppEv
	.private_extern __ZNSt17_Rb_tree_iteratorISt4pairIKSsiEEppEv
__ZNSt17_Rb_tree_iteratorISt4pairIKSsiEEppEv:
LFB2656:
	.loc 3 183 0
	nop
	nop
	nop
	nop
	nop
	nop
	pushq	%rbp
LCFI955:
	movq	%rsp, %rbp
LCFI956:
	subq	$16, %rsp
LCFI957:
	movq	%rdi, -8(%rbp)
	.loc 3 185 0
	movq	-8(%rbp), %rax
	movq	(%rax), %rdi
	call	__ZSt18_Rb_tree_incrementPSt18_Rb_tree_node_base
	movq	%rax, %rdx
	movq	-8(%rbp), %rax
	movq	%rdx, (%rax)
	.loc 3 186 0
	movq	-8(%rbp), %rax
	leave
	ret
LFE2656:
	.align 1
.globl __ZNSt17_Rb_tree_iteratorISt4pairIKSs5TableEEppEv
	.weak_definition __ZNSt17_Rb_tree_iteratorISt4pairIKSs5TableEEppEv
	.private_extern __ZNSt17_Rb_tree_iteratorISt4pairIKSs5TableEEppEv
__ZNSt17_Rb_tree_iteratorISt4pairIKSs5TableEEppEv:
LFB2628:
	.loc 3 183 0
	nop
	nop
	nop
	nop
	nop
	nop
	pushq	%rbp
LCFI958:
	movq	%rsp, %rbp
LCFI959:
	subq	$16, %rsp
LCFI960:
	movq	%rdi, -8(%rbp)
	.loc 3 185 0
	movq	-8(%rbp), %rax
	movq	(%rax), %rdi
	call	__ZSt18_Rb_tree_incrementPSt18_Rb_tree_node_base
	movq	%rax, %rdx
	movq	-8(%rbp), %rax
	movq	%rdx, (%rax)
	.loc 3 186 0
	movq	-8(%rbp), %rax
	leave
	ret
LFE2628:
	.align 1
.globl __ZNSt17_Rb_tree_iteratorISt4pairIKiSsEEppEv
	.weak_definition __ZNSt17_Rb_tree_iteratorISt4pairIKiSsEEppEv
	.private_extern __ZNSt17_Rb_tree_iteratorISt4pairIKiSsEEppEv
__ZNSt17_Rb_tree_iteratorISt4pairIKiSsEEppEv:
LFB2666:
	.loc 3 183 0
	nop
	nop
	nop
	nop
	nop
	nop
	pushq	%rbp
LCFI961:
	movq	%rsp, %rbp
LCFI962:
	subq	$16, %rsp
LCFI963:
	movq	%rdi, -8(%rbp)
	.loc 3 185 0
	movq	-8(%rbp), %rax
	movq	(%rax), %rdi
	call	__ZSt18_Rb_tree_incrementPSt18_Rb_tree_node_base
	movq	%rax, %rdx
	movq	-8(%rbp), %rax
	movq	%rdx, (%rax)
	.loc 3 186 0
	movq	-8(%rbp), %rax
	leave
	ret
LFE2666:
	.align 1
.globl __ZNSt17_Rb_tree_iteratorISt4pairIKSs5TableEEppEi
	.weak_definition __ZNSt17_Rb_tree_iteratorISt4pairIKSs5TableEEppEi
	.private_extern __ZNSt17_Rb_tree_iteratorISt4pairIKSs5TableEEppEi
__ZNSt17_Rb_tree_iteratorISt4pairIKSs5TableEEppEi:
LFB2143:
	.loc 3 190 0
	nop
	nop
	nop
	nop
	nop
	nop
	pushq	%rbp
LCFI964:
	movq	%rsp, %rbp
LCFI965:
	subq	$32, %rsp
LCFI966:
	movq	%rdi, -24(%rbp)
	movl	%esi, -28(%rbp)
LBB70:
	.loc 3 192 0
	movq	-24(%rbp), %rax
	movq	(%rax), %rax
	movq	%rax, -16(%rbp)
	.loc 3 193 0
	movq	-24(%rbp), %rax
	movq	(%rax), %rdi
	call	__ZSt18_Rb_tree_incrementPSt18_Rb_tree_node_base
	movq	%rax, %rdx
	movq	-24(%rbp), %rax
	movq	%rdx, (%rax)
	.loc 3 194 0
	movq	-16(%rbp), %rax
LBE70:
	leave
	ret
LFE2143:
.globl __ZSt24__uninitialized_copy_auxIPSsS0_ET0_T_S2_S1_St12__false_type
	.weak_definition __ZSt24__uninitialized_copy_auxIPSsS0_ET0_T_S2_S1_St12__false_type
__ZSt24__uninitialized_copy_auxIPSsS0_ET0_T_S2_S1_St12__false_type:
LFB2648:
	.file 18 "/Developer/SDKs/MacOSX10.6.sdk/usr/include/c++/4.2.1/bits/stl_uninitialized.h"
	.loc 18 81 0
	nop
	nop
	nop
	nop
	nop
	nop
	pushq	%rbp
LCFI967:
	movq	%rsp, %rbp
LCFI968:
	pushq	%rbx
LCFI969:
	subq	$72, %rsp
LCFI970:
	movq	%rdi, -40(%rbp)
	movq	%rsi, -48(%rbp)
	movq	%rdx, -56(%rbp)
LBB71:
	.loc 18 83 0
	movq	-56(%rbp), %rax
	movq	%rax, -24(%rbp)
	.loc 18 86 0
	jmp	L948
L949:
	.loc 18 87 0
	movq	-40(%rbp), %rsi
	movq	-24(%rbp), %rdi
LEHB76:
	call	__ZSt10_ConstructISsSsEvPT_RKT0_
LEHE76:
	.loc 18 86 0
	addq	$8, -40(%rbp)
	addq	$8, -24(%rbp)
L948:
	movq	-40(%rbp), %rax
	cmpq	-48(%rbp), %rax
	jne	L949
	.loc 18 88 0
	movq	-24(%rbp), %rax
	movq	%rax, -64(%rbp)
	jmp	L947
L956:
	movq	%rax, -72(%rbp)
L951:
	.loc 18 90 0
	movq	-72(%rbp), %rdi
	call	___cxa_begin_catch
	.loc 18 92 0
	movq	-24(%rbp), %rsi
	movq	-56(%rbp), %rdi
LEHB77:
	call	__ZSt8_DestroyIPSsEvT_S1_
	.loc 18 93 0
	call	___cxa_rethrow
LEHE77:
L955:
	movq	%rax, -72(%rbp)
L952:
	movq	-72(%rbp), %rbx
	.loc 18 90 0
	call	___cxa_end_catch
	movq	%rbx, -72(%rbp)
	movq	-72(%rbp), %rdi
LEHB78:
	call	__Unwind_Resume
LEHE78:
L947:
LBE71:
	.loc 18 93 0
	movq	-64(%rbp), %rax
	addq	$72, %rsp
	popq	%rbx
	leave
	ret
LFE2648:
	.section __TEXT,__gcc_except_tab
	.align 2
GCC_except_table19:
LLSDA2648:
	.byte	0xff
	.byte	0x9b
	.byte	0x31
	.byte	0x3
	.byte	0x27
	.set L$set$189,LEHB76-LFB2648
	.long L$set$189
	.set L$set$190,LEHE76-LEHB76
	.long L$set$190
	.set L$set$191,L956-LFB2648
	.long L$set$191
	.byte	0x1
	.set L$set$192,LEHB77-LFB2648
	.long L$set$192
	.set L$set$193,LEHE77-LEHB77
	.long L$set$193
	.set L$set$194,L955-LFB2648
	.long L$set$194
	.byte	0x0
	.set L$set$195,LEHB78-LFB2648
	.long L$set$195
	.set L$set$196,LEHE78-LEHB78
	.long L$set$196
	.long	0x0
	.byte	0x0
	.byte	0x1
	.byte	0x0
	.align 2
	.long	0

	.section __TEXT,__textcoal_nt,coalesced,pure_instructions
.globl __ZSt18uninitialized_copyIPSsS0_ET0_T_S2_S1_
	.weak_definition __ZSt18uninitialized_copyIPSsS0_ET0_T_S2_S1_
__ZSt18uninitialized_copyIPSsS0_ET0_T_S2_S1_:
LFB2528:
	.loc 18 109 0
	nop
	nop
	nop
	nop
	nop
	nop
	pushq	%rbp
LCFI971:
	movq	%rsp, %rbp
LCFI972:
	subq	$48, %rsp
LCFI973:
	movq	%rdi, -8(%rbp)
	movq	%rsi, -16(%rbp)
	movq	%rdx, -24(%rbp)
LBB72:
	.loc 18 114 0
	movq	-24(%rbp), %rdx
	movq	-16(%rbp), %rsi
	movq	-8(%rbp), %rdi
	movzbl	-25(%rbp), %eax
	movb	%al, (%rsp)
	call	__ZSt24__uninitialized_copy_auxIPSsS0_ET0_T_S2_S1_St12__false_type
LBE72:
	leave
	ret
LFE2528:
.globl __ZSt22__uninitialized_copy_aIPSsS0_SsET0_T_S2_S1_SaIT1_E
	.weak_definition __ZSt22__uninitialized_copy_aIPSsS0_SsET0_T_S2_S1_SaIT1_E
__ZSt22__uninitialized_copy_aIPSsS0_SsET0_T_S2_S1_SaIT1_E:
LFB2332:
	.loc 18 253 0
	nop
	nop
	nop
	nop
	nop
	nop
	pushq	%rbp
LCFI974:
	movq	%rsp, %rbp
LCFI975:
	subq	$32, %rsp
LCFI976:
	movq	%rdi, -8(%rbp)
	movq	%rsi, -16(%rbp)
	movq	%rdx, -24(%rbp)
	movq	%rcx, -32(%rbp)
	.loc 18 254 0
	movq	-24(%rbp), %rdx
	movq	-16(%rbp), %rsi
	movq	-8(%rbp), %rdi
	call	__ZSt18uninitialized_copyIPSsS0_ET0_T_S2_S1_
	leave
	ret
LFE2332:
.globl __ZSt24__uninitialized_copy_auxIN9__gnu_cxx17__normal_iteratorIPKSsSt6vectorISsSaISsEEEEPSsET0_T_SA_S9_St12__false_type
	.weak_definition __ZSt24__uninitialized_copy_auxIN9__gnu_cxx17__normal_iteratorIPKSsSt6vectorISsSaISsEEEEPSsET0_T_SA_S9_St12__false_type
__ZSt24__uninitialized_copy_auxIN9__gnu_cxx17__normal_iteratorIPKSsSt6vectorISsSaISsEEEEPSsET0_T_SA_S9_St12__false_type:
LFB2718:
	.loc 18 81 0
	nop
	nop
	nop
	nop
	nop
	nop
	pushq	%rbp
LCFI977:
	movq	%rsp, %rbp
LCFI978:
	pushq	%rbx
LCFI979:
	subq	$72, %rsp
LCFI980:
	movq	%rdi, -40(%rbp)
	movq	%rsi, -48(%rbp)
	movq	%rdx, -56(%rbp)
LBB73:
	.loc 18 83 0
	movq	-56(%rbp), %rax
	movq	%rax, -24(%rbp)
	.loc 18 86 0
	jmp	L962
L963:
	.loc 18 87 0
	leaq	-40(%rbp), %rdi
	call	__ZNK9__gnu_cxx17__normal_iteratorIPKSsSt6vectorISsSaISsEEEdeEv
	movq	%rax, %rsi
	movq	-24(%rbp), %rdi
LEHB79:
	call	__ZSt10_ConstructISsSsEvPT_RKT0_
LEHE79:
	.loc 18 86 0
	leaq	-40(%rbp), %rdi
	call	__ZN9__gnu_cxx17__normal_iteratorIPKSsSt6vectorISsSaISsEEEppEv
	addq	$8, -24(%rbp)
L962:
	leaq	-48(%rbp), %rsi
	leaq	-40(%rbp), %rdi
	call	__ZN9__gnu_cxxneIPKSsSt6vectorISsSaISsEEEEbRKNS_17__normal_iteratorIT_T0_EESB_
	testb	%al, %al
	jne	L963
	.loc 18 88 0
	movq	-24(%rbp), %rax
	movq	%rax, -64(%rbp)
	jmp	L961
L970:
	movq	%rax, -72(%rbp)
L965:
	.loc 18 90 0
	movq	-72(%rbp), %rdi
	call	___cxa_begin_catch
	.loc 18 92 0
	movq	-24(%rbp), %rsi
	movq	-56(%rbp), %rdi
LEHB80:
	call	__ZSt8_DestroyIPSsEvT_S1_
	.loc 18 93 0
	call	___cxa_rethrow
LEHE80:
L969:
	movq	%rax, -72(%rbp)
L966:
	movq	-72(%rbp), %rbx
	.loc 18 90 0
	call	___cxa_end_catch
	movq	%rbx, -72(%rbp)
	movq	-72(%rbp), %rdi
LEHB81:
	call	__Unwind_Resume
LEHE81:
L961:
LBE73:
	.loc 18 93 0
	movq	-64(%rbp), %rax
	addq	$72, %rsp
	popq	%rbx
	leave
	ret
LFE2718:
	.section __TEXT,__gcc_except_tab
	.align 2
GCC_except_table20:
LLSDA2718:
	.byte	0xff
	.byte	0x9b
	.byte	0x31
	.byte	0x3
	.byte	0x27
	.set L$set$197,LEHB79-LFB2718
	.long L$set$197
	.set L$set$198,LEHE79-LEHB79
	.long L$set$198
	.set L$set$199,L970-LFB2718
	.long L$set$199
	.byte	0x1
	.set L$set$200,LEHB80-LFB2718
	.long L$set$200
	.set L$set$201,LEHE80-LEHB80
	.long L$set$201
	.set L$set$202,L969-LFB2718
	.long L$set$202
	.byte	0x0
	.set L$set$203,LEHB81-LFB2718
	.long L$set$203
	.set L$set$204,LEHE81-LEHB81
	.long L$set$204
	.long	0x0
	.byte	0x0
	.byte	0x1
	.byte	0x0
	.align 2
	.long	0

	.section __TEXT,__textcoal_nt,coalesced,pure_instructions
.globl __ZSt18uninitialized_copyIN9__gnu_cxx17__normal_iteratorIPKSsSt6vectorISsSaISsEEEEPSsET0_T_SA_S9_
	.weak_definition __ZSt18uninitialized_copyIN9__gnu_cxx17__normal_iteratorIPKSsSt6vectorISsSaISsEEEEPSsET0_T_SA_S9_
__ZSt18uninitialized_copyIN9__gnu_cxx17__normal_iteratorIPKSsSt6vectorISsSaISsEEEEPSsET0_T_SA_S9_:
LFB2643:
	.loc 18 109 0
	nop
	nop
	nop
	nop
	nop
	nop
	pushq	%rbp
LCFI981:
	movq	%rsp, %rbp
LCFI982:
	subq	$48, %rsp
LCFI983:
	movq	%rdi, -8(%rbp)
	movq	%rsi, -16(%rbp)
	movq	%rdx, -24(%rbp)
LBB74:
	.loc 18 114 0
	movq	-24(%rbp), %rdx
	movq	-16(%rbp), %rsi
	movq	-8(%rbp), %rdi
	movzbl	-25(%rbp), %eax
	movb	%al, (%rsp)
	call	__ZSt24__uninitialized_copy_auxIN9__gnu_cxx17__normal_iteratorIPKSsSt6vectorISsSaISsEEEEPSsET0_T_SA_S9_St12__false_type
LBE74:
	leave
	ret
LFE2643:
.globl __ZSt22__uninitialized_copy_aIN9__gnu_cxx17__normal_iteratorIPKSsSt6vectorISsSaISsEEEEPSsSsET0_T_SA_S9_SaIT1_E
	.weak_definition __ZSt22__uninitialized_copy_aIN9__gnu_cxx17__normal_iteratorIPKSsSt6vectorISsSaISsEEEEPSsSsET0_T_SA_S9_SaIT1_E
__ZSt22__uninitialized_copy_aIN9__gnu_cxx17__normal_iteratorIPKSsSt6vectorISsSaISsEEEEPSsSsET0_T_SA_S9_SaIT1_E:
LFB2523:
	.loc 18 253 0
	nop
	nop
	nop
	nop
	nop
	nop
	pushq	%rbp
LCFI984:
	movq	%rsp, %rbp
LCFI985:
	subq	$32, %rsp
LCFI986:
	movq	%rdi, -8(%rbp)
	movq	%rsi, -16(%rbp)
	movq	%rdx, -24(%rbp)
	movq	%rcx, -32(%rbp)
	.loc 18 254 0
	movq	-24(%rbp), %rdx
	movq	-16(%rbp), %rsi
	movq	-8(%rbp), %rdi
	call	__ZSt18uninitialized_copyIN9__gnu_cxx17__normal_iteratorIPKSsSt6vectorISsSaISsEEEEPSsET0_T_SA_S9_
	leave
	ret
LFE2523:
	.align 1
.globl __ZN9__gnu_cxx13new_allocatorISt13_Rb_tree_nodeISt4pairIKSsiEEE8allocateEmPKv
	.weak_definition __ZN9__gnu_cxx13new_allocatorISt13_Rb_tree_nodeISt4pairIKSsiEEE8allocateEmPKv
	.private_extern __ZN9__gnu_cxx13new_allocatorISt13_Rb_tree_nodeISt4pairIKSsiEEE8allocateEmPKv
__ZN9__gnu_cxx13new_allocatorISt13_Rb_tree_nodeISt4pairIKSsiEEE8allocateEmPKv:
LFB2757:
	.loc 10 86 0
	nop
	nop
	nop
	nop
	nop
	nop
	pushq	%rbp
LCFI987:
	movq	%rsp, %rbp
LCFI988:
	subq	$32, %rsp
LCFI989:
	movq	%rdi, -8(%rbp)
	movq	%rsi, -16(%rbp)
	movq	%rdx, -24(%rbp)
	.loc 10 88 0
	movq	-8(%rbp), %rdi
	call	__ZNK9__gnu_cxx13new_allocatorISt13_Rb_tree_nodeISt4pairIKSsiEEE8max_sizeEv
	cmpq	-16(%rbp), %rax
	setb	%al
	movzbl	%al, %eax
	testq	%rax, %rax
	setne	%al
	testb	%al, %al
	je	L976
	.loc 10 89 0
	call	__ZSt17__throw_bad_allocv
L976:
	.loc 10 91 0
	movq	-16(%rbp), %rdx
	movq	%rdx, %rax
	addq	%rax, %rax
	addq	%rdx, %rax
	salq	$4, %rax
	movq	%rax, %rdi
	call	__Znwm
	leave
	ret
LFE2757:
	.align 1
.globl __ZNSt8_Rb_treeISsSt4pairIKSsiESt10_Select1stIS2_ESt4lessISsESaIS2_EE11_M_get_nodeEv
	.weak_definition __ZNSt8_Rb_treeISsSt4pairIKSsiESt10_Select1stIS2_ESt4lessISsESaIS2_EE11_M_get_nodeEv
	.private_extern __ZNSt8_Rb_treeISsSt4pairIKSsiESt10_Select1stIS2_ESt4lessISsESaIS2_EE11_M_get_nodeEv
__ZNSt8_Rb_treeISsSt4pairIKSsiESt10_Select1stIS2_ESt4lessISsESaIS2_EE11_M_get_nodeEv:
LFB2748:
	.loc 3 368 0
	nop
	nop
	nop
	nop
	nop
	nop
	pushq	%rbp
LCFI990:
	movq	%rsp, %rbp
LCFI991:
	subq	$16, %rsp
LCFI992:
	movq	%rdi, -8(%rbp)
	.loc 3 369 0
	movq	-8(%rbp), %rax
	movq	%rax, %rdi
	movl	$0, %edx
	movl	$1, %esi
	call	__ZN9__gnu_cxx13new_allocatorISt13_Rb_tree_nodeISt4pairIKSsiEEE8allocateEmPKv
	leave
	ret
LFE2748:
	.align 1
.globl __ZNSt8_Rb_treeISsSt4pairIKSsiESt10_Select1stIS2_ESt4lessISsESaIS2_EE14_M_create_nodeERKS2_
	.weak_definition __ZNSt8_Rb_treeISsSt4pairIKSsiESt10_Select1stIS2_ESt4lessISsESaIS2_EE14_M_create_nodeERKS2_
	.private_extern __ZNSt8_Rb_treeISsSt4pairIKSsiESt10_Select1stIS2_ESt4lessISsESaIS2_EE14_M_create_nodeERKS2_
__ZNSt8_Rb_treeISsSt4pairIKSsiESt10_Select1stIS2_ESt4lessISsESaIS2_EE14_M_create_nodeERKS2_:
LFB2709:
	.loc 3 376 0
	nop
	nop
	nop
	nop
	nop
	nop
	pushq	%rbp
LCFI993:
	movq	%rsp, %rbp
LCFI994:
	pushq	%rbx
LCFI995:
	subq	$56, %rsp
LCFI996:
	movq	%rdi, -40(%rbp)
	movq	%rsi, -48(%rbp)
LBB75:
	.loc 3 378 0
	movq	-40(%rbp), %rdi
LEHB82:
	call	__ZNSt8_Rb_treeISsSt4pairIKSsiESt10_Select1stIS2_ESt4lessISsESaIS2_EE11_M_get_nodeEv
LEHE82:
	movq	%rax, -32(%rbp)
	.loc 3 380 0
	movq	-32(%rbp), %rbx
	addq	$32, %rbx
	leaq	-17(%rbp), %rdi
	movq	-40(%rbp), %rsi
	call	__ZNKSt8_Rb_treeISsSt4pairIKSsiESt10_Select1stIS2_ESt4lessISsESaIS2_EE13get_allocatorEv
	leaq	-17(%rbp), %rdi
	movq	-48(%rbp), %rdx
	movq	%rbx, %rsi
LEHB83:
	call	__ZN9__gnu_cxx13new_allocatorISt4pairIKSsiEE9constructEPS3_RKS3_
LEHE83:
	leaq	-17(%rbp), %rdi
	call	__ZNSaISt4pairIKSsiEED1Ev
	.loc 3 386 0
	movq	-32(%rbp), %rax
	movq	%rax, -56(%rbp)
	jmp	L981
L988:
	movq	%rax, -64(%rbp)
L982:
	movq	-64(%rbp), %rbx
	.loc 3 380 0
	leaq	-17(%rbp), %rdi
	call	__ZNSaISt4pairIKSsiEED1Ev
	movq	%rbx, -64(%rbp)
L989:
L983:
	.loc 3 381 0
	movq	-64(%rbp), %rdi
	call	___cxa_begin_catch
	.loc 3 383 0
	movq	-32(%rbp), %rsi
	movq	-40(%rbp), %rdi
	call	__ZNSt8_Rb_treeISsSt4pairIKSsiESt10_Select1stIS2_ESt4lessISsESaIS2_EE11_M_put_nodeEPSt13_Rb_tree_nodeIS2_E
LEHB84:
	.loc 3 384 0
	call	___cxa_rethrow
LEHE84:
L987:
	movq	%rax, -64(%rbp)
L984:
	movq	-64(%rbp), %rbx
	.loc 3 381 0
	call	___cxa_end_catch
	movq	%rbx, -64(%rbp)
	movq	-64(%rbp), %rdi
LEHB85:
	call	__Unwind_Resume
LEHE85:
L981:
LBE75:
	.loc 3 386 0
	movq	-56(%rbp), %rax
	addq	$56, %rsp
	popq	%rbx
	leave
	ret
LFE2709:
	.section __TEXT,__gcc_except_tab
	.align 2
GCC_except_table21:
LLSDA2709:
	.byte	0xff
	.byte	0x9b
	.byte	0x41
	.byte	0x3
	.byte	0x34
	.set L$set$205,LEHB82-LFB2709
	.long L$set$205
	.set L$set$206,LEHE82-LEHB82
	.long L$set$206
	.long	0x0
	.byte	0x0
	.set L$set$207,LEHB83-LFB2709
	.long L$set$207
	.set L$set$208,LEHE83-LEHB83
	.long L$set$208
	.set L$set$209,L988-LFB2709
	.long L$set$209
	.byte	0x3
	.set L$set$210,LEHB84-LFB2709
	.long L$set$210
	.set L$set$211,LEHE84-LEHB84
	.long L$set$211
	.set L$set$212,L987-LFB2709
	.long L$set$212
	.byte	0x0
	.set L$set$213,LEHB85-LFB2709
	.long L$set$213
	.set L$set$214,LEHE85-LEHB85
	.long L$set$214
	.long	0x0
	.byte	0x0
	.byte	0x1
	.byte	0x0
	.byte	0x0
	.byte	0x7d
	.align 2
	.long	0

	.section __TEXT,__textcoal_nt,coalesced,pure_instructions
	.align 1
.globl __ZNSt8_Rb_treeISsSt4pairIKSsiESt10_Select1stIS2_ESt4lessISsESaIS2_EE13_M_clone_nodeEPKSt13_Rb_tree_nodeIS2_E
	.weak_definition __ZNSt8_Rb_treeISsSt4pairIKSsiESt10_Select1stIS2_ESt4lessISsESaIS2_EE13_M_clone_nodeEPKSt13_Rb_tree_nodeIS2_E
	.private_extern __ZNSt8_Rb_treeISsSt4pairIKSsiESt10_Select1stIS2_ESt4lessISsESaIS2_EE13_M_clone_nodeEPKSt13_Rb_tree_nodeIS2_E
__ZNSt8_Rb_treeISsSt4pairIKSsiESt10_Select1stIS2_ESt4lessISsESaIS2_EE13_M_clone_nodeEPKSt13_Rb_tree_nodeIS2_E:
LFB2632:
	.loc 3 390 0
	nop
	nop
	nop
	nop
	nop
	nop
	pushq	%rbp
LCFI997:
	movq	%rsp, %rbp
LCFI998:
	subq	$32, %rsp
LCFI999:
	movq	%rdi, -24(%rbp)
	movq	%rsi, -32(%rbp)
LBB76:
	.loc 3 392 0
	movq	-32(%rbp), %rsi
	addq	$32, %rsi
	movq	-24(%rbp), %rdi
	call	__ZNSt8_Rb_treeISsSt4pairIKSsiESt10_Select1stIS2_ESt4lessISsESaIS2_EE14_M_create_nodeERKS2_
	movq	%rax, -8(%rbp)
	.loc 3 393 0
	movq	-32(%rbp), %rax
	movl	(%rax), %edx
	movq	-8(%rbp), %rax
	movl	%edx, (%rax)
	.loc 3 394 0
	movq	-8(%rbp), %rax
	movq	$0, 16(%rax)
	.loc 3 395 0
	movq	-8(%rbp), %rax
	movq	$0, 24(%rax)
	.loc 3 396 0
	movq	-8(%rbp), %rax
LBE76:
	leave
	ret
LFE2632:
	.align 1
.globl __ZNSt8_Rb_treeISsSt4pairIKSsiESt10_Select1stIS2_ESt4lessISsESaIS2_EE7_M_copyEPKSt13_Rb_tree_nodeIS2_EPSA_
	.weak_definition __ZNSt8_Rb_treeISsSt4pairIKSsiESt10_Select1stIS2_ESt4lessISsESaIS2_EE7_M_copyEPKSt13_Rb_tree_nodeIS2_EPSA_
__ZNSt8_Rb_treeISsSt4pairIKSsiESt10_Select1stIS2_ESt4lessISsESaIS2_EE7_M_copyEPKSt13_Rb_tree_nodeIS2_EPSA_:
LFB2496:
	.loc 3 1284 0
	nop
	nop
	nop
	nop
	nop
	nop
	pushq	%rbp
LCFI1000:
	movq	%rsp, %rbp
LCFI1001:
	pushq	%rbx
LCFI1002:
	subq	$72, %rsp
LCFI1003:
	movq	%rdi, -40(%rbp)
	movq	%rsi, -48(%rbp)
	movq	%rdx, -56(%rbp)
LBB77:
	.loc 3 1287 0
	movq	-48(%rbp), %rsi
	movq	-40(%rbp), %rdi
LEHB86:
	call	__ZNSt8_Rb_treeISsSt4pairIKSsiESt10_Select1stIS2_ESt4lessISsESaIS2_EE13_M_clone_nodeEPKSt13_Rb_tree_nodeIS2_E
LEHE86:
	movq	%rax, -24(%rbp)
	.loc 3 1288 0
	movq	-56(%rbp), %rdx
	movq	-24(%rbp), %rax
	movq	%rdx, 8(%rax)
	.loc 3 1292 0
	movq	-48(%rbp), %rax
	movq	24(%rax), %rax
	testq	%rax, %rax
	je	L993
	.loc 3 1293 0
	movq	-48(%rbp), %rdi
	call	__ZNSt8_Rb_treeISsSt4pairIKSsiESt10_Select1stIS2_ESt4lessISsESaIS2_EE8_S_rightEPKSt18_Rb_tree_node_base
	movq	%rax, %rsi
	movq	-24(%rbp), %rdx
	movq	-40(%rbp), %rdi
LEHB87:
	call	__ZNSt8_Rb_treeISsSt4pairIKSsiESt10_Select1stIS2_ESt4lessISsESaIS2_EE7_M_copyEPKSt13_Rb_tree_nodeIS2_EPSA_
	movq	%rax, %rdx
	movq	-24(%rbp), %rax
	movq	%rdx, 24(%rax)
L993:
	.loc 3 1294 0
	movq	-24(%rbp), %rax
	movq	%rax, -56(%rbp)
	.loc 3 1295 0
	movq	-48(%rbp), %rdi
	call	__ZNSt8_Rb_treeISsSt4pairIKSsiESt10_Select1stIS2_ESt4lessISsESaIS2_EE7_S_leftEPKSt18_Rb_tree_node_base
	movq	%rax, -48(%rbp)
	.loc 3 1297 0
	jmp	L995
L996:
LBB78:
	.loc 3 1299 0
	movq	-48(%rbp), %rsi
	movq	-40(%rbp), %rdi
	call	__ZNSt8_Rb_treeISsSt4pairIKSsiESt10_Select1stIS2_ESt4lessISsESaIS2_EE13_M_clone_nodeEPKSt13_Rb_tree_nodeIS2_E
	movq	%rax, -32(%rbp)
	.loc 3 1300 0
	movq	-32(%rbp), %rdx
	movq	-56(%rbp), %rax
	movq	%rdx, 16(%rax)
	.loc 3 1301 0
	movq	-56(%rbp), %rdx
	movq	-32(%rbp), %rax
	movq	%rdx, 8(%rax)
	.loc 3 1302 0
	movq	-48(%rbp), %rax
	movq	24(%rax), %rax
	testq	%rax, %rax
	je	L997
	.loc 3 1303 0
	movq	-48(%rbp), %rdi
	call	__ZNSt8_Rb_treeISsSt4pairIKSsiESt10_Select1stIS2_ESt4lessISsESaIS2_EE8_S_rightEPKSt18_Rb_tree_node_base
	movq	%rax, %rsi
	movq	-32(%rbp), %rdx
	movq	-40(%rbp), %rdi
	call	__ZNSt8_Rb_treeISsSt4pairIKSsiESt10_Select1stIS2_ESt4lessISsESaIS2_EE7_M_copyEPKSt13_Rb_tree_nodeIS2_EPSA_
LEHE87:
	movq	%rax, %rdx
	movq	-32(%rbp), %rax
	movq	%rdx, 24(%rax)
L997:
	.loc 3 1304 0
	movq	-32(%rbp), %rax
	movq	%rax, -56(%rbp)
	.loc 3 1305 0
	movq	-48(%rbp), %rdi
	call	__ZNSt8_Rb_treeISsSt4pairIKSsiESt10_Select1stIS2_ESt4lessISsESaIS2_EE7_S_leftEPKSt18_Rb_tree_node_base
	movq	%rax, -48(%rbp)
L995:
LBE78:
	.loc 3 1297 0
	cmpq	$0, -48(%rbp)
	jne	L996
	.loc 3 1313 0
	movq	-24(%rbp), %rax
	movq	%rax, -64(%rbp)
	jmp	L992
L1005:
	movq	%rax, -72(%rbp)
L1000:
	.loc 3 1308 0
	movq	-72(%rbp), %rdi
	call	___cxa_begin_catch
	.loc 3 1310 0
	movq	-24(%rbp), %rsi
	movq	-40(%rbp), %rdi
LEHB88:
	call	__ZNSt8_Rb_treeISsSt4pairIKSsiESt10_Select1stIS2_ESt4lessISsESaIS2_EE8_M_eraseEPSt13_Rb_tree_nodeIS2_E
	.loc 3 1311 0
	call	___cxa_rethrow
LEHE88:
L1004:
	movq	%rax, -72(%rbp)
L1001:
	movq	-72(%rbp), %rbx
	.loc 3 1308 0
	call	___cxa_end_catch
	movq	%rbx, -72(%rbp)
	movq	-72(%rbp), %rdi
LEHB89:
	call	__Unwind_Resume
LEHE89:
L992:
LBE77:
	.loc 3 1313 0
	movq	-64(%rbp), %rax
	addq	$72, %rsp
	popq	%rbx
	leave
	ret
LFE2496:
	.section __TEXT,__gcc_except_tab
	.align 2
GCC_except_table22:
LLSDA2496:
	.byte	0xff
	.byte	0x9b
	.byte	0x3d
	.byte	0x3
	.byte	0x34
	.set L$set$215,LEHB86-LFB2496
	.long L$set$215
	.set L$set$216,LEHE86-LEHB86
	.long L$set$216
	.long	0x0
	.byte	0x0
	.set L$set$217,LEHB87-LFB2496
	.long L$set$217
	.set L$set$218,LEHE87-LEHB87
	.long L$set$218
	.set L$set$219,L1005-LFB2496
	.long L$set$219
	.byte	0x1
	.set L$set$220,LEHB88-LFB2496
	.long L$set$220
	.set L$set$221,LEHE88-LEHB88
	.long L$set$221
	.set L$set$222,L1004-LFB2496
	.long L$set$222
	.byte	0x0
	.set L$set$223,LEHB89-LFB2496
	.long L$set$223
	.set L$set$224,LEHE89-LEHB89
	.long L$set$224
	.long	0x0
	.byte	0x0
	.byte	0x1
	.byte	0x0
	.align 2
	.long	0

	.section __TEXT,__textcoal_nt,coalesced,pure_instructions
	.align 1
.globl __ZNSt8_Rb_treeISsSt4pairIKSsiESt10_Select1stIS2_ESt4lessISsESaIS2_EEaSERKS8_
	.weak_definition __ZNSt8_Rb_treeISsSt4pairIKSsiESt10_Select1stIS2_ESt4lessISsESaIS2_EEaSERKS8_
__ZNSt8_Rb_treeISsSt4pairIKSsiESt10_Select1stIS2_ESt4lessISsESaIS2_EEaSERKS8_:
LFB2404:
	.loc 3 812 0
	nop
	nop
	nop
	nop
	nop
	nop
	pushq	%rbp
LCFI1004:
	movq	%rsp, %rbp
LCFI1005:
	pushq	%r12
LCFI1006:
	pushq	%rbx
LCFI1007:
	subq	$16, %rsp
LCFI1008:
	movq	%rdi, -24(%rbp)
	movq	%rsi, -32(%rbp)
	.loc 3 814 0
	movq	-24(%rbp), %rax
	cmpq	-32(%rbp), %rax
	je	L1007
	.loc 3 817 0
	movq	-24(%rbp), %rdi
	call	__ZNSt8_Rb_treeISsSt4pairIKSsiESt10_Select1stIS2_ESt4lessISsESaIS2_EE5clearEv
	.loc 3 819 0
	movq	-32(%rbp), %rdi
	call	__ZNKSt8_Rb_treeISsSt4pairIKSsiESt10_Select1stIS2_ESt4lessISsESaIS2_EE7_M_rootEv
	testq	%rax, %rax
	setne	%al
	testb	%al, %al
	je	L1007
	.loc 3 821 0
	movq	-24(%rbp), %rdi
	call	__ZNSt8_Rb_treeISsSt4pairIKSsiESt10_Select1stIS2_ESt4lessISsESaIS2_EE7_M_rootEv
	movq	%rax, %r12
	movq	-24(%rbp), %rdi
	call	__ZNSt8_Rb_treeISsSt4pairIKSsiESt10_Select1stIS2_ESt4lessISsESaIS2_EE6_M_endEv
	movq	%rax, %rbx
	movq	-32(%rbp), %rdi
	call	__ZNKSt8_Rb_treeISsSt4pairIKSsiESt10_Select1stIS2_ESt4lessISsESaIS2_EE8_M_beginEv
	movq	%rax, %rsi
	movq	-24(%rbp), %rdi
	movq	%rbx, %rdx
	call	__ZNSt8_Rb_treeISsSt4pairIKSsiESt10_Select1stIS2_ESt4lessISsESaIS2_EE7_M_copyEPKSt13_Rb_tree_nodeIS2_EPSA_
	movq	%rax, (%r12)
	.loc 3 822 0
	movq	-24(%rbp), %rdi
	call	__ZNSt8_Rb_treeISsSt4pairIKSsiESt10_Select1stIS2_ESt4lessISsESaIS2_EE11_M_leftmostEv
	movq	%rax, %rbx
	movq	-24(%rbp), %rdi
	call	__ZNSt8_Rb_treeISsSt4pairIKSsiESt10_Select1stIS2_ESt4lessISsESaIS2_EE7_M_rootEv
	movq	(%rax), %rdi
	call	__ZNSt8_Rb_treeISsSt4pairIKSsiESt10_Select1stIS2_ESt4lessISsESaIS2_EE10_S_minimumEPSt18_Rb_tree_node_base
	movq	%rax, (%rbx)
	.loc 3 823 0
	movq	-24(%rbp), %rdi
	call	__ZNSt8_Rb_treeISsSt4pairIKSsiESt10_Select1stIS2_ESt4lessISsESaIS2_EE12_M_rightmostEv
	movq	%rax, %rbx
	movq	-24(%rbp), %rdi
	call	__ZNSt8_Rb_treeISsSt4pairIKSsiESt10_Select1stIS2_ESt4lessISsESaIS2_EE7_M_rootEv
	movq	(%rax), %rdi
	call	__ZNSt8_Rb_treeISsSt4pairIKSsiESt10_Select1stIS2_ESt4lessISsESaIS2_EE10_S_maximumEPSt18_Rb_tree_node_base
	movq	%rax, (%rbx)
	.loc 3 824 0
	movq	-32(%rbp), %rax
	movq	40(%rax), %rdx
	movq	-24(%rbp), %rax
	movq	%rdx, 40(%rax)
L1007:
	.loc 3 827 0
	movq	-24(%rbp), %rax
	addq	$16, %rsp
	popq	%rbx
	popq	%r12
	leave
	ret
LFE2404:
	.align 1
.globl __ZNSt3mapISsiSt4lessISsESaISt4pairIKSsiEEEaSERKS6_
	.weak_definition __ZNSt3mapISsiSt4lessISsESaISt4pairIKSsiEEEaSERKS6_
	.private_extern __ZNSt3mapISsiSt4lessISsESaISt4pairIKSsiEEEaSERKS6_
__ZNSt3mapISsiSt4lessISsESaISt4pairIKSsiEEEaSERKS6_:
LFB2177:
	.loc 13 226 0
	nop
	nop
	nop
	nop
	nop
	nop
	pushq	%rbp
LCFI1009:
	movq	%rsp, %rbp
LCFI1010:
	subq	$16, %rsp
LCFI1011:
	movq	%rdi, -8(%rbp)
	movq	%rsi, -16(%rbp)
	.loc 13 228 0
	movq	-16(%rbp), %rsi
	movq	-8(%rbp), %rdi
	call	__ZNSt8_Rb_treeISsSt4pairIKSsiESt10_Select1stIS2_ESt4lessISsESaIS2_EEaSERKS8_
	.loc 13 229 0
	movq	-8(%rbp), %rax
	leave
	ret
LFE2177:
	.align 1
.globl __ZNSt8_Rb_treeISsSt4pairIKSsiESt10_Select1stIS2_ESt4lessISsESaIS2_EEC1ERKS8_
	.weak_definition __ZNSt8_Rb_treeISsSt4pairIKSsiESt10_Select1stIS2_ESt4lessISsESaIS2_EEC1ERKS8_
	.private_extern __ZNSt8_Rb_treeISsSt4pairIKSsiESt10_Select1stIS2_ESt4lessISsESaIS2_EEC1ERKS8_
__ZNSt8_Rb_treeISsSt4pairIKSsiESt10_Select1stIS2_ESt4lessISsESaIS2_EEC1ERKS8_:
LFB2305:
	.loc 3 581 0
	nop
	nop
	nop
	nop
	nop
	nop
	pushq	%rbp
LCFI1012:
	movq	%rsp, %rbp
LCFI1013:
	pushq	%rbx
LCFI1014:
	subq	$40, %rsp
LCFI1015:
	movq	%rdi, -24(%rbp)
	movq	%rsi, -32(%rbp)
LBB79:
	.loc 3 582 0
	movq	-32(%rbp), %rbx
	movq	-32(%rbp), %rdi
	call	__ZNKSt8_Rb_treeISsSt4pairIKSsiESt10_Select1stIS2_ESt4lessISsESaIS2_EE21_M_get_Node_allocatorEv
	movq	%rax, %rsi
	movq	-24(%rbp), %rdi
	movq	%rbx, %rdx
	call	__ZNSt8_Rb_treeISsSt4pairIKSsiESt10_Select1stIS2_ESt4lessISsESaIS2_EE13_Rb_tree_implIS6_Lb0EEC1ERKSaISt13_Rb_tree_nodeIS2_EERKS6_
	.loc 3 584 0
	movq	-32(%rbp), %rdi
	call	__ZNKSt8_Rb_treeISsSt4pairIKSsiESt10_Select1stIS2_ESt4lessISsESaIS2_EE7_M_rootEv
	testq	%rax, %rax
	setne	%al
	testb	%al, %al
	je	L1017
	.loc 3 586 0
	movq	-24(%rbp), %rdi
	call	__ZNSt8_Rb_treeISsSt4pairIKSsiESt10_Select1stIS2_ESt4lessISsESaIS2_EE7_M_rootEv
	movq	%rax, -40(%rbp)
	movq	-24(%rbp), %rdi
	call	__ZNSt8_Rb_treeISsSt4pairIKSsiESt10_Select1stIS2_ESt4lessISsESaIS2_EE6_M_endEv
	movq	%rax, %rbx
	movq	-32(%rbp), %rdi
	call	__ZNKSt8_Rb_treeISsSt4pairIKSsiESt10_Select1stIS2_ESt4lessISsESaIS2_EE8_M_beginEv
	movq	%rax, %rsi
	movq	-24(%rbp), %rdi
	movq	%rbx, %rdx
LEHB90:
	call	__ZNSt8_Rb_treeISsSt4pairIKSsiESt10_Select1stIS2_ESt4lessISsESaIS2_EE7_M_copyEPKSt13_Rb_tree_nodeIS2_EPSA_
LEHE90:
	movq	-40(%rbp), %rdx
	movq	%rax, (%rdx)
	.loc 3 587 0
	movq	-24(%rbp), %rdi
	call	__ZNSt8_Rb_treeISsSt4pairIKSsiESt10_Select1stIS2_ESt4lessISsESaIS2_EE11_M_leftmostEv
	movq	%rax, %rbx
	movq	-24(%rbp), %rdi
	call	__ZNSt8_Rb_treeISsSt4pairIKSsiESt10_Select1stIS2_ESt4lessISsESaIS2_EE7_M_rootEv
	movq	(%rax), %rdi
	call	__ZNSt8_Rb_treeISsSt4pairIKSsiESt10_Select1stIS2_ESt4lessISsESaIS2_EE10_S_minimumEPSt18_Rb_tree_node_base
	movq	%rax, (%rbx)
	.loc 3 588 0
	movq	-24(%rbp), %rdi
	call	__ZNSt8_Rb_treeISsSt4pairIKSsiESt10_Select1stIS2_ESt4lessISsESaIS2_EE12_M_rightmostEv
	movq	%rax, %rbx
	movq	-24(%rbp), %rdi
	call	__ZNSt8_Rb_treeISsSt4pairIKSsiESt10_Select1stIS2_ESt4lessISsESaIS2_EE7_M_rootEv
	movq	(%rax), %rdi
	call	__ZNSt8_Rb_treeISsSt4pairIKSsiESt10_Select1stIS2_ESt4lessISsESaIS2_EE10_S_maximumEPSt18_Rb_tree_node_base
	movq	%rax, (%rbx)
	.loc 3 589 0
	movq	-32(%rbp), %rax
	movq	40(%rax), %rdx
	movq	-24(%rbp), %rax
	movq	%rdx, 40(%rax)
	jmp	L1017
L1018:
	movq	%rax, -48(%rbp)
L1016:
	movq	-48(%rbp), %rbx
	movq	-24(%rbp), %rdi
	call	__ZNSt8_Rb_treeISsSt4pairIKSsiESt10_Select1stIS2_ESt4lessISsESaIS2_EE13_Rb_tree_implIS6_Lb0EED1Ev
	movq	%rbx, -48(%rbp)
	movq	-48(%rbp), %rdi
LEHB91:
	call	__Unwind_Resume
LEHE91:
L1017:
LBE79:
	addq	$40, %rsp
	popq	%rbx
	leave
	ret
LFE2305:
	.section __TEXT,__gcc_except_tab
GCC_except_table23:
LLSDA2305:
	.byte	0xff
	.byte	0xff
	.byte	0x3
	.byte	0x1a
	.set L$set$225,LEHB90-LFB2305
	.long L$set$225
	.set L$set$226,LEHE90-LEHB90
	.long L$set$226
	.set L$set$227,L1018-LFB2305
	.long L$set$227
	.byte	0x0
	.set L$set$228,LEHB91-LFB2305
	.long L$set$228
	.set L$set$229,LEHE91-LEHB91
	.long L$set$229
	.long	0x0
	.byte	0x0
	.section __TEXT,__textcoal_nt,coalesced,pure_instructions
	.align 1
.globl __ZNSt3mapISsiSt4lessISsESaISt4pairIKSsiEEEC1ERKS6_
	.weak_definition __ZNSt3mapISsiSt4lessISsESaISt4pairIKSsiEEEC1ERKS6_
	.private_extern __ZNSt3mapISsiSt4lessISsESaISt4pairIKSsiEEEC1ERKS6_
__ZNSt3mapISsiSt4lessISsESaISt4pairIKSsiEEEC1ERKS6_:
LFB2100:
	.loc 13 175 0
	nop
	nop
	nop
	nop
	nop
	nop
	pushq	%rbp
LCFI1016:
	movq	%rsp, %rbp
LCFI1017:
	subq	$16, %rsp
LCFI1018:
	movq	%rdi, -8(%rbp)
	movq	%rsi, -16(%rbp)
LBB80:
	.loc 13 176 0
	movq	-16(%rbp), %rsi
	movq	-8(%rbp), %rdi
	call	__ZNSt8_Rb_treeISsSt4pairIKSsiESt10_Select1stIS2_ESt4lessISsESaIS2_EEC1ERKS8_
LBE80:
	leave
	ret
LFE2100:
	.align 1
.globl __ZN9__gnu_cxx13new_allocatorISt13_Rb_tree_nodeISt4pairIKiSsEEE8allocateEmPKv
	.weak_definition __ZN9__gnu_cxx13new_allocatorISt13_Rb_tree_nodeISt4pairIKiSsEEE8allocateEmPKv
	.private_extern __ZN9__gnu_cxx13new_allocatorISt13_Rb_tree_nodeISt4pairIKiSsEEE8allocateEmPKv
__ZN9__gnu_cxx13new_allocatorISt13_Rb_tree_nodeISt4pairIKiSsEEE8allocateEmPKv:
LFB2758:
	.loc 10 86 0
	nop
	nop
	nop
	nop
	nop
	nop
	pushq	%rbp
LCFI1019:
	movq	%rsp, %rbp
LCFI1020:
	subq	$32, %rsp
LCFI1021:
	movq	%rdi, -8(%rbp)
	movq	%rsi, -16(%rbp)
	movq	%rdx, -24(%rbp)
	.loc 10 88 0
	movq	-8(%rbp), %rdi
	call	__ZNK9__gnu_cxx13new_allocatorISt13_Rb_tree_nodeISt4pairIKiSsEEE8max_sizeEv
	cmpq	-16(%rbp), %rax
	setb	%al
	movzbl	%al, %eax
	testq	%rax, %rax
	setne	%al
	testb	%al, %al
	je	L1022
	.loc 10 89 0
	call	__ZSt17__throw_bad_allocv
L1022:
	.loc 10 91 0
	movq	-16(%rbp), %rdx
	movq	%rdx, %rax
	addq	%rax, %rax
	addq	%rdx, %rax
	salq	$4, %rax
	movq	%rax, %rdi
	call	__Znwm
	leave
	ret
LFE2758:
	.align 1
.globl __ZNSt8_Rb_treeIiSt4pairIKiSsESt10_Select1stIS2_ESt4lessIiESaIS2_EE11_M_get_nodeEv
	.weak_definition __ZNSt8_Rb_treeIiSt4pairIKiSsESt10_Select1stIS2_ESt4lessIiESaIS2_EE11_M_get_nodeEv
	.private_extern __ZNSt8_Rb_treeIiSt4pairIKiSsESt10_Select1stIS2_ESt4lessIiESaIS2_EE11_M_get_nodeEv
__ZNSt8_Rb_treeIiSt4pairIKiSsESt10_Select1stIS2_ESt4lessIiESaIS2_EE11_M_get_nodeEv:
LFB2750:
	.loc 3 368 0
	nop
	nop
	nop
	nop
	nop
	nop
	pushq	%rbp
LCFI1022:
	movq	%rsp, %rbp
LCFI1023:
	subq	$16, %rsp
LCFI1024:
	movq	%rdi, -8(%rbp)
	.loc 3 369 0
	movq	-8(%rbp), %rax
	movq	%rax, %rdi
	movl	$0, %edx
	movl	$1, %esi
	call	__ZN9__gnu_cxx13new_allocatorISt13_Rb_tree_nodeISt4pairIKiSsEEE8allocateEmPKv
	leave
	ret
LFE2750:
	.align 1
.globl __ZNSt8_Rb_treeIiSt4pairIKiSsESt10_Select1stIS2_ESt4lessIiESaIS2_EE14_M_create_nodeERKS2_
	.weak_definition __ZNSt8_Rb_treeIiSt4pairIKiSsESt10_Select1stIS2_ESt4lessIiESaIS2_EE14_M_create_nodeERKS2_
	.private_extern __ZNSt8_Rb_treeIiSt4pairIKiSsESt10_Select1stIS2_ESt4lessIiESaIS2_EE14_M_create_nodeERKS2_
__ZNSt8_Rb_treeIiSt4pairIKiSsESt10_Select1stIS2_ESt4lessIiESaIS2_EE14_M_create_nodeERKS2_:
LFB2713:
	.loc 3 376 0
	nop
	nop
	nop
	nop
	nop
	nop
	pushq	%rbp
LCFI1025:
	movq	%rsp, %rbp
LCFI1026:
	pushq	%rbx
LCFI1027:
	subq	$56, %rsp
LCFI1028:
	movq	%rdi, -40(%rbp)
	movq	%rsi, -48(%rbp)
LBB81:
	.loc 3 378 0
	movq	-40(%rbp), %rdi
LEHB92:
	call	__ZNSt8_Rb_treeIiSt4pairIKiSsESt10_Select1stIS2_ESt4lessIiESaIS2_EE11_M_get_nodeEv
LEHE92:
	movq	%rax, -32(%rbp)
	.loc 3 380 0
	movq	-32(%rbp), %rbx
	addq	$32, %rbx
	leaq	-17(%rbp), %rdi
	movq	-40(%rbp), %rsi
	call	__ZNKSt8_Rb_treeIiSt4pairIKiSsESt10_Select1stIS2_ESt4lessIiESaIS2_EE13get_allocatorEv
	leaq	-17(%rbp), %rdi
	movq	-48(%rbp), %rdx
	movq	%rbx, %rsi
LEHB93:
	call	__ZN9__gnu_cxx13new_allocatorISt4pairIKiSsEE9constructEPS3_RKS3_
LEHE93:
	leaq	-17(%rbp), %rdi
	call	__ZNSaISt4pairIKiSsEED1Ev
	.loc 3 386 0
	movq	-32(%rbp), %rax
	movq	%rax, -56(%rbp)
	jmp	L1027
L1034:
	movq	%rax, -64(%rbp)
L1028:
	movq	-64(%rbp), %rbx
	.loc 3 380 0
	leaq	-17(%rbp), %rdi
	call	__ZNSaISt4pairIKiSsEED1Ev
	movq	%rbx, -64(%rbp)
L1035:
L1029:
	.loc 3 381 0
	movq	-64(%rbp), %rdi
	call	___cxa_begin_catch
	.loc 3 383 0
	movq	-32(%rbp), %rsi
	movq	-40(%rbp), %rdi
	call	__ZNSt8_Rb_treeIiSt4pairIKiSsESt10_Select1stIS2_ESt4lessIiESaIS2_EE11_M_put_nodeEPSt13_Rb_tree_nodeIS2_E
LEHB94:
	.loc 3 384 0
	call	___cxa_rethrow
LEHE94:
L1033:
	movq	%rax, -64(%rbp)
L1030:
	movq	-64(%rbp), %rbx
	.loc 3 381 0
	call	___cxa_end_catch
	movq	%rbx, -64(%rbp)
	movq	-64(%rbp), %rdi
LEHB95:
	call	__Unwind_Resume
LEHE95:
L1027:
LBE81:
	.loc 3 386 0
	movq	-56(%rbp), %rax
	addq	$56, %rsp
	popq	%rbx
	leave
	ret
LFE2713:
	.section __TEXT,__gcc_except_tab
	.align 2
GCC_except_table24:
LLSDA2713:
	.byte	0xff
	.byte	0x9b
	.byte	0x41
	.byte	0x3
	.byte	0x34
	.set L$set$230,LEHB92-LFB2713
	.long L$set$230
	.set L$set$231,LEHE92-LEHB92
	.long L$set$231
	.long	0x0
	.byte	0x0
	.set L$set$232,LEHB93-LFB2713
	.long L$set$232
	.set L$set$233,LEHE93-LEHB93
	.long L$set$233
	.set L$set$234,L1034-LFB2713
	.long L$set$234
	.byte	0x3
	.set L$set$235,LEHB94-LFB2713
	.long L$set$235
	.set L$set$236,LEHE94-LEHB94
	.long L$set$236
	.set L$set$237,L1033-LFB2713
	.long L$set$237
	.byte	0x0
	.set L$set$238,LEHB95-LFB2713
	.long L$set$238
	.set L$set$239,LEHE95-LEHB95
	.long L$set$239
	.long	0x0
	.byte	0x0
	.byte	0x1
	.byte	0x0
	.byte	0x0
	.byte	0x7d
	.align 2
	.long	0

	.section __TEXT,__textcoal_nt,coalesced,pure_instructions
	.align 1
.globl __ZNSt8_Rb_treeIiSt4pairIKiSsESt10_Select1stIS2_ESt4lessIiESaIS2_EE13_M_clone_nodeEPKSt13_Rb_tree_nodeIS2_E
	.weak_definition __ZNSt8_Rb_treeIiSt4pairIKiSsESt10_Select1stIS2_ESt4lessIiESaIS2_EE13_M_clone_nodeEPKSt13_Rb_tree_nodeIS2_E
	.private_extern __ZNSt8_Rb_treeIiSt4pairIKiSsESt10_Select1stIS2_ESt4lessIiESaIS2_EE13_M_clone_nodeEPKSt13_Rb_tree_nodeIS2_E
__ZNSt8_Rb_treeIiSt4pairIKiSsESt10_Select1stIS2_ESt4lessIiESaIS2_EE13_M_clone_nodeEPKSt13_Rb_tree_nodeIS2_E:
LFB2638:
	.loc 3 390 0
	nop
	nop
	nop
	nop
	nop
	nop
	pushq	%rbp
LCFI1029:
	movq	%rsp, %rbp
LCFI1030:
	subq	$32, %rsp
LCFI1031:
	movq	%rdi, -24(%rbp)
	movq	%rsi, -32(%rbp)
LBB82:
	.loc 3 392 0
	movq	-32(%rbp), %rsi
	addq	$32, %rsi
	movq	-24(%rbp), %rdi
	call	__ZNSt8_Rb_treeIiSt4pairIKiSsESt10_Select1stIS2_ESt4lessIiESaIS2_EE14_M_create_nodeERKS2_
	movq	%rax, -8(%rbp)
	.loc 3 393 0
	movq	-32(%rbp), %rax
	movl	(%rax), %edx
	movq	-8(%rbp), %rax
	movl	%edx, (%rax)
	.loc 3 394 0
	movq	-8(%rbp), %rax
	movq	$0, 16(%rax)
	.loc 3 395 0
	movq	-8(%rbp), %rax
	movq	$0, 24(%rax)
	.loc 3 396 0
	movq	-8(%rbp), %rax
LBE82:
	leave
	ret
LFE2638:
	.align 1
.globl __ZNSt8_Rb_treeIiSt4pairIKiSsESt10_Select1stIS2_ESt4lessIiESaIS2_EE7_M_copyEPKSt13_Rb_tree_nodeIS2_EPSA_
	.weak_definition __ZNSt8_Rb_treeIiSt4pairIKiSsESt10_Select1stIS2_ESt4lessIiESaIS2_EE7_M_copyEPKSt13_Rb_tree_nodeIS2_EPSA_
__ZNSt8_Rb_treeIiSt4pairIKiSsESt10_Select1stIS2_ESt4lessIiESaIS2_EE7_M_copyEPKSt13_Rb_tree_nodeIS2_EPSA_:
LFB2505:
	.loc 3 1284 0
	nop
	nop
	nop
	nop
	nop
	nop
	pushq	%rbp
LCFI1032:
	movq	%rsp, %rbp
LCFI1033:
	pushq	%rbx
LCFI1034:
	subq	$72, %rsp
LCFI1035:
	movq	%rdi, -40(%rbp)
	movq	%rsi, -48(%rbp)
	movq	%rdx, -56(%rbp)
LBB83:
	.loc 3 1287 0
	movq	-48(%rbp), %rsi
	movq	-40(%rbp), %rdi
LEHB96:
	call	__ZNSt8_Rb_treeIiSt4pairIKiSsESt10_Select1stIS2_ESt4lessIiESaIS2_EE13_M_clone_nodeEPKSt13_Rb_tree_nodeIS2_E
LEHE96:
	movq	%rax, -24(%rbp)
	.loc 3 1288 0
	movq	-56(%rbp), %rdx
	movq	-24(%rbp), %rax
	movq	%rdx, 8(%rax)
	.loc 3 1292 0
	movq	-48(%rbp), %rax
	movq	24(%rax), %rax
	testq	%rax, %rax
	je	L1039
	.loc 3 1293 0
	movq	-48(%rbp), %rdi
	call	__ZNSt8_Rb_treeIiSt4pairIKiSsESt10_Select1stIS2_ESt4lessIiESaIS2_EE8_S_rightEPKSt18_Rb_tree_node_base
	movq	%rax, %rsi
	movq	-24(%rbp), %rdx
	movq	-40(%rbp), %rdi
LEHB97:
	call	__ZNSt8_Rb_treeIiSt4pairIKiSsESt10_Select1stIS2_ESt4lessIiESaIS2_EE7_M_copyEPKSt13_Rb_tree_nodeIS2_EPSA_
	movq	%rax, %rdx
	movq	-24(%rbp), %rax
	movq	%rdx, 24(%rax)
L1039:
	.loc 3 1294 0
	movq	-24(%rbp), %rax
	movq	%rax, -56(%rbp)
	.loc 3 1295 0
	movq	-48(%rbp), %rdi
	call	__ZNSt8_Rb_treeIiSt4pairIKiSsESt10_Select1stIS2_ESt4lessIiESaIS2_EE7_S_leftEPKSt18_Rb_tree_node_base
	movq	%rax, -48(%rbp)
	.loc 3 1297 0
	jmp	L1041
L1042:
LBB84:
	.loc 3 1299 0
	movq	-48(%rbp), %rsi
	movq	-40(%rbp), %rdi
	call	__ZNSt8_Rb_treeIiSt4pairIKiSsESt10_Select1stIS2_ESt4lessIiESaIS2_EE13_M_clone_nodeEPKSt13_Rb_tree_nodeIS2_E
	movq	%rax, -32(%rbp)
	.loc 3 1300 0
	movq	-32(%rbp), %rdx
	movq	-56(%rbp), %rax
	movq	%rdx, 16(%rax)
	.loc 3 1301 0
	movq	-56(%rbp), %rdx
	movq	-32(%rbp), %rax
	movq	%rdx, 8(%rax)
	.loc 3 1302 0
	movq	-48(%rbp), %rax
	movq	24(%rax), %rax
	testq	%rax, %rax
	je	L1043
	.loc 3 1303 0
	movq	-48(%rbp), %rdi
	call	__ZNSt8_Rb_treeIiSt4pairIKiSsESt10_Select1stIS2_ESt4lessIiESaIS2_EE8_S_rightEPKSt18_Rb_tree_node_base
	movq	%rax, %rsi
	movq	-32(%rbp), %rdx
	movq	-40(%rbp), %rdi
	call	__ZNSt8_Rb_treeIiSt4pairIKiSsESt10_Select1stIS2_ESt4lessIiESaIS2_EE7_M_copyEPKSt13_Rb_tree_nodeIS2_EPSA_
LEHE97:
	movq	%rax, %rdx
	movq	-32(%rbp), %rax
	movq	%rdx, 24(%rax)
L1043:
	.loc 3 1304 0
	movq	-32(%rbp), %rax
	movq	%rax, -56(%rbp)
	.loc 3 1305 0
	movq	-48(%rbp), %rdi
	call	__ZNSt8_Rb_treeIiSt4pairIKiSsESt10_Select1stIS2_ESt4lessIiESaIS2_EE7_S_leftEPKSt18_Rb_tree_node_base
	movq	%rax, -48(%rbp)
L1041:
LBE84:
	.loc 3 1297 0
	cmpq	$0, -48(%rbp)
	jne	L1042
	.loc 3 1313 0
	movq	-24(%rbp), %rax
	movq	%rax, -64(%rbp)
	jmp	L1038
L1051:
	movq	%rax, -72(%rbp)
L1046:
	.loc 3 1308 0
	movq	-72(%rbp), %rdi
	call	___cxa_begin_catch
	.loc 3 1310 0
	movq	-24(%rbp), %rsi
	movq	-40(%rbp), %rdi
LEHB98:
	call	__ZNSt8_Rb_treeIiSt4pairIKiSsESt10_Select1stIS2_ESt4lessIiESaIS2_EE8_M_eraseEPSt13_Rb_tree_nodeIS2_E
	.loc 3 1311 0
	call	___cxa_rethrow
LEHE98:
L1050:
	movq	%rax, -72(%rbp)
L1047:
	movq	-72(%rbp), %rbx
	.loc 3 1308 0
	call	___cxa_end_catch
	movq	%rbx, -72(%rbp)
	movq	-72(%rbp), %rdi
LEHB99:
	call	__Unwind_Resume
LEHE99:
L1038:
LBE83:
	.loc 3 1313 0
	movq	-64(%rbp), %rax
	addq	$72, %rsp
	popq	%rbx
	leave
	ret
LFE2505:
	.section __TEXT,__gcc_except_tab
	.align 2
GCC_except_table25:
LLSDA2505:
	.byte	0xff
	.byte	0x9b
	.byte	0x3d
	.byte	0x3
	.byte	0x34
	.set L$set$240,LEHB96-LFB2505
	.long L$set$240
	.set L$set$241,LEHE96-LEHB96
	.long L$set$241
	.long	0x0
	.byte	0x0
	.set L$set$242,LEHB97-LFB2505
	.long L$set$242
	.set L$set$243,LEHE97-LEHB97
	.long L$set$243
	.set L$set$244,L1051-LFB2505
	.long L$set$244
	.byte	0x1
	.set L$set$245,LEHB98-LFB2505
	.long L$set$245
	.set L$set$246,LEHE98-LEHB98
	.long L$set$246
	.set L$set$247,L1050-LFB2505
	.long L$set$247
	.byte	0x0
	.set L$set$248,LEHB99-LFB2505
	.long L$set$248
	.set L$set$249,LEHE99-LEHB99
	.long L$set$249
	.long	0x0
	.byte	0x0
	.byte	0x1
	.byte	0x0
	.align 2
	.long	0

	.section __TEXT,__textcoal_nt,coalesced,pure_instructions
	.align 1
.globl __ZNSt8_Rb_treeIiSt4pairIKiSsESt10_Select1stIS2_ESt4lessIiESaIS2_EEaSERKS8_
	.weak_definition __ZNSt8_Rb_treeIiSt4pairIKiSsESt10_Select1stIS2_ESt4lessIiESaIS2_EEaSERKS8_
__ZNSt8_Rb_treeIiSt4pairIKiSsESt10_Select1stIS2_ESt4lessIiESaIS2_EEaSERKS8_:
LFB2405:
	.loc 3 812 0
	nop
	nop
	nop
	nop
	nop
	nop
	pushq	%rbp
LCFI1036:
	movq	%rsp, %rbp
LCFI1037:
	pushq	%r12
LCFI1038:
	pushq	%rbx
LCFI1039:
	subq	$16, %rsp
LCFI1040:
	movq	%rdi, -24(%rbp)
	movq	%rsi, -32(%rbp)
	.loc 3 814 0
	movq	-24(%rbp), %rax
	cmpq	-32(%rbp), %rax
	je	L1053
	.loc 3 817 0
	movq	-24(%rbp), %rdi
	call	__ZNSt8_Rb_treeIiSt4pairIKiSsESt10_Select1stIS2_ESt4lessIiESaIS2_EE5clearEv
	.loc 3 819 0
	movq	-32(%rbp), %rdi
	call	__ZNKSt8_Rb_treeIiSt4pairIKiSsESt10_Select1stIS2_ESt4lessIiESaIS2_EE7_M_rootEv
	testq	%rax, %rax
	setne	%al
	testb	%al, %al
	je	L1053
	.loc 3 821 0
	movq	-24(%rbp), %rdi
	call	__ZNSt8_Rb_treeIiSt4pairIKiSsESt10_Select1stIS2_ESt4lessIiESaIS2_EE7_M_rootEv
	movq	%rax, %r12
	movq	-24(%rbp), %rdi
	call	__ZNSt8_Rb_treeIiSt4pairIKiSsESt10_Select1stIS2_ESt4lessIiESaIS2_EE6_M_endEv
	movq	%rax, %rbx
	movq	-32(%rbp), %rdi
	call	__ZNKSt8_Rb_treeIiSt4pairIKiSsESt10_Select1stIS2_ESt4lessIiESaIS2_EE8_M_beginEv
	movq	%rax, %rsi
	movq	-24(%rbp), %rdi
	movq	%rbx, %rdx
	call	__ZNSt8_Rb_treeIiSt4pairIKiSsESt10_Select1stIS2_ESt4lessIiESaIS2_EE7_M_copyEPKSt13_Rb_tree_nodeIS2_EPSA_
	movq	%rax, (%r12)
	.loc 3 822 0
	movq	-24(%rbp), %rdi
	call	__ZNSt8_Rb_treeIiSt4pairIKiSsESt10_Select1stIS2_ESt4lessIiESaIS2_EE11_M_leftmostEv
	movq	%rax, %rbx
	movq	-24(%rbp), %rdi
	call	__ZNSt8_Rb_treeIiSt4pairIKiSsESt10_Select1stIS2_ESt4lessIiESaIS2_EE7_M_rootEv
	movq	(%rax), %rdi
	call	__ZNSt8_Rb_treeIiSt4pairIKiSsESt10_Select1stIS2_ESt4lessIiESaIS2_EE10_S_minimumEPSt18_Rb_tree_node_base
	movq	%rax, (%rbx)
	.loc 3 823 0
	movq	-24(%rbp), %rdi
	call	__ZNSt8_Rb_treeIiSt4pairIKiSsESt10_Select1stIS2_ESt4lessIiESaIS2_EE12_M_rightmostEv
	movq	%rax, %rbx
	movq	-24(%rbp), %rdi
	call	__ZNSt8_Rb_treeIiSt4pairIKiSsESt10_Select1stIS2_ESt4lessIiESaIS2_EE7_M_rootEv
	movq	(%rax), %rdi
	call	__ZNSt8_Rb_treeIiSt4pairIKiSsESt10_Select1stIS2_ESt4lessIiESaIS2_EE10_S_maximumEPSt18_Rb_tree_node_base
	movq	%rax, (%rbx)
	.loc 3 824 0
	movq	-32(%rbp), %rax
	movq	40(%rax), %rdx
	movq	-24(%rbp), %rax
	movq	%rdx, 40(%rax)
L1053:
	.loc 3 827 0
	movq	-24(%rbp), %rax
	addq	$16, %rsp
	popq	%rbx
	popq	%r12
	leave
	ret
LFE2405:
	.align 1
.globl __ZNSt3mapIiSsSt4lessIiESaISt4pairIKiSsEEEaSERKS6_
	.weak_definition __ZNSt3mapIiSsSt4lessIiESaISt4pairIKiSsEEEaSERKS6_
	.private_extern __ZNSt3mapIiSsSt4lessIiESaISt4pairIKiSsEEEaSERKS6_
__ZNSt3mapIiSsSt4lessIiESaISt4pairIKiSsEEEaSERKS6_:
LFB2178:
	.loc 13 226 0
	nop
	nop
	nop
	nop
	nop
	nop
	pushq	%rbp
LCFI1041:
	movq	%rsp, %rbp
LCFI1042:
	subq	$16, %rsp
LCFI1043:
	movq	%rdi, -8(%rbp)
	movq	%rsi, -16(%rbp)
	.loc 13 228 0
	movq	-16(%rbp), %rsi
	movq	-8(%rbp), %rdi
	call	__ZNSt8_Rb_treeIiSt4pairIKiSsESt10_Select1stIS2_ESt4lessIiESaIS2_EEaSERKS8_
	.loc 13 229 0
	movq	-8(%rbp), %rax
	leave
	ret
LFE2178:
	.align 1
.globl __ZNSt8_Rb_treeIiSt4pairIKiSsESt10_Select1stIS2_ESt4lessIiESaIS2_EEC1ERKS8_
	.weak_definition __ZNSt8_Rb_treeIiSt4pairIKiSsESt10_Select1stIS2_ESt4lessIiESaIS2_EEC1ERKS8_
	.private_extern __ZNSt8_Rb_treeIiSt4pairIKiSsESt10_Select1stIS2_ESt4lessIiESaIS2_EEC1ERKS8_
__ZNSt8_Rb_treeIiSt4pairIKiSsESt10_Select1stIS2_ESt4lessIiESaIS2_EEC1ERKS8_:
LFB2308:
	.loc 3 581 0
	nop
	nop
	nop
	nop
	nop
	nop
	pushq	%rbp
LCFI1044:
	movq	%rsp, %rbp
LCFI1045:
	pushq	%rbx
LCFI1046:
	subq	$40, %rsp
LCFI1047:
	movq	%rdi, -24(%rbp)
	movq	%rsi, -32(%rbp)
LBB85:
	.loc 3 582 0
	movq	-32(%rbp), %rbx
	movq	-32(%rbp), %rdi
	call	__ZNKSt8_Rb_treeIiSt4pairIKiSsESt10_Select1stIS2_ESt4lessIiESaIS2_EE21_M_get_Node_allocatorEv
	movq	%rax, %rsi
	movq	-24(%rbp), %rdi
	movq	%rbx, %rdx
	call	__ZNSt8_Rb_treeIiSt4pairIKiSsESt10_Select1stIS2_ESt4lessIiESaIS2_EE13_Rb_tree_implIS6_Lb0EEC1ERKSaISt13_Rb_tree_nodeIS2_EERKS6_
	.loc 3 584 0
	movq	-32(%rbp), %rdi
	call	__ZNKSt8_Rb_treeIiSt4pairIKiSsESt10_Select1stIS2_ESt4lessIiESaIS2_EE7_M_rootEv
	testq	%rax, %rax
	setne	%al
	testb	%al, %al
	je	L1063
	.loc 3 586 0
	movq	-24(%rbp), %rdi
	call	__ZNSt8_Rb_treeIiSt4pairIKiSsESt10_Select1stIS2_ESt4lessIiESaIS2_EE7_M_rootEv
	movq	%rax, -40(%rbp)
	movq	-24(%rbp), %rdi
	call	__ZNSt8_Rb_treeIiSt4pairIKiSsESt10_Select1stIS2_ESt4lessIiESaIS2_EE6_M_endEv
	movq	%rax, %rbx
	movq	-32(%rbp), %rdi
	call	__ZNKSt8_Rb_treeIiSt4pairIKiSsESt10_Select1stIS2_ESt4lessIiESaIS2_EE8_M_beginEv
	movq	%rax, %rsi
	movq	-24(%rbp), %rdi
	movq	%rbx, %rdx
LEHB100:
	call	__ZNSt8_Rb_treeIiSt4pairIKiSsESt10_Select1stIS2_ESt4lessIiESaIS2_EE7_M_copyEPKSt13_Rb_tree_nodeIS2_EPSA_
LEHE100:
	movq	-40(%rbp), %rdx
	movq	%rax, (%rdx)
	.loc 3 587 0
	movq	-24(%rbp), %rdi
	call	__ZNSt8_Rb_treeIiSt4pairIKiSsESt10_Select1stIS2_ESt4lessIiESaIS2_EE11_M_leftmostEv
	movq	%rax, %rbx
	movq	-24(%rbp), %rdi
	call	__ZNSt8_Rb_treeIiSt4pairIKiSsESt10_Select1stIS2_ESt4lessIiESaIS2_EE7_M_rootEv
	movq	(%rax), %rdi
	call	__ZNSt8_Rb_treeIiSt4pairIKiSsESt10_Select1stIS2_ESt4lessIiESaIS2_EE10_S_minimumEPSt18_Rb_tree_node_base
	movq	%rax, (%rbx)
	.loc 3 588 0
	movq	-24(%rbp), %rdi
	call	__ZNSt8_Rb_treeIiSt4pairIKiSsESt10_Select1stIS2_ESt4lessIiESaIS2_EE12_M_rightmostEv
	movq	%rax, %rbx
	movq	-24(%rbp), %rdi
	call	__ZNSt8_Rb_treeIiSt4pairIKiSsESt10_Select1stIS2_ESt4lessIiESaIS2_EE7_M_rootEv
	movq	(%rax), %rdi
	call	__ZNSt8_Rb_treeIiSt4pairIKiSsESt10_Select1stIS2_ESt4lessIiESaIS2_EE10_S_maximumEPSt18_Rb_tree_node_base
	movq	%rax, (%rbx)
	.loc 3 589 0
	movq	-32(%rbp), %rax
	movq	40(%rax), %rdx
	movq	-24(%rbp), %rax
	movq	%rdx, 40(%rax)
	jmp	L1063
L1064:
	movq	%rax, -48(%rbp)
L1062:
	movq	-48(%rbp), %rbx
	movq	-24(%rbp), %rdi
	call	__ZNSt8_Rb_treeIiSt4pairIKiSsESt10_Select1stIS2_ESt4lessIiESaIS2_EE13_Rb_tree_implIS6_Lb0EED1Ev
	movq	%rbx, -48(%rbp)
	movq	-48(%rbp), %rdi
LEHB101:
	call	__Unwind_Resume
LEHE101:
L1063:
LBE85:
	addq	$40, %rsp
	popq	%rbx
	leave
	ret
LFE2308:
	.section __TEXT,__gcc_except_tab
GCC_except_table26:
LLSDA2308:
	.byte	0xff
	.byte	0xff
	.byte	0x3
	.byte	0x1a
	.set L$set$250,LEHB100-LFB2308
	.long L$set$250
	.set L$set$251,LEHE100-LEHB100
	.long L$set$251
	.set L$set$252,L1064-LFB2308
	.long L$set$252
	.byte	0x0
	.set L$set$253,LEHB101-LFB2308
	.long L$set$253
	.set L$set$254,LEHE101-LEHB101
	.long L$set$254
	.long	0x0
	.byte	0x0
	.section __TEXT,__textcoal_nt,coalesced,pure_instructions
	.align 1
.globl __ZNSt3mapIiSsSt4lessIiESaISt4pairIKiSsEEEC1ERKS6_
	.weak_definition __ZNSt3mapIiSsSt4lessIiESaISt4pairIKiSsEEEC1ERKS6_
	.private_extern __ZNSt3mapIiSsSt4lessIiESaISt4pairIKiSsEEEC1ERKS6_
__ZNSt3mapIiSsSt4lessIiESaISt4pairIKiSsEEEC1ERKS6_:
LFB2103:
	.loc 13 175 0
	nop
	nop
	nop
	nop
	nop
	nop
	pushq	%rbp
LCFI1048:
	movq	%rsp, %rbp
LCFI1049:
	subq	$16, %rsp
LCFI1050:
	movq	%rdi, -8(%rbp)
	movq	%rsi, -16(%rbp)
LBB86:
	.loc 13 176 0
	movq	-16(%rbp), %rsi
	movq	-8(%rbp), %rdi
	call	__ZNSt8_Rb_treeIiSt4pairIKiSsESt10_Select1stIS2_ESt4lessIiESaIS2_EEC1ERKS8_
LBE86:
	leave
	ret
LFE2103:
	.align 1
.globl __ZN9__gnu_cxx13new_allocatorISsE8allocateEmPKv
	.weak_definition __ZN9__gnu_cxx13new_allocatorISsE8allocateEmPKv
	.private_extern __ZN9__gnu_cxx13new_allocatorISsE8allocateEmPKv
__ZN9__gnu_cxx13new_allocatorISsE8allocateEmPKv:
LFB2617:
	.loc 10 86 0
	nop
	nop
	nop
	nop
	nop
	nop
	pushq	%rbp
LCFI1051:
	movq	%rsp, %rbp
LCFI1052:
	subq	$32, %rsp
LCFI1053:
	movq	%rdi, -8(%rbp)
	movq	%rsi, -16(%rbp)
	movq	%rdx, -24(%rbp)
	.loc 10 88 0
	movq	-8(%rbp), %rdi
	call	__ZNK9__gnu_cxx13new_allocatorISsE8max_sizeEv
	cmpq	-16(%rbp), %rax
	setb	%al
	movzbl	%al, %eax
	testq	%rax, %rax
	setne	%al
	testb	%al, %al
	je	L1068
	.loc 10 89 0
	call	__ZSt17__throw_bad_allocv
L1068:
	.loc 10 91 0
	movq	-16(%rbp), %rax
	leaq	0(,%rax,8), %rdi
	call	__Znwm
	leave
	ret
LFE2617:
	.align 1
.globl __ZNSt12_Vector_baseISsSaISsEE11_M_allocateEm
	.weak_definition __ZNSt12_Vector_baseISsSaISsEE11_M_allocateEm
	.private_extern __ZNSt12_Vector_baseISsSaISsEE11_M_allocateEm
__ZNSt12_Vector_baseISsSaISsEE11_M_allocateEm:
LFB2477:
	.loc 8 130 0
	nop
	nop
	nop
	nop
	nop
	nop
	pushq	%rbp
LCFI1054:
	movq	%rsp, %rbp
LCFI1055:
	subq	$16, %rsp
LCFI1056:
	movq	%rdi, -8(%rbp)
	movq	%rsi, -16(%rbp)
	.loc 8 131 0
	movq	-8(%rbp), %rax
	movq	%rax, %rdi
	movq	-16(%rbp), %rsi
	movl	$0, %edx
	call	__ZN9__gnu_cxx13new_allocatorISsE8allocateEmPKv
	leave
	ret
LFE2477:
	.align 1
.globl __ZNSt12_Vector_baseISsSaISsEEC2EmRKS0_
	.weak_definition __ZNSt12_Vector_baseISsSaISsEEC2EmRKS0_
	.private_extern __ZNSt12_Vector_baseISsSaISsEEC2EmRKS0_
__ZNSt12_Vector_baseISsSaISsEEC2EmRKS0_:
LFB2679:
	.loc 8 111 0
	nop
	nop
	nop
	nop
	nop
	nop
	pushq	%rbp
LCFI1057:
	movq	%rsp, %rbp
LCFI1058:
	pushq	%rbx
LCFI1059:
	subq	$40, %rsp
LCFI1060:
	movq	%rdi, -24(%rbp)
	movq	%rsi, -32(%rbp)
	movq	%rdx, -40(%rbp)
LBB87:
	.loc 8 112 0
	movq	-24(%rbp), %rdi
	movq	-40(%rbp), %rsi
	call	__ZNSt12_Vector_baseISsSaISsEE12_Vector_implC1ERKS0_
	.loc 8 114 0
	cmpq	$0, -32(%rbp)
	je	L1077
	.loc 8 116 0
	movq	-32(%rbp), %rsi
	movq	-24(%rbp), %rdi
LEHB102:
	call	__ZNSt12_Vector_baseISsSaISsEE11_M_allocateEm
LEHE102:
	movq	%rax, %rdx
	movq	-24(%rbp), %rax
	movq	%rdx, (%rax)
	.loc 8 117 0
	movq	-24(%rbp), %rax
	movq	(%rax), %rdx
	movq	-24(%rbp), %rax
	movq	%rdx, 8(%rax)
	.loc 8 118 0
	movq	-24(%rbp), %rax
	movq	(%rax), %rdx
	movq	-32(%rbp), %rax
	salq	$3, %rax
	addq	%rax, %rdx
	movq	-24(%rbp), %rax
	movq	%rdx, 16(%rax)
	jmp	L1077
L1078:
	movq	%rax, -48(%rbp)
L1076:
	movq	-48(%rbp), %rbx
	movq	-24(%rbp), %rdi
	call	__ZNSt12_Vector_baseISsSaISsEE12_Vector_implD1Ev
	movq	%rbx, -48(%rbp)
	movq	-48(%rbp), %rdi
LEHB103:
	call	__Unwind_Resume
LEHE103:
L1077:
LBE87:
	addq	$40, %rsp
	popq	%rbx
	leave
	ret
LFE2679:
	.section __TEXT,__gcc_except_tab
GCC_except_table27:
LLSDA2679:
	.byte	0xff
	.byte	0xff
	.byte	0x3
	.byte	0x1a
	.set L$set$255,LEHB102-LFB2679
	.long L$set$255
	.set L$set$256,LEHE102-LEHB102
	.long L$set$256
	.set L$set$257,L1078-LFB2679
	.long L$set$257
	.byte	0x0
	.set L$set$258,LEHB103-LFB2679
	.long L$set$258
	.set L$set$259,LEHE103-LEHB103
	.long L$set$259
	.long	0x0
	.byte	0x0
	.section __TEXT,__textcoal_nt,coalesced,pure_instructions
	.align 1
.globl __ZNSt6vectorISsSaISsEEC1ERKS1_
	.weak_definition __ZNSt6vectorISsSaISsEEC1ERKS1_
	.private_extern __ZNSt6vectorISsSaISsEEC1ERKS1_
__ZNSt6vectorISsSaISsEEC1ERKS1_:
LFB2589:
	.loc 8 231 0
	nop
	nop
	nop
	nop
	nop
	nop
	pushq	%rbp
LCFI1061:
	movq	%rsp, %rbp
LCFI1062:
	pushq	%r12
LCFI1063:
	pushq	%rbx
LCFI1064:
	subq	$48, %rsp
LCFI1065:
	movq	%rdi, -40(%rbp)
	movq	%rsi, -48(%rbp)
LBB88:
	.loc 8 232 0
	movq	-48(%rbp), %rdi
	call	__ZNKSt12_Vector_baseISsSaISsEE19_M_get_Tp_allocatorEv
	movq	%rax, %rbx
	movq	-48(%rbp), %rdi
	call	__ZNKSt6vectorISsSaISsEE4sizeEv
	movq	%rax, %rsi
	movq	-40(%rbp), %rdi
	movq	%rbx, %rdx
LEHB104:
	call	__ZNSt12_Vector_baseISsSaISsEEC2EmRKS0_
LEHE104:
	.loc 8 233 0
	movq	-40(%rbp), %rdi
	call	__ZNSt12_Vector_baseISsSaISsEE19_M_get_Tp_allocatorEv
	movq	%rax, %rsi
	leaq	-17(%rbp), %rdi
	call	__ZNSaISsEC1ERKS_
	movq	-40(%rbp), %rax
	movq	(%rax), %r12
	movq	-48(%rbp), %rdi
	call	__ZNKSt6vectorISsSaISsEE3endEv
	movq	%rax, %rbx
	movq	-48(%rbp), %rdi
	call	__ZNKSt6vectorISsSaISsEE5beginEv
	movq	%rax, %rdi
	leaq	-17(%rbp), %rcx
	movq	%r12, %rdx
	movq	%rbx, %rsi
LEHB105:
	call	__ZSt22__uninitialized_copy_aIN9__gnu_cxx17__normal_iteratorIPKSsSt6vectorISsSaISsEEEEPSsSsET0_T_SA_S9_SaIT1_E
LEHE105:
	movq	-40(%rbp), %rdx
	movq	%rax, 8(%rdx)
	leaq	-17(%rbp), %rdi
	call	__ZNSaISsED1Ev
	jmp	L1082
L1083:
	movq	%rax, -56(%rbp)
L1080:
	movq	-56(%rbp), %rbx
	leaq	-17(%rbp), %rdi
	call	__ZNSaISsED1Ev
	movq	%rbx, -56(%rbp)
L1084:
L1081:
	movq	-56(%rbp), %rbx
	movq	-40(%rbp), %rdi
	call	__ZNSt12_Vector_baseISsSaISsEED2Ev
	movq	%rbx, -56(%rbp)
	movq	-56(%rbp), %rdi
LEHB106:
	call	__Unwind_Resume
LEHE106:
L1082:
LBE88:
	addq	$48, %rsp
	popq	%rbx
	popq	%r12
	leave
	ret
LFE2589:
	.section __TEXT,__gcc_except_tab
GCC_except_table28:
LLSDA2589:
	.byte	0xff
	.byte	0xff
	.byte	0x3
	.byte	0x27
	.set L$set$260,LEHB104-LFB2589
	.long L$set$260
	.set L$set$261,LEHE104-LEHB104
	.long L$set$261
	.long	0x0
	.byte	0x0
	.set L$set$262,LEHB105-LFB2589
	.long L$set$262
	.set L$set$263,LEHE105-LEHB105
	.long L$set$263
	.set L$set$264,L1083-LFB2589
	.long L$set$264
	.byte	0x0
	.set L$set$265,LEHB106-LFB2589
	.long L$set$265
	.set L$set$266,LEHE106-LEHB106
	.long L$set$266
	.long	0x0
	.byte	0x0
	.section __TEXT,__textcoal_nt,coalesced,pure_instructions
	.align 1
.globl __ZN9__gnu_cxx13new_allocatorISt6vectorISsSaISsEEE9constructEPS3_RKS3_
	.weak_definition __ZN9__gnu_cxx13new_allocatorISt6vectorISsSaISsEEE9constructEPS3_RKS3_
	.private_extern __ZN9__gnu_cxx13new_allocatorISt6vectorISsSaISsEEE9constructEPS3_RKS3_
__ZN9__gnu_cxx13new_allocatorISt6vectorISsSaISsEEE9constructEPS3_RKS3_:
LFB2416:
	.loc 10 106 0
	nop
	nop
	nop
	nop
	nop
	nop
	pushq	%rbp
LCFI1066:
	movq	%rsp, %rbp
LCFI1067:
	pushq	%rbx
LCFI1068:
	subq	$56, %rsp
LCFI1069:
	movq	%rdi, -24(%rbp)
	movq	%rsi, -32(%rbp)
	movq	%rdx, -40(%rbp)
	.loc 10 107 0
	movq	-32(%rbp), %rsi
	movl	$24, %edi
	call	__ZnwmPv
	movq	%rax, -48(%rbp)
	cmpq	$0, -48(%rbp)
	je	L1090
	movq	-40(%rbp), %rsi
	movq	-48(%rbp), %rdi
LEHB107:
	call	__ZNSt6vectorISsSaISsEEC1ERKS1_
LEHE107:
	jmp	L1090
L1091:
	movq	%rax, -56(%rbp)
L1089:
	movq	-56(%rbp), %rbx
	movq	-32(%rbp), %rsi
	movq	-48(%rbp), %rdi
	call	__ZdlPvS_
	movq	%rbx, -56(%rbp)
	movq	-56(%rbp), %rdi
LEHB108:
	call	__Unwind_Resume
LEHE108:
L1090:
	addq	$56, %rsp
	popq	%rbx
	leave
	ret
LFE2416:
	.section __TEXT,__gcc_except_tab
GCC_except_table29:
LLSDA2416:
	.byte	0xff
	.byte	0xff
	.byte	0x3
	.byte	0x1a
	.set L$set$267,LEHB107-LFB2416
	.long L$set$267
	.set L$set$268,LEHE107-LEHB107
	.long L$set$268
	.set L$set$269,L1091-LFB2416
	.long L$set$269
	.byte	0x0
	.set L$set$270,LEHB108-LFB2416
	.long L$set$270
	.set L$set$271,LEHE108-LEHB108
	.long L$set$271
	.long	0x0
	.byte	0x0
	.section __TEXT,__textcoal_nt,coalesced,pure_instructions
.globl __ZSt10_ConstructISt6vectorISsSaISsEES2_EvPT_RKT0_
	.weak_definition __ZSt10_ConstructISt6vectorISsSaISsEES2_EvPT_RKT0_
__ZSt10_ConstructISt6vectorISsSaISsEES2_EvPT_RKT0_:
LFB2717:
	.loc 16 77 0
	nop
	nop
	nop
	nop
	nop
	nop
	pushq	%rbp
LCFI1070:
	movq	%rsp, %rbp
LCFI1071:
	pushq	%rbx
LCFI1072:
	subq	$40, %rsp
LCFI1073:
	movq	%rdi, -24(%rbp)
	movq	%rsi, -32(%rbp)
	.loc 16 81 0
	movq	-24(%rbp), %rsi
	movl	$24, %edi
	call	__ZnwmPv
	movq	%rax, -40(%rbp)
	cmpq	$0, -40(%rbp)
	je	L1097
	movq	-32(%rbp), %rsi
	movq	-40(%rbp), %rdi
LEHB109:
	call	__ZNSt6vectorISsSaISsEEC1ERKS1_
LEHE109:
	jmp	L1097
L1098:
	movq	%rax, -48(%rbp)
L1096:
	movq	-48(%rbp), %rbx
	movq	-24(%rbp), %rsi
	movq	-40(%rbp), %rdi
	call	__ZdlPvS_
	movq	%rbx, -48(%rbp)
	movq	-48(%rbp), %rdi
LEHB110:
	call	__Unwind_Resume
LEHE110:
L1097:
	addq	$40, %rsp
	popq	%rbx
	leave
	ret
LFE2717:
	.section __TEXT,__gcc_except_tab
GCC_except_table30:
LLSDA2717:
	.byte	0xff
	.byte	0xff
	.byte	0x3
	.byte	0x1a
	.set L$set$272,LEHB109-LFB2717
	.long L$set$272
	.set L$set$273,LEHE109-LEHB109
	.long L$set$273
	.set L$set$274,L1098-LFB2717
	.long L$set$274
	.byte	0x0
	.set L$set$275,LEHB110-LFB2717
	.long L$set$275
	.set L$set$276,LEHE110-LEHB110
	.long L$set$276
	.long	0x0
	.byte	0x0
	.section __TEXT,__textcoal_nt,coalesced,pure_instructions
.globl __ZSt24__uninitialized_copy_auxIPSt6vectorISsSaISsEES3_ET0_T_S5_S4_St12__false_type
	.weak_definition __ZSt24__uninitialized_copy_auxIPSt6vectorISsSaISsEES3_ET0_T_S5_S4_St12__false_type
__ZSt24__uninitialized_copy_auxIPSt6vectorISsSaISsEES3_ET0_T_S5_S4_St12__false_type:
LFB2677:
	.loc 18 81 0
	nop
	nop
	nop
	nop
	nop
	nop
	pushq	%rbp
LCFI1074:
	movq	%rsp, %rbp
LCFI1075:
	pushq	%rbx
LCFI1076:
	subq	$72, %rsp
LCFI1077:
	movq	%rdi, -40(%rbp)
	movq	%rsi, -48(%rbp)
	movq	%rdx, -56(%rbp)
LBB89:
	.loc 18 83 0
	movq	-56(%rbp), %rax
	movq	%rax, -24(%rbp)
	.loc 18 86 0
	jmp	L1100
L1101:
	.loc 18 87 0
	movq	-40(%rbp), %rsi
	movq	-24(%rbp), %rdi
LEHB111:
	call	__ZSt10_ConstructISt6vectorISsSaISsEES2_EvPT_RKT0_
LEHE111:
	.loc 18 86 0
	addq	$24, -40(%rbp)
	addq	$24, -24(%rbp)
L1100:
	movq	-40(%rbp), %rax
	cmpq	-48(%rbp), %rax
	jne	L1101
	.loc 18 88 0
	movq	-24(%rbp), %rax
	movq	%rax, -64(%rbp)
	jmp	L1099
L1108:
	movq	%rax, -72(%rbp)
L1103:
	.loc 18 90 0
	movq	-72(%rbp), %rdi
	call	___cxa_begin_catch
	.loc 18 92 0
	movq	-24(%rbp), %rsi
	movq	-56(%rbp), %rdi
LEHB112:
	call	__ZSt8_DestroyIPSt6vectorISsSaISsEEEvT_S4_
	.loc 18 93 0
	call	___cxa_rethrow
LEHE112:
L1107:
	movq	%rax, -72(%rbp)
L1104:
	movq	-72(%rbp), %rbx
	.loc 18 90 0
	call	___cxa_end_catch
	movq	%rbx, -72(%rbp)
	movq	-72(%rbp), %rdi
LEHB113:
	call	__Unwind_Resume
LEHE113:
L1099:
LBE89:
	.loc 18 93 0
	movq	-64(%rbp), %rax
	addq	$72, %rsp
	popq	%rbx
	leave
	ret
LFE2677:
	.section __TEXT,__gcc_except_tab
	.align 2
GCC_except_table31:
LLSDA2677:
	.byte	0xff
	.byte	0x9b
	.byte	0x31
	.byte	0x3
	.byte	0x27
	.set L$set$277,LEHB111-LFB2677
	.long L$set$277
	.set L$set$278,LEHE111-LEHB111
	.long L$set$278
	.set L$set$279,L1108-LFB2677
	.long L$set$279
	.byte	0x1
	.set L$set$280,LEHB112-LFB2677
	.long L$set$280
	.set L$set$281,LEHE112-LEHB112
	.long L$set$281
	.set L$set$282,L1107-LFB2677
	.long L$set$282
	.byte	0x0
	.set L$set$283,LEHB113-LFB2677
	.long L$set$283
	.set L$set$284,LEHE113-LEHB113
	.long L$set$284
	.long	0x0
	.byte	0x0
	.byte	0x1
	.byte	0x0
	.align 2
	.long	0

	.section __TEXT,__textcoal_nt,coalesced,pure_instructions
.globl __ZSt18uninitialized_copyIPSt6vectorISsSaISsEES3_ET0_T_S5_S4_
	.weak_definition __ZSt18uninitialized_copyIPSt6vectorISsSaISsEES3_ET0_T_S5_S4_
__ZSt18uninitialized_copyIPSt6vectorISsSaISsEES3_ET0_T_S5_S4_:
LFB2586:
	.loc 18 109 0
	nop
	nop
	nop
	nop
	nop
	nop
	pushq	%rbp
LCFI1078:
	movq	%rsp, %rbp
LCFI1079:
	subq	$48, %rsp
LCFI1080:
	movq	%rdi, -8(%rbp)
	movq	%rsi, -16(%rbp)
	movq	%rdx, -24(%rbp)
LBB90:
	.loc 18 114 0
	movq	-24(%rbp), %rdx
	movq	-16(%rbp), %rsi
	movq	-8(%rbp), %rdi
	movzbl	-25(%rbp), %eax
	movb	%al, (%rsp)
	call	__ZSt24__uninitialized_copy_auxIPSt6vectorISsSaISsEES3_ET0_T_S5_S4_St12__false_type
LBE90:
	leave
	ret
LFE2586:
.globl __ZSt22__uninitialized_copy_aIPSt6vectorISsSaISsEES3_S2_ET0_T_S5_S4_SaIT1_E
	.weak_definition __ZSt22__uninitialized_copy_aIPSt6vectorISsSaISsEES3_S2_ET0_T_S5_S4_SaIT1_E
__ZSt22__uninitialized_copy_aIPSt6vectorISsSaISsEES3_S2_ET0_T_S5_S4_SaIT1_E:
LFB2414:
	.loc 18 253 0
	nop
	nop
	nop
	nop
	nop
	nop
	pushq	%rbp
LCFI1081:
	movq	%rsp, %rbp
LCFI1082:
	subq	$32, %rsp
LCFI1083:
	movq	%rdi, -8(%rbp)
	movq	%rsi, -16(%rbp)
	movq	%rdx, -24(%rbp)
	movq	%rcx, -32(%rbp)
	.loc 18 254 0
	movq	-24(%rbp), %rdx
	movq	-16(%rbp), %rsi
	movq	-8(%rbp), %rdi
	call	__ZSt18uninitialized_copyIPSt6vectorISsSaISsEES3_ET0_T_S5_S4_
	leave
	ret
LFE2414:
.globl __ZSt24__uninitialized_copy_auxIN9__gnu_cxx17__normal_iteratorIPKSt6vectorISsSaISsEES2_IS4_SaIS4_EEEEPS4_ET0_T_SC_SB_St12__false_type
	.weak_definition __ZSt24__uninitialized_copy_auxIN9__gnu_cxx17__normal_iteratorIPKSt6vectorISsSaISsEES2_IS4_SaIS4_EEEEPS4_ET0_T_SC_SB_St12__false_type
__ZSt24__uninitialized_copy_auxIN9__gnu_cxx17__normal_iteratorIPKSt6vectorISsSaISsEES2_IS4_SaIS4_EEEEPS4_ET0_T_SC_SB_St12__false_type:
LFB2642:
	.loc 18 81 0
	nop
	nop
	nop
	nop
	nop
	nop
	pushq	%rbp
LCFI1084:
	movq	%rsp, %rbp
LCFI1085:
	pushq	%rbx
LCFI1086:
	subq	$72, %rsp
LCFI1087:
	movq	%rdi, -40(%rbp)
	movq	%rsi, -48(%rbp)
	movq	%rdx, -56(%rbp)
LBB91:
	.loc 18 83 0
	movq	-56(%rbp), %rax
	movq	%rax, -24(%rbp)
	.loc 18 86 0
	jmp	L1114
L1115:
	.loc 18 87 0
	leaq	-40(%rbp), %rdi
	call	__ZNK9__gnu_cxx17__normal_iteratorIPKSt6vectorISsSaISsEES1_IS3_SaIS3_EEEdeEv
	movq	%rax, %rsi
	movq	-24(%rbp), %rdi
LEHB114:
	call	__ZSt10_ConstructISt6vectorISsSaISsEES2_EvPT_RKT0_
LEHE114:
	.loc 18 86 0
	leaq	-40(%rbp), %rdi
	call	__ZN9__gnu_cxx17__normal_iteratorIPKSt6vectorISsSaISsEES1_IS3_SaIS3_EEEppEv
	addq	$24, -24(%rbp)
L1114:
	leaq	-48(%rbp), %rsi
	leaq	-40(%rbp), %rdi
	call	__ZN9__gnu_cxxneIPKSt6vectorISsSaISsEES1_IS3_SaIS3_EEEEbRKNS_17__normal_iteratorIT_T0_EESD_
	testb	%al, %al
	jne	L1115
	.loc 18 88 0
	movq	-24(%rbp), %rax
	movq	%rax, -64(%rbp)
	jmp	L1113
L1122:
	movq	%rax, -72(%rbp)
L1117:
	.loc 18 90 0
	movq	-72(%rbp), %rdi
	call	___cxa_begin_catch
	.loc 18 92 0
	movq	-24(%rbp), %rsi
	movq	-56(%rbp), %rdi
LEHB115:
	call	__ZSt8_DestroyIPSt6vectorISsSaISsEEEvT_S4_
	.loc 18 93 0
	call	___cxa_rethrow
LEHE115:
L1121:
	movq	%rax, -72(%rbp)
L1118:
	movq	-72(%rbp), %rbx
	.loc 18 90 0
	call	___cxa_end_catch
	movq	%rbx, -72(%rbp)
	movq	-72(%rbp), %rdi
LEHB116:
	call	__Unwind_Resume
LEHE116:
L1113:
LBE91:
	.loc 18 93 0
	movq	-64(%rbp), %rax
	addq	$72, %rsp
	popq	%rbx
	leave
	ret
LFE2642:
	.section __TEXT,__gcc_except_tab
	.align 2
GCC_except_table32:
LLSDA2642:
	.byte	0xff
	.byte	0x9b
	.byte	0x31
	.byte	0x3
	.byte	0x27
	.set L$set$285,LEHB114-LFB2642
	.long L$set$285
	.set L$set$286,LEHE114-LEHB114
	.long L$set$286
	.set L$set$287,L1122-LFB2642
	.long L$set$287
	.byte	0x1
	.set L$set$288,LEHB115-LFB2642
	.long L$set$288
	.set L$set$289,LEHE115-LEHB115
	.long L$set$289
	.set L$set$290,L1121-LFB2642
	.long L$set$290
	.byte	0x0
	.set L$set$291,LEHB116-LFB2642
	.long L$set$291
	.set L$set$292,LEHE116-LEHB116
	.long L$set$292
	.long	0x0
	.byte	0x0
	.byte	0x1
	.byte	0x0
	.align 2
	.long	0

	.section __TEXT,__textcoal_nt,coalesced,pure_instructions
.globl __ZSt18uninitialized_copyIN9__gnu_cxx17__normal_iteratorIPKSt6vectorISsSaISsEES2_IS4_SaIS4_EEEEPS4_ET0_T_SC_SB_
	.weak_definition __ZSt18uninitialized_copyIN9__gnu_cxx17__normal_iteratorIPKSt6vectorISsSaISsEES2_IS4_SaIS4_EEEEPS4_ET0_T_SC_SB_
__ZSt18uninitialized_copyIN9__gnu_cxx17__normal_iteratorIPKSt6vectorISsSaISsEES2_IS4_SaIS4_EEEEPS4_ET0_T_SC_SB_:
LFB2516:
	.loc 18 109 0
	nop
	nop
	nop
	nop
	nop
	nop
	pushq	%rbp
LCFI1088:
	movq	%rsp, %rbp
LCFI1089:
	subq	$48, %rsp
LCFI1090:
	movq	%rdi, -8(%rbp)
	movq	%rsi, -16(%rbp)
	movq	%rdx, -24(%rbp)
LBB92:
	.loc 18 114 0
	movq	-24(%rbp), %rdx
	movq	-16(%rbp), %rsi
	movq	-8(%rbp), %rdi
	movzbl	-25(%rbp), %eax
	movb	%al, (%rsp)
	call	__ZSt24__uninitialized_copy_auxIN9__gnu_cxx17__normal_iteratorIPKSt6vectorISsSaISsEES2_IS4_SaIS4_EEEEPS4_ET0_T_SC_SB_St12__false_type
LBE92:
	leave
	ret
LFE2516:
.globl __ZSt22__uninitialized_copy_aIN9__gnu_cxx17__normal_iteratorIPKSt6vectorISsSaISsEES2_IS4_SaIS4_EEEEPS4_S4_ET0_T_SC_SB_SaIT1_E
	.weak_definition __ZSt22__uninitialized_copy_aIN9__gnu_cxx17__normal_iteratorIPKSt6vectorISsSaISsEES2_IS4_SaIS4_EEEEPS4_S4_ET0_T_SC_SB_SaIT1_E
__ZSt22__uninitialized_copy_aIN9__gnu_cxx17__normal_iteratorIPKSt6vectorISsSaISsEES2_IS4_SaIS4_EEEEPS4_S4_ET0_T_SC_SB_SaIT1_E:
LFB2315:
	.loc 18 253 0
	nop
	nop
	nop
	nop
	nop
	nop
	pushq	%rbp
LCFI1091:
	movq	%rsp, %rbp
LCFI1092:
	subq	$32, %rsp
LCFI1093:
	movq	%rdi, -8(%rbp)
	movq	%rsi, -16(%rbp)
	movq	%rdx, -24(%rbp)
	movq	%rcx, -32(%rbp)
	.loc 18 254 0
	movq	-24(%rbp), %rdx
	movq	-16(%rbp), %rsi
	movq	-8(%rbp), %rdi
	call	__ZSt18uninitialized_copyIN9__gnu_cxx17__normal_iteratorIPKSt6vectorISsSaISsEES2_IS4_SaIS4_EEEEPS4_ET0_T_SC_SB_
	leave
	ret
LFE2315:
	.align 1
.globl __ZNSt6vectorISsSaISsEE20_M_allocate_and_copyIN9__gnu_cxx17__normal_iteratorIPKSsS1_EEEEPSsmT_S9_
	.weak_definition __ZNSt6vectorISsSaISsEE20_M_allocate_and_copyIN9__gnu_cxx17__normal_iteratorIPKSsS1_EEEEPSsmT_S9_
	.private_extern __ZNSt6vectorISsSaISsEE20_M_allocate_and_copyIN9__gnu_cxx17__normal_iteratorIPKSsS1_EEEEPSsmT_S9_
__ZNSt6vectorISsSaISsEE20_M_allocate_and_copyIN9__gnu_cxx17__normal_iteratorIPKSsS1_EEEEPSsmT_S9_:
LFB2326:
	.loc 8 764 0
	nop
	nop
	nop
	nop
	nop
	nop
	pushq	%rbp
LCFI1094:
	movq	%rsp, %rbp
LCFI1095:
	pushq	%rbx
LCFI1096:
	subq	$72, %rsp
LCFI1097:
	movq	%rdi, -40(%rbp)
	movq	%rsi, -48(%rbp)
	movq	%rdx, -56(%rbp)
	movq	%rcx, -64(%rbp)
LBB93:
	.loc 8 766 0
	movq	-40(%rbp), %rdi
	movq	-48(%rbp), %rsi
LEHB117:
	call	__ZNSt12_Vector_baseISsSaISsEE11_M_allocateEm
LEHE117:
	movq	%rax, -32(%rbp)
	.loc 8 769 0
	movq	-40(%rbp), %rdi
	call	__ZNSt12_Vector_baseISsSaISsEE19_M_get_Tp_allocatorEv
	movq	%rax, %rsi
	leaq	-17(%rbp), %rdi
	call	__ZNSaISsEC1ERKS_
	leaq	-17(%rbp), %rcx
	movq	-32(%rbp), %rdx
	movq	-64(%rbp), %rsi
	movq	-56(%rbp), %rdi
LEHB118:
	call	__ZSt22__uninitialized_copy_aIN9__gnu_cxx17__normal_iteratorIPKSsSt6vectorISsSaISsEEEEPSsSsET0_T_SA_S9_SaIT1_E
LEHE118:
	leaq	-17(%rbp), %rdi
	call	__ZNSaISsED1Ev
	.loc 8 771 0
	movq	-32(%rbp), %rax
	movq	%rax, -72(%rbp)
	jmp	L1127
L1134:
	movq	%rax, -80(%rbp)
L1128:
	movq	-80(%rbp), %rbx
	.loc 8 769 0
	leaq	-17(%rbp), %rdi
	call	__ZNSaISsED1Ev
	movq	%rbx, -80(%rbp)
L1135:
L1129:
	.loc 8 773 0
	movq	-80(%rbp), %rdi
	call	___cxa_begin_catch
	.loc 8 775 0
	movq	-40(%rbp), %rdi
	movq	-48(%rbp), %rdx
	movq	-32(%rbp), %rsi
	call	__ZNSt12_Vector_baseISsSaISsEE13_M_deallocateEPSsm
LEHB119:
	.loc 8 776 0
	call	___cxa_rethrow
LEHE119:
L1133:
	movq	%rax, -80(%rbp)
L1130:
	movq	-80(%rbp), %rbx
	.loc 8 773 0
	call	___cxa_end_catch
	movq	%rbx, -80(%rbp)
	movq	-80(%rbp), %rdi
LEHB120:
	call	__Unwind_Resume
LEHE120:
L1127:
LBE93:
	.loc 8 776 0
	movq	-72(%rbp), %rax
	addq	$72, %rsp
	popq	%rbx
	leave
	ret
LFE2326:
	.section __TEXT,__gcc_except_tab
	.align 2
GCC_except_table33:
LLSDA2326:
	.byte	0xff
	.byte	0x9b
	.byte	0x41
	.byte	0x3
	.byte	0x34
	.set L$set$293,LEHB117-LFB2326
	.long L$set$293
	.set L$set$294,LEHE117-LEHB117
	.long L$set$294
	.long	0x0
	.byte	0x0
	.set L$set$295,LEHB118-LFB2326
	.long L$set$295
	.set L$set$296,LEHE118-LEHB118
	.long L$set$296
	.set L$set$297,L1134-LFB2326
	.long L$set$297
	.byte	0x3
	.set L$set$298,LEHB119-LFB2326
	.long L$set$298
	.set L$set$299,LEHE119-LEHB119
	.long L$set$299
	.set L$set$300,L1133-LFB2326
	.long L$set$300
	.byte	0x0
	.set L$set$301,LEHB120-LFB2326
	.long L$set$301
	.set L$set$302,LEHE120-LEHB120
	.long L$set$302
	.long	0x0
	.byte	0x0
	.byte	0x1
	.byte	0x0
	.byte	0x0
	.byte	0x7d
	.align 2
	.long	0

	.section __TEXT,__textcoal_nt,coalesced,pure_instructions
	.align 1
.globl __ZNSt6vectorISsSaISsEEaSERKS1_
	.weak_definition __ZNSt6vectorISsSaISsEEaSERKS1_
__ZNSt6vectorISsSaISsEEaSERKS1_:
LFB2117:
	.file 19 "/Developer/SDKs/MacOSX10.6.sdk/usr/include/c++/4.2.1/bits/vector.tcc"
	.loc 19 132 0
	nop
	nop
	nop
	nop
	nop
	nop
	pushq	%rbp
LCFI1098:
	movq	%rsp, %rbp
LCFI1099:
	pushq	%r13
LCFI1100:
	pushq	%r12
LCFI1101:
	pushq	%rbx
LCFI1102:
	subq	$72, %rsp
LCFI1103:
	movq	%rdi, -72(%rbp)
	movq	%rsi, -80(%rbp)
LBB94:
	.loc 19 134 0
	movq	-80(%rbp), %rax
	cmpq	-72(%rbp), %rax
	je	L1137
LBB95:
	.loc 19 136 0
	movq	-80(%rbp), %rdi
	call	__ZNKSt6vectorISsSaISsEE4sizeEv
	movq	%rax, -48(%rbp)
	.loc 19 137 0
	movq	-72(%rbp), %rdi
	call	__ZNKSt6vectorISsSaISsEE8capacityEv
	cmpq	-48(%rbp), %rax
	setb	%al
	testb	%al, %al
	je	L1139
LBB96:
	.loc 19 140 0
	movq	-80(%rbp), %rdi
	call	__ZNKSt6vectorISsSaISsEE3endEv
	movq	%rax, %rbx
	movq	-80(%rbp), %rdi
	call	__ZNKSt6vectorISsSaISsEE5beginEv
	movq	%rax, %rdx
	movq	-48(%rbp), %rsi
	movq	-72(%rbp), %rdi
	movq	%rbx, %rcx
LEHB121:
	call	__ZNSt6vectorISsSaISsEE20_M_allocate_and_copyIN9__gnu_cxx17__normal_iteratorIPKSsS1_EEEEPSsmT_S9_
LEHE121:
	movq	%rax, -56(%rbp)
	.loc 19 141 0
	movq	-72(%rbp), %rdi
	call	__ZNSt12_Vector_baseISsSaISsEE19_M_get_Tp_allocatorEv
	movq	%rax, %rsi
	leaq	-33(%rbp), %rdi
	call	__ZNSaISsEC1ERKS_
	movq	-72(%rbp), %rax
	movq	8(%rax), %rsi
	movq	-72(%rbp), %rax
	movq	(%rax), %rdi
	leaq	-33(%rbp), %rdx
LEHB122:
	call	__ZSt8_DestroyIPSsSsEvT_S1_SaIT0_E
LEHE122:
	leaq	-33(%rbp), %rdi
	call	__ZNSaISsED1Ev
	.loc 19 143 0
	movq	-72(%rbp), %rax
	movq	16(%rax), %rax
	movq	%rax, %rdx
	movq	-72(%rbp), %rax
	movq	(%rax), %rax
	movq	%rdx, %rcx
	subq	%rax, %rcx
	movq	%rcx, %rax
	sarq	$3, %rax
	movq	%rax, %rdx
	movq	-72(%rbp), %rax
	movq	(%rax), %rsi
	movq	-72(%rbp), %rdi
	call	__ZNSt12_Vector_baseISsSaISsEE13_M_deallocateEPSsm
	.loc 19 146 0
	movq	-72(%rbp), %rdx
	movq	-56(%rbp), %rax
	movq	%rax, (%rdx)
	.loc 19 147 0
	movq	-72(%rbp), %rax
	movq	(%rax), %rdx
	movq	-48(%rbp), %rax
	salq	$3, %rax
	addq	%rax, %rdx
	movq	-72(%rbp), %rax
	movq	%rdx, 16(%rax)
	jmp	L1141
L1150:
	movq	%rax, -96(%rbp)
L1142:
	movq	-96(%rbp), %rbx
	.loc 19 141 0
	leaq	-33(%rbp), %rdi
	call	__ZNSaISsED1Ev
	movq	%rbx, -96(%rbp)
	movq	-96(%rbp), %rdi
LEHB123:
	call	__Unwind_Resume
LEHE123:
L1139:
LBE96:
	.loc 19 149 0
	movq	-72(%rbp), %rdi
	call	__ZNKSt6vectorISsSaISsEE4sizeEv
	cmpq	-48(%rbp), %rax
	setae	%al
	testb	%al, %al
	je	L1143
	.loc 19 151 0
	movq	-72(%rbp), %rdi
	call	__ZNSt12_Vector_baseISsSaISsEE19_M_get_Tp_allocatorEv
	movq	%rax, %rsi
	leaq	-34(%rbp), %rdi
	call	__ZNSaISsEC1ERKS_
	movq	-72(%rbp), %rdi
	call	__ZNSt6vectorISsSaISsEE3endEv
	movq	%rax, -88(%rbp)
	movq	-72(%rbp), %rdi
	call	__ZNSt6vectorISsSaISsEE5beginEv
	movq	%rax, %r12
	movq	-80(%rbp), %rdi
	call	__ZNKSt6vectorISsSaISsEE3endEv
	movq	%rax, %rbx
	movq	-80(%rbp), %rdi
	call	__ZNKSt6vectorISsSaISsEE5beginEv
	movq	%rax, %rdi
	movq	%r12, %rdx
	movq	%rbx, %rsi
LEHB124:
	call	__ZSt4copyIN9__gnu_cxx17__normal_iteratorIPKSsSt6vectorISsSaISsEEEENS1_IPSsS6_EEET0_T_SB_SA_
	movq	%rax, %rdi
	leaq	-34(%rbp), %rdx
	movq	-88(%rbp), %rsi
	call	__ZSt8_DestroyIN9__gnu_cxx17__normal_iteratorIPSsSt6vectorISsSaISsEEEESsEvT_S7_SaIT0_E
LEHE124:
	leaq	-34(%rbp), %rdi
	call	__ZNSaISsED1Ev
	jmp	L1141
L1149:
	movq	%rax, -96(%rbp)
L1145:
	movq	-96(%rbp), %rbx
	leaq	-34(%rbp), %rdi
	call	__ZNSaISsED1Ev
	movq	%rbx, -96(%rbp)
	movq	-96(%rbp), %rdi
LEHB125:
	call	__Unwind_Resume
L1143:
	.loc 19 156 0
	movq	-72(%rbp), %rax
	movq	(%rax), %r12
	movq	-80(%rbp), %rax
	movq	(%rax), %rbx
	movq	-72(%rbp), %rdi
	call	__ZNKSt6vectorISsSaISsEE4sizeEv
	salq	$3, %rax
	leaq	(%rbx,%rax), %rsi
	movq	-80(%rbp), %rax
	movq	(%rax), %rdi
	movq	%r12, %rdx
	call	__ZSt4copyIPSsS0_ET0_T_S2_S1_
LEHE125:
	.loc 19 158 0
	movq	-72(%rbp), %rdi
	call	__ZNSt12_Vector_baseISsSaISsEE19_M_get_Tp_allocatorEv
	movq	%rax, %rsi
	leaq	-35(%rbp), %rdi
	call	__ZNSaISsEC1ERKS_
	movq	-72(%rbp), %rax
	movq	8(%rax), %r12
	movq	-80(%rbp), %rax
	movq	8(%rax), %r13
	movq	-80(%rbp), %rax
	movq	(%rax), %rbx
	movq	-72(%rbp), %rdi
	call	__ZNKSt6vectorISsSaISsEE4sizeEv
	salq	$3, %rax
	leaq	(%rbx,%rax), %rdi
	leaq	-35(%rbp), %rcx
	movq	%r12, %rdx
	movq	%r13, %rsi
LEHB126:
	call	__ZSt22__uninitialized_copy_aIPSsS0_SsET0_T_S2_S1_SaIT1_E
LEHE126:
	leaq	-35(%rbp), %rdi
	call	__ZNSaISsED1Ev
	jmp	L1141
L1148:
	movq	%rax, -96(%rbp)
L1146:
	movq	-96(%rbp), %rbx
	leaq	-35(%rbp), %rdi
	call	__ZNSaISsED1Ev
	movq	%rbx, -96(%rbp)
	movq	-96(%rbp), %rdi
LEHB127:
	call	__Unwind_Resume
LEHE127:
L1141:
	.loc 19 163 0
	movq	-72(%rbp), %rax
	movq	(%rax), %rdx
	movq	-48(%rbp), %rax
	salq	$3, %rax
	addq	%rax, %rdx
	movq	-72(%rbp), %rax
	movq	%rdx, 8(%rax)
L1137:
LBE95:
	.loc 19 165 0
	movq	-72(%rbp), %rax
LBE94:
	addq	$72, %rsp
	popq	%rbx
	popq	%r12
	popq	%r13
	leave
	ret
LFE2117:
	.section __TEXT,__gcc_except_tab
GCC_except_table34:
LLSDA2117:
	.byte	0xff
	.byte	0xff
	.byte	0x3
	.byte	0x5b
	.set L$set$303,LEHB121-LFB2117
	.long L$set$303
	.set L$set$304,LEHE121-LEHB121
	.long L$set$304
	.long	0x0
	.byte	0x0
	.set L$set$305,LEHB122-LFB2117
	.long L$set$305
	.set L$set$306,LEHE122-LEHB122
	.long L$set$306
	.set L$set$307,L1150-LFB2117
	.long L$set$307
	.byte	0x0
	.set L$set$308,LEHB123-LFB2117
	.long L$set$308
	.set L$set$309,LEHE123-LEHB123
	.long L$set$309
	.long	0x0
	.byte	0x0
	.set L$set$310,LEHB124-LFB2117
	.long L$set$310
	.set L$set$311,LEHE124-LEHB124
	.long L$set$311
	.set L$set$312,L1149-LFB2117
	.long L$set$312
	.byte	0x0
	.set L$set$313,LEHB125-LFB2117
	.long L$set$313
	.set L$set$314,LEHE125-LEHB125
	.long L$set$314
	.long	0x0
	.byte	0x0
	.set L$set$315,LEHB126-LFB2117
	.long L$set$315
	.set L$set$316,LEHE126-LEHB126
	.long L$set$316
	.set L$set$317,L1148-LFB2117
	.long L$set$317
	.byte	0x0
	.set L$set$318,LEHB127-LFB2117
	.long L$set$318
	.set L$set$319,LEHE127-LEHB127
	.long L$set$319
	.long	0x0
	.byte	0x0
	.section __TEXT,__textcoal_nt,coalesced,pure_instructions
.globl __ZNSt15__copy_backwardILb0ESt26random_access_iterator_tagE8__copy_bIPSt6vectorISsSaISsEES6_EET0_T_S8_S7_
	.weak_definition __ZNSt15__copy_backwardILb0ESt26random_access_iterator_tagE8__copy_bIPSt6vectorISsSaISsEES6_EET0_T_S8_S7_
	.private_extern __ZNSt15__copy_backwardILb0ESt26random_access_iterator_tagE8__copy_bIPSt6vectorISsSaISsEES6_EET0_T_S8_S7_
__ZNSt15__copy_backwardILb0ESt26random_access_iterator_tagE8__copy_bIPSt6vectorISsSaISsEES6_EET0_T_S8_S7_:
LFB2755:
	.loc 4 429 0
	nop
	nop
	nop
	nop
	nop
	nop
	pushq	%rbp
LCFI1104:
	movq	%rsp, %rbp
LCFI1105:
	subq	$48, %rsp
LCFI1106:
	movq	%rdi, -24(%rbp)
	movq	%rsi, -32(%rbp)
	movq	%rdx, -40(%rbp)
LBB97:
	.loc 4 432 0
	movq	-32(%rbp), %rdx
	movq	-24(%rbp), %rax
	movq	%rdx, %rcx
	subq	%rax, %rcx
	movq	%rcx, %rax
	movq	%rax, %rdx
	sarq	$3, %rdx
	movabsq	$-6148914691236517205, %rax
	imulq	%rdx, %rax
	movq	%rax, -8(%rbp)
	jmp	L1152
L1153:
	.loc 4 433 0
	subq	$24, -32(%rbp)
	subq	$24, -40(%rbp)
	movq	-32(%rbp), %rsi
	movq	-40(%rbp), %rdi
	call	__ZNSt6vectorISsSaISsEEaSERKS1_
	.loc 4 432 0
	decq	-8(%rbp)
L1152:
	cmpq	$0, -8(%rbp)
	jg	L1153
	.loc 4 434 0
	movq	-40(%rbp), %rax
LBE97:
	leave
	ret
LFE2755:
.globl __ZSt19__copy_backward_auxIPSt6vectorISsSaISsEES3_ET0_T_S5_S4_
	.weak_definition __ZSt19__copy_backward_auxIPSt6vectorISsSaISsEES3_ET0_T_S5_S4_
__ZSt19__copy_backward_auxIPSt6vectorISsSaISsEES3_ET0_T_S5_S4_:
LFB2739:
	.loc 4 453 0
	nop
	nop
	nop
	nop
	nop
	nop
	pushq	%rbp
LCFI1107:
	movq	%rsp, %rbp
LCFI1108:
	subq	$48, %rsp
LCFI1109:
	movq	%rdi, -24(%rbp)
	movq	%rsi, -32(%rbp)
	movq	%rdx, -40(%rbp)
LBB98:
	.loc 4 461 0
	movb	$0, -1(%rbp)
	.loc 4 465 0
	movq	-40(%rbp), %rdx
	movq	-32(%rbp), %rsi
	movq	-24(%rbp), %rdi
	call	__ZNSt15__copy_backwardILb0ESt26random_access_iterator_tagE8__copy_bIPSt6vectorISsSaISsEES6_EET0_T_S8_S7_
LBE98:
	leave
	ret
LFE2739:
.globl __ZNSt22__copy_backward_normalILb0ELb0EE10__copy_b_nIPSt6vectorISsSaISsEES5_EET0_T_S7_S6_
	.weak_definition __ZNSt22__copy_backward_normalILb0ELb0EE10__copy_b_nIPSt6vectorISsSaISsEES5_EET0_T_S7_S6_
	.private_extern __ZNSt22__copy_backward_normalILb0ELb0EE10__copy_b_nIPSt6vectorISsSaISsEES5_EET0_T_S7_S6_
__ZNSt22__copy_backward_normalILb0ELb0EE10__copy_b_nIPSt6vectorISsSaISsEES5_EET0_T_S7_S6_:
LFB2681:
	.loc 4 473 0
	nop
	nop
	nop
	nop
	nop
	nop
	pushq	%rbp
LCFI1110:
	movq	%rsp, %rbp
LCFI1111:
	subq	$32, %rsp
LCFI1112:
	movq	%rdi, -8(%rbp)
	movq	%rsi, -16(%rbp)
	movq	%rdx, -24(%rbp)
	.loc 4 474 0
	movq	-24(%rbp), %rdx
	movq	-16(%rbp), %rsi
	movq	-8(%rbp), %rdi
	call	__ZSt19__copy_backward_auxIPSt6vectorISsSaISsEES3_ET0_T_S5_S4_
	leave
	ret
LFE2681:
.globl __ZSt13copy_backwardIPSt6vectorISsSaISsEES3_ET0_T_S5_S4_
	.weak_definition __ZSt13copy_backwardIPSt6vectorISsSaISsEES3_ET0_T_S5_S4_
__ZSt13copy_backwardIPSt6vectorISsSaISsEES3_ET0_T_S5_S4_:
LFB2591:
	.loc 4 526 0
	nop
	nop
	nop
	nop
	nop
	nop
	pushq	%rbp
LCFI1113:
	movq	%rsp, %rbp
LCFI1114:
	subq	$48, %rsp
LCFI1115:
	movq	%rdi, -24(%rbp)
	movq	%rsi, -32(%rbp)
	movq	%rdx, -40(%rbp)
LBB99:
	.loc 4 536 0
	movb	$0, -1(%rbp)
	.loc 4 537 0
	movb	$0, -2(%rbp)
	.loc 4 540 0
	movq	-40(%rbp), %rdx
	movq	-32(%rbp), %rsi
	movq	-24(%rbp), %rdi
	call	__ZNSt22__copy_backward_normalILb0ELb0EE10__copy_b_nIPSt6vectorISsSaISsEES5_EET0_T_S7_S6_
LBE99:
	leave
	ret
LFE2591:
.globl __ZNSt6__copyILb0ESt26random_access_iterator_tagE4copyIPKSt6vectorISsSaISsEEPS5_EET0_T_SA_S9_
	.weak_definition __ZNSt6__copyILb0ESt26random_access_iterator_tagE4copyIPKSt6vectorISsSaISsEEPS5_EET0_T_SA_S9_
	.private_extern __ZNSt6__copyILb0ESt26random_access_iterator_tagE4copyIPKSt6vectorISsSaISsEEPS5_EET0_T_SA_S9_
__ZNSt6__copyILb0ESt26random_access_iterator_tagE4copyIPKSt6vectorISsSaISsEEPS5_EET0_T_SA_S9_:
LFB2735:
	.loc 4 278 0
	nop
	nop
	nop
	nop
	nop
	nop
	pushq	%rbp
LCFI1116:
	movq	%rsp, %rbp
LCFI1117:
	subq	$48, %rsp
LCFI1118:
	movq	%rdi, -24(%rbp)
	movq	%rsi, -32(%rbp)
	movq	%rdx, -40(%rbp)
LBB100:
LBB101:
	.loc 4 281 0
	movq	-32(%rbp), %rdx
	movq	-24(%rbp), %rax
	movq	%rdx, %rcx
	subq	%rax, %rcx
	movq	%rcx, %rax
	movq	%rax, %rdx
	sarq	$3, %rdx
	movabsq	$-6148914691236517205, %rax
	imulq	%rdx, %rax
	movq	%rax, -8(%rbp)
	jmp	L1163
L1164:
	.loc 4 283 0
	movq	-24(%rbp), %rsi
	movq	-40(%rbp), %rdi
	call	__ZNSt6vectorISsSaISsEEaSERKS1_
	.loc 4 284 0
	addq	$24, -24(%rbp)
	.loc 4 285 0
	addq	$24, -40(%rbp)
	.loc 4 281 0
	decq	-8(%rbp)
L1163:
	cmpq	$0, -8(%rbp)
	jg	L1164
LBE101:
	.loc 4 287 0
	movq	-40(%rbp), %rax
LBE100:
	leave
	ret
LFE2735:
.globl __ZSt10__copy_auxIPKSt6vectorISsSaISsEEPS2_ET0_T_S7_S6_
	.weak_definition __ZSt10__copy_auxIPKSt6vectorISsSaISsEEPS2_ET0_T_S7_S6_
__ZSt10__copy_auxIPKSt6vectorISsSaISsEEPS2_ET0_T_S7_S6_:
LFB2674:
	.loc 4 305 0
	nop
	nop
	nop
	nop
	nop
	nop
	pushq	%rbp
LCFI1119:
	movq	%rsp, %rbp
LCFI1120:
	subq	$48, %rsp
LCFI1121:
	movq	%rdi, -24(%rbp)
	movq	%rsi, -32(%rbp)
	movq	%rdx, -40(%rbp)
LBB102:
	.loc 4 313 0
	movb	$0, -1(%rbp)
	.loc 4 315 0
	movq	-40(%rbp), %rdx
	movq	-32(%rbp), %rsi
	movq	-24(%rbp), %rdi
	call	__ZNSt6__copyILb0ESt26random_access_iterator_tagE4copyIPKSt6vectorISsSaISsEEPS5_EET0_T_SA_S9_
LBE102:
	leave
	ret
LFE2674:
.globl __ZNSt13__copy_normalILb1ELb1EE8__copy_nIN9__gnu_cxx17__normal_iteratorIPKSt6vectorISsSaISsEES4_IS6_SaIS6_EEEENS3_IPS6_SA_EEEET0_T_SF_SE_
	.weak_definition __ZNSt13__copy_normalILb1ELb1EE8__copy_nIN9__gnu_cxx17__normal_iteratorIPKSt6vectorISsSaISsEES4_IS6_SaIS6_EEEENS3_IPS6_SA_EEEET0_T_SF_SE_
	.private_extern __ZNSt13__copy_normalILb1ELb1EE8__copy_nIN9__gnu_cxx17__normal_iteratorIPKSt6vectorISsSaISsEES4_IS6_SaIS6_EEEENS3_IPS6_SA_EEEET0_T_SF_SE_
__ZNSt13__copy_normalILb1ELb1EE8__copy_nIN9__gnu_cxx17__normal_iteratorIPKSt6vectorISsSaISsEES4_IS6_SaIS6_EEEENS3_IPS6_SA_EEEET0_T_SF_SE_:
LFB2583:
	.loc 4 366 0
	nop
	nop
	nop
	nop
	nop
	nop
	pushq	%rbp
LCFI1122:
	movq	%rsp, %rbp
LCFI1123:
	pushq	%r12
LCFI1124:
	pushq	%rbx
LCFI1125:
	subq	$48, %rsp
LCFI1126:
	movq	%rdi, -40(%rbp)
	movq	%rsi, -48(%rbp)
	movq	%rdx, -56(%rbp)
	.loc 4 368 0
	leaq	-56(%rbp), %rdi
	call	__ZNK9__gnu_cxx17__normal_iteratorIPSt6vectorISsSaISsEES1_IS3_SaIS3_EEE4baseEv
	movq	(%rax), %r12
	leaq	-48(%rbp), %rdi
	call	__ZNK9__gnu_cxx17__normal_iteratorIPKSt6vectorISsSaISsEES1_IS3_SaIS3_EEE4baseEv
	movq	(%rax), %rbx
	leaq	-40(%rbp), %rdi
	call	__ZNK9__gnu_cxx17__normal_iteratorIPKSt6vectorISsSaISsEES1_IS3_SaIS3_EEE4baseEv
	movq	(%rax), %rdi
	movq	%r12, %rdx
	movq	%rbx, %rsi
	call	__ZSt10__copy_auxIPKSt6vectorISsSaISsEEPS2_ET0_T_S7_S6_
	movq	%rax, -24(%rbp)
	leaq	-24(%rbp), %rsi
	leaq	-32(%rbp), %rdi
	call	__ZN9__gnu_cxx17__normal_iteratorIPSt6vectorISsSaISsEES1_IS3_SaIS3_EEEC1ERKS4_
	movq	-32(%rbp), %rax
	addq	$48, %rsp
	popq	%rbx
	popq	%r12
	leave
	ret
LFE2583:
.globl __ZSt4copyIN9__gnu_cxx17__normal_iteratorIPKSt6vectorISsSaISsEES2_IS4_SaIS4_EEEENS1_IPS4_S8_EEET0_T_SD_SC_
	.weak_definition __ZSt4copyIN9__gnu_cxx17__normal_iteratorIPKSt6vectorISsSaISsEES2_IS4_SaIS4_EEEENS1_IPS4_S8_EEET0_T_SD_SC_
__ZSt4copyIN9__gnu_cxx17__normal_iteratorIPKSt6vectorISsSaISsEES2_IS4_SaIS4_EEEENS1_IPS4_S8_EEET0_T_SD_SC_:
LFB2410:
	.loc 4 390 0
	nop
	nop
	nop
	nop
	nop
	nop
	pushq	%rbp
LCFI1127:
	movq	%rsp, %rbp
LCFI1128:
	subq	$48, %rsp
LCFI1129:
	movq	%rdi, -24(%rbp)
	movq	%rsi, -32(%rbp)
	movq	%rdx, -40(%rbp)
LBB103:
	.loc 4 398 0
	movb	$1, -1(%rbp)
	.loc 4 399 0
	movb	$1, -2(%rbp)
	.loc 4 401 0
	movq	-40(%rbp), %rdx
	movq	-32(%rbp), %rsi
	movq	-24(%rbp), %rdi
	call	__ZNSt13__copy_normalILb1ELb1EE8__copy_nIN9__gnu_cxx17__normal_iteratorIPKSt6vectorISsSaISsEES4_IS6_SaIS6_EEEENS3_IPS6_SA_EEEET0_T_SF_SE_
LBE103:
	leave
	ret
LFE2410:
.globl __ZNSt6__copyILb0ESt26random_access_iterator_tagE4copyIPSt6vectorISsSaISsEES6_EET0_T_S8_S7_
	.weak_definition __ZNSt6__copyILb0ESt26random_access_iterator_tagE4copyIPSt6vectorISsSaISsEES6_EET0_T_S8_S7_
	.private_extern __ZNSt6__copyILb0ESt26random_access_iterator_tagE4copyIPSt6vectorISsSaISsEES6_EET0_T_S8_S7_
__ZNSt6__copyILb0ESt26random_access_iterator_tagE4copyIPSt6vectorISsSaISsEES6_EET0_T_S8_S7_:
LFB2738:
	.loc 4 278 0
	nop
	nop
	nop
	nop
	nop
	nop
	pushq	%rbp
LCFI1130:
	movq	%rsp, %rbp
LCFI1131:
	subq	$48, %rsp
LCFI1132:
	movq	%rdi, -24(%rbp)
	movq	%rsi, -32(%rbp)
	movq	%rdx, -40(%rbp)
LBB104:
LBB105:
	.loc 4 281 0
	movq	-32(%rbp), %rdx
	movq	-24(%rbp), %rax
	movq	%rdx, %rcx
	subq	%rax, %rcx
	movq	%rcx, %rax
	movq	%rax, %rdx
	sarq	$3, %rdx
	movabsq	$-6148914691236517205, %rax
	imulq	%rdx, %rax
	movq	%rax, -8(%rbp)
	jmp	L1174
L1175:
	.loc 4 283 0
	movq	-24(%rbp), %rsi
	movq	-40(%rbp), %rdi
	call	__ZNSt6vectorISsSaISsEEaSERKS1_
	.loc 4 284 0
	addq	$24, -24(%rbp)
	.loc 4 285 0
	addq	$24, -40(%rbp)
	.loc 4 281 0
	decq	-8(%rbp)
L1174:
	cmpq	$0, -8(%rbp)
	jg	L1175
LBE105:
	.loc 4 287 0
	movq	-40(%rbp), %rax
LBE104:
	leave
	ret
LFE2738:
.globl __ZSt10__copy_auxIPSt6vectorISsSaISsEES3_ET0_T_S5_S4_
	.weak_definition __ZSt10__copy_auxIPSt6vectorISsSaISsEES3_ET0_T_S5_S4_
__ZSt10__copy_auxIPSt6vectorISsSaISsEES3_ET0_T_S5_S4_:
LFB2676:
	.loc 4 305 0
	nop
	nop
	nop
	nop
	nop
	nop
	pushq	%rbp
LCFI1133:
	movq	%rsp, %rbp
LCFI1134:
	subq	$48, %rsp
LCFI1135:
	movq	%rdi, -24(%rbp)
	movq	%rsi, -32(%rbp)
	movq	%rdx, -40(%rbp)
LBB106:
	.loc 4 313 0
	movb	$0, -1(%rbp)
	.loc 4 315 0
	movq	-40(%rbp), %rdx
	movq	-32(%rbp), %rsi
	movq	-24(%rbp), %rdi
	call	__ZNSt6__copyILb0ESt26random_access_iterator_tagE4copyIPSt6vectorISsSaISsEES6_EET0_T_S8_S7_
LBE106:
	leave
	ret
LFE2676:
.globl __ZNSt13__copy_normalILb0ELb0EE8__copy_nIPSt6vectorISsSaISsEES5_EET0_T_S7_S6_
	.weak_definition __ZNSt13__copy_normalILb0ELb0EE8__copy_nIPSt6vectorISsSaISsEES5_EET0_T_S7_S6_
	.private_extern __ZNSt13__copy_normalILb0ELb0EE8__copy_nIPSt6vectorISsSaISsEES5_EET0_T_S7_S6_
__ZNSt13__copy_normalILb0ELb0EE8__copy_nIPSt6vectorISsSaISsEES5_EET0_T_S7_S6_:
LFB2585:
	.loc 4 339 0
	nop
	nop
	nop
	nop
	nop
	nop
	pushq	%rbp
LCFI1136:
	movq	%rsp, %rbp
LCFI1137:
	subq	$32, %rsp
LCFI1138:
	movq	%rdi, -8(%rbp)
	movq	%rsi, -16(%rbp)
	movq	%rdx, -24(%rbp)
	.loc 4 340 0
	movq	-24(%rbp), %rdx
	movq	-16(%rbp), %rsi
	movq	-8(%rbp), %rdi
	call	__ZSt10__copy_auxIPSt6vectorISsSaISsEES3_ET0_T_S5_S4_
	leave
	ret
LFE2585:
.globl __ZSt4copyIPSt6vectorISsSaISsEES3_ET0_T_S5_S4_
	.weak_definition __ZSt4copyIPSt6vectorISsSaISsEES3_ET0_T_S5_S4_
__ZSt4copyIPSt6vectorISsSaISsEES3_ET0_T_S5_S4_:
LFB2413:
	.loc 4 390 0
	nop
	nop
	nop
	nop
	nop
	nop
	pushq	%rbp
LCFI1139:
	movq	%rsp, %rbp
LCFI1140:
	subq	$48, %rsp
LCFI1141:
	movq	%rdi, -24(%rbp)
	movq	%rsi, -32(%rbp)
	movq	%rdx, -40(%rbp)
LBB107:
	.loc 4 398 0
	movb	$0, -1(%rbp)
	.loc 4 399 0
	movb	$0, -2(%rbp)
	.loc 4 401 0
	movq	-40(%rbp), %rdx
	movq	-32(%rbp), %rsi
	movq	-24(%rbp), %rdi
	call	__ZNSt13__copy_normalILb0ELb0EE8__copy_nIPSt6vectorISsSaISsEES5_EET0_T_S7_S6_
LBE107:
	leave
	ret
LFE2413:
	.align 1
.globl __ZN9__gnu_cxx13new_allocatorISt6vectorISsSaISsEEE8allocateEmPKv
	.weak_definition __ZN9__gnu_cxx13new_allocatorISt6vectorISsSaISsEEE8allocateEmPKv
	.private_extern __ZN9__gnu_cxx13new_allocatorISt6vectorISsSaISsEEE8allocateEmPKv
__ZN9__gnu_cxx13new_allocatorISt6vectorISsSaISsEEE8allocateEmPKv:
LFB2641:
	.loc 10 86 0
	nop
	nop
	nop
	nop
	nop
	nop
	pushq	%rbp
LCFI1142:
	movq	%rsp, %rbp
LCFI1143:
	subq	$32, %rsp
LCFI1144:
	movq	%rdi, -8(%rbp)
	movq	%rsi, -16(%rbp)
	movq	%rdx, -24(%rbp)
	.loc 10 88 0
	movq	-8(%rbp), %rdi
	call	__ZNK9__gnu_cxx13new_allocatorISt6vectorISsSaISsEEE8max_sizeEv
	cmpq	-16(%rbp), %rax
	setb	%al
	movzbl	%al, %eax
	testq	%rax, %rax
	setne	%al
	testb	%al, %al
	je	L1185
	.loc 10 89 0
	call	__ZSt17__throw_bad_allocv
L1185:
	.loc 10 91 0
	movq	-16(%rbp), %rdx
	movq	%rdx, %rax
	addq	%rax, %rax
	addq	%rdx, %rax
	salq	$3, %rax
	movq	%rax, %rdi
	call	__Znwm
	leave
	ret
LFE2641:
	.align 1
.globl __ZNSt12_Vector_baseISt6vectorISsSaISsEESaIS2_EE11_M_allocateEm
	.weak_definition __ZNSt12_Vector_baseISt6vectorISsSaISsEESaIS2_EE11_M_allocateEm
	.private_extern __ZNSt12_Vector_baseISt6vectorISsSaISsEESaIS2_EE11_M_allocateEm
__ZNSt12_Vector_baseISt6vectorISsSaISsEESaIS2_EE11_M_allocateEm:
LFB2512:
	.loc 8 130 0
	nop
	nop
	nop
	nop
	nop
	nop
	pushq	%rbp
LCFI1145:
	movq	%rsp, %rbp
LCFI1146:
	subq	$16, %rsp
LCFI1147:
	movq	%rdi, -8(%rbp)
	movq	%rsi, -16(%rbp)
	.loc 8 131 0
	movq	-8(%rbp), %rax
	movq	%rax, %rdi
	movq	-16(%rbp), %rsi
	movl	$0, %edx
	call	__ZN9__gnu_cxx13new_allocatorISt6vectorISsSaISsEEE8allocateEmPKv
	leave
	ret
LFE2512:
	.align 1
.globl __ZNSt6vectorIS_ISsSaISsEESaIS1_EE20_M_allocate_and_copyIN9__gnu_cxx17__normal_iteratorIPKS1_S3_EEEEPS1_mT_SB_
	.weak_definition __ZNSt6vectorIS_ISsSaISsEESaIS1_EE20_M_allocate_and_copyIN9__gnu_cxx17__normal_iteratorIPKS1_S3_EEEEPS1_mT_SB_
	.private_extern __ZNSt6vectorIS_ISsSaISsEESaIS1_EE20_M_allocate_and_copyIN9__gnu_cxx17__normal_iteratorIPKS1_S3_EEEEPS1_mT_SB_
__ZNSt6vectorIS_ISsSaISsEESaIS1_EE20_M_allocate_and_copyIN9__gnu_cxx17__normal_iteratorIPKS1_S3_EEEEPS1_mT_SB_:
LFB2407:
	.loc 8 764 0
	nop
	nop
	nop
	nop
	nop
	nop
	pushq	%rbp
LCFI1148:
	movq	%rsp, %rbp
LCFI1149:
	pushq	%rbx
LCFI1150:
	subq	$72, %rsp
LCFI1151:
	movq	%rdi, -40(%rbp)
	movq	%rsi, -48(%rbp)
	movq	%rdx, -56(%rbp)
	movq	%rcx, -64(%rbp)
LBB108:
	.loc 8 766 0
	movq	-40(%rbp), %rdi
	movq	-48(%rbp), %rsi
LEHB128:
	call	__ZNSt12_Vector_baseISt6vectorISsSaISsEESaIS2_EE11_M_allocateEm
LEHE128:
	movq	%rax, -32(%rbp)
	.loc 8 769 0
	movq	-40(%rbp), %rdi
	call	__ZNSt12_Vector_baseISt6vectorISsSaISsEESaIS2_EE19_M_get_Tp_allocatorEv
	movq	%rax, %rsi
	leaq	-17(%rbp), %rdi
	call	__ZNSaISt6vectorISsSaISsEEEC1ERKS2_
	leaq	-17(%rbp), %rcx
	movq	-32(%rbp), %rdx
	movq	-64(%rbp), %rsi
	movq	-56(%rbp), %rdi
LEHB129:
	call	__ZSt22__uninitialized_copy_aIN9__gnu_cxx17__normal_iteratorIPKSt6vectorISsSaISsEES2_IS4_SaIS4_EEEEPS4_S4_ET0_T_SC_SB_SaIT1_E
LEHE129:
	leaq	-17(%rbp), %rdi
	call	__ZNSaISt6vectorISsSaISsEEED1Ev
	.loc 8 771 0
	movq	-32(%rbp), %rax
	movq	%rax, -72(%rbp)
	jmp	L1190
L1197:
	movq	%rax, -80(%rbp)
L1191:
	movq	-80(%rbp), %rbx
	.loc 8 769 0
	leaq	-17(%rbp), %rdi
	call	__ZNSaISt6vectorISsSaISsEEED1Ev
	movq	%rbx, -80(%rbp)
L1198:
L1192:
	.loc 8 773 0
	movq	-80(%rbp), %rdi
	call	___cxa_begin_catch
	.loc 8 775 0
	movq	-40(%rbp), %rdi
	movq	-48(%rbp), %rdx
	movq	-32(%rbp), %rsi
	call	__ZNSt12_Vector_baseISt6vectorISsSaISsEESaIS2_EE13_M_deallocateEPS2_m
LEHB130:
	.loc 8 776 0
	call	___cxa_rethrow
LEHE130:
L1196:
	movq	%rax, -80(%rbp)
L1193:
	movq	-80(%rbp), %rbx
	.loc 8 773 0
	call	___cxa_end_catch
	movq	%rbx, -80(%rbp)
	movq	-80(%rbp), %rdi
LEHB131:
	call	__Unwind_Resume
LEHE131:
L1190:
LBE108:
	.loc 8 776 0
	movq	-72(%rbp), %rax
	addq	$72, %rsp
	popq	%rbx
	leave
	ret
LFE2407:
	.section __TEXT,__gcc_except_tab
	.align 2
GCC_except_table35:
LLSDA2407:
	.byte	0xff
	.byte	0x9b
	.byte	0x41
	.byte	0x3
	.byte	0x34
	.set L$set$320,LEHB128-LFB2407
	.long L$set$320
	.set L$set$321,LEHE128-LEHB128
	.long L$set$321
	.long	0x0
	.byte	0x0
	.set L$set$322,LEHB129-LFB2407
	.long L$set$322
	.set L$set$323,LEHE129-LEHB129
	.long L$set$323
	.set L$set$324,L1197-LFB2407
	.long L$set$324
	.byte	0x3
	.set L$set$325,LEHB130-LFB2407
	.long L$set$325
	.set L$set$326,LEHE130-LEHB130
	.long L$set$326
	.set L$set$327,L1196-LFB2407
	.long L$set$327
	.byte	0x0
	.set L$set$328,LEHB131-LFB2407
	.long L$set$328
	.set L$set$329,LEHE131-LEHB131
	.long L$set$329
	.long	0x0
	.byte	0x0
	.byte	0x1
	.byte	0x0
	.byte	0x0
	.byte	0x7d
	.align 2
	.long	0

	.section __TEXT,__textcoal_nt,coalesced,pure_instructions
	.align 1
.globl __ZNSt6vectorIS_ISsSaISsEESaIS1_EEaSERKS3_
	.weak_definition __ZNSt6vectorIS_ISsSaISsEESaIS1_EEaSERKS3_
__ZNSt6vectorIS_ISsSaISsEESaIS1_EEaSERKS3_:
LFB2179:
	.loc 19 132 0
	nop
	nop
	nop
	nop
	nop
	nop
	pushq	%rbp
LCFI1152:
	movq	%rsp, %rbp
LCFI1153:
	pushq	%r13
LCFI1154:
	pushq	%r12
LCFI1155:
	pushq	%rbx
LCFI1156:
	subq	$72, %rsp
LCFI1157:
	movq	%rdi, -72(%rbp)
	movq	%rsi, -80(%rbp)
LBB109:
	.loc 19 134 0
	movq	-80(%rbp), %rax
	cmpq	-72(%rbp), %rax
	je	L1200
LBB110:
	.loc 19 136 0
	movq	-80(%rbp), %rdi
	call	__ZNKSt6vectorIS_ISsSaISsEESaIS1_EE4sizeEv
	movq	%rax, -48(%rbp)
	.loc 19 137 0
	movq	-72(%rbp), %rdi
	call	__ZNKSt6vectorIS_ISsSaISsEESaIS1_EE8capacityEv
	cmpq	-48(%rbp), %rax
	setb	%al
	testb	%al, %al
	je	L1202
LBB111:
	.loc 19 140 0
	movq	-80(%rbp), %rdi
	call	__ZNKSt6vectorIS_ISsSaISsEESaIS1_EE3endEv
	movq	%rax, %rbx
	movq	-80(%rbp), %rdi
	call	__ZNKSt6vectorIS_ISsSaISsEESaIS1_EE5beginEv
	movq	%rax, %rdx
	movq	-48(%rbp), %rsi
	movq	-72(%rbp), %rdi
	movq	%rbx, %rcx
LEHB132:
	call	__ZNSt6vectorIS_ISsSaISsEESaIS1_EE20_M_allocate_and_copyIN9__gnu_cxx17__normal_iteratorIPKS1_S3_EEEEPS1_mT_SB_
LEHE132:
	movq	%rax, -56(%rbp)
	.loc 19 141 0
	movq	-72(%rbp), %rdi
	call	__ZNSt12_Vector_baseISt6vectorISsSaISsEESaIS2_EE19_M_get_Tp_allocatorEv
	movq	%rax, %rsi
	leaq	-33(%rbp), %rdi
	call	__ZNSaISt6vectorISsSaISsEEEC1ERKS2_
	movq	-72(%rbp), %rax
	movq	8(%rax), %rsi
	movq	-72(%rbp), %rax
	movq	(%rax), %rdi
	leaq	-33(%rbp), %rdx
LEHB133:
	call	__ZSt8_DestroyIPSt6vectorISsSaISsEES2_EvT_S4_SaIT0_E
LEHE133:
	leaq	-33(%rbp), %rdi
	call	__ZNSaISt6vectorISsSaISsEEED1Ev
	.loc 19 143 0
	movq	-72(%rbp), %rax
	movq	16(%rax), %rax
	movq	%rax, %rdx
	movq	-72(%rbp), %rax
	movq	(%rax), %rax
	movq	%rdx, %rcx
	subq	%rax, %rcx
	movq	%rcx, %rax
	movq	%rax, %rdx
	sarq	$3, %rdx
	movabsq	$-6148914691236517205, %rax
	imulq	%rdx, %rax
	movq	%rax, %rdx
	movq	-72(%rbp), %rax
	movq	(%rax), %rsi
	movq	-72(%rbp), %rdi
	call	__ZNSt12_Vector_baseISt6vectorISsSaISsEESaIS2_EE13_M_deallocateEPS2_m
	.loc 19 146 0
	movq	-72(%rbp), %rdx
	movq	-56(%rbp), %rax
	movq	%rax, (%rdx)
	.loc 19 147 0
	movq	-72(%rbp), %rax
	movq	(%rax), %rcx
	movq	-48(%rbp), %rdx
	movq	%rdx, %rax
	addq	%rax, %rax
	addq	%rdx, %rax
	salq	$3, %rax
	leaq	(%rcx,%rax), %rdx
	movq	-72(%rbp), %rax
	movq	%rdx, 16(%rax)
	jmp	L1204
L1213:
	movq	%rax, -96(%rbp)
L1205:
	movq	-96(%rbp), %rbx
	.loc 19 141 0
	leaq	-33(%rbp), %rdi
	call	__ZNSaISt6vectorISsSaISsEEED1Ev
	movq	%rbx, -96(%rbp)
	movq	-96(%rbp), %rdi
LEHB134:
	call	__Unwind_Resume
LEHE134:
L1202:
LBE111:
	.loc 19 149 0
	movq	-72(%rbp), %rdi
	call	__ZNKSt6vectorIS_ISsSaISsEESaIS1_EE4sizeEv
	cmpq	-48(%rbp), %rax
	setae	%al
	testb	%al, %al
	je	L1206
	.loc 19 151 0
	movq	-72(%rbp), %rdi
	call	__ZNSt12_Vector_baseISt6vectorISsSaISsEESaIS2_EE19_M_get_Tp_allocatorEv
	movq	%rax, %rsi
	leaq	-34(%rbp), %rdi
	call	__ZNSaISt6vectorISsSaISsEEEC1ERKS2_
	movq	-72(%rbp), %rdi
	call	__ZNSt6vectorIS_ISsSaISsEESaIS1_EE3endEv
	movq	%rax, -88(%rbp)
	movq	-72(%rbp), %rdi
	call	__ZNSt6vectorIS_ISsSaISsEESaIS1_EE5beginEv
	movq	%rax, %r12
	movq	-80(%rbp), %rdi
	call	__ZNKSt6vectorIS_ISsSaISsEESaIS1_EE3endEv
	movq	%rax, %rbx
	movq	-80(%rbp), %rdi
	call	__ZNKSt6vectorIS_ISsSaISsEESaIS1_EE5beginEv
	movq	%rax, %rdi
	movq	%r12, %rdx
	movq	%rbx, %rsi
LEHB135:
	call	__ZSt4copyIN9__gnu_cxx17__normal_iteratorIPKSt6vectorISsSaISsEES2_IS4_SaIS4_EEEENS1_IPS4_S8_EEET0_T_SD_SC_
	movq	%rax, %rdi
	leaq	-34(%rbp), %rdx
	movq	-88(%rbp), %rsi
	call	__ZSt8_DestroyIN9__gnu_cxx17__normal_iteratorIPSt6vectorISsSaISsEES2_IS4_SaIS4_EEEES4_EvT_S9_SaIT0_E
LEHE135:
	leaq	-34(%rbp), %rdi
	call	__ZNSaISt6vectorISsSaISsEEED1Ev
	jmp	L1204
L1212:
	movq	%rax, -96(%rbp)
L1208:
	movq	-96(%rbp), %rbx
	leaq	-34(%rbp), %rdi
	call	__ZNSaISt6vectorISsSaISsEEED1Ev
	movq	%rbx, -96(%rbp)
	movq	-96(%rbp), %rdi
LEHB136:
	call	__Unwind_Resume
L1206:
	.loc 19 156 0
	movq	-72(%rbp), %rax
	movq	(%rax), %rbx
	movq	-80(%rbp), %rax
	movq	(%rax), %r12
	movq	-72(%rbp), %rdi
	call	__ZNKSt6vectorIS_ISsSaISsEESaIS1_EE4sizeEv
	movq	%rax, %rdx
	movq	%rdx, %rax
	addq	%rax, %rax
	addq	%rdx, %rax
	salq	$3, %rax
	leaq	(%r12,%rax), %rsi
	movq	-80(%rbp), %rax
	movq	(%rax), %rdi
	movq	%rbx, %rdx
	call	__ZSt4copyIPSt6vectorISsSaISsEES3_ET0_T_S5_S4_
LEHE136:
	.loc 19 158 0
	movq	-72(%rbp), %rdi
	call	__ZNSt12_Vector_baseISt6vectorISsSaISsEESaIS2_EE19_M_get_Tp_allocatorEv
	movq	%rax, %rsi
	leaq	-35(%rbp), %rdi
	call	__ZNSaISt6vectorISsSaISsEEEC1ERKS2_
	movq	-72(%rbp), %rax
	movq	8(%rax), %rbx
	movq	-80(%rbp), %rax
	movq	8(%rax), %r12
	movq	-80(%rbp), %rax
	movq	(%rax), %r13
	movq	-72(%rbp), %rdi
	call	__ZNKSt6vectorIS_ISsSaISsEESaIS1_EE4sizeEv
	movq	%rax, %rdx
	movq	%rdx, %rax
	addq	%rax, %rax
	addq	%rdx, %rax
	salq	$3, %rax
	leaq	(%r13,%rax), %rdi
	leaq	-35(%rbp), %rcx
	movq	%rbx, %rdx
	movq	%r12, %rsi
LEHB137:
	call	__ZSt22__uninitialized_copy_aIPSt6vectorISsSaISsEES3_S2_ET0_T_S5_S4_SaIT1_E
LEHE137:
	leaq	-35(%rbp), %rdi
	call	__ZNSaISt6vectorISsSaISsEEED1Ev
	jmp	L1204
L1211:
	movq	%rax, -96(%rbp)
L1209:
	movq	-96(%rbp), %rbx
	leaq	-35(%rbp), %rdi
	call	__ZNSaISt6vectorISsSaISsEEED1Ev
	movq	%rbx, -96(%rbp)
	movq	-96(%rbp), %rdi
LEHB138:
	call	__Unwind_Resume
LEHE138:
L1204:
	.loc 19 163 0
	movq	-72(%rbp), %rax
	movq	(%rax), %rcx
	movq	-48(%rbp), %rdx
	movq	%rdx, %rax
	addq	%rax, %rax
	addq	%rdx, %rax
	salq	$3, %rax
	leaq	(%rcx,%rax), %rdx
	movq	-72(%rbp), %rax
	movq	%rdx, 8(%rax)
L1200:
LBE110:
	.loc 19 165 0
	movq	-72(%rbp), %rax
LBE109:
	addq	$72, %rsp
	popq	%rbx
	popq	%r12
	popq	%r13
	leave
	ret
LFE2179:
	.section __TEXT,__gcc_except_tab
GCC_except_table36:
LLSDA2179:
	.byte	0xff
	.byte	0xff
	.byte	0x3
	.byte	0x5b
	.set L$set$330,LEHB132-LFB2179
	.long L$set$330
	.set L$set$331,LEHE132-LEHB132
	.long L$set$331
	.long	0x0
	.byte	0x0
	.set L$set$332,LEHB133-LFB2179
	.long L$set$332
	.set L$set$333,LEHE133-LEHB133
	.long L$set$333
	.set L$set$334,L1213-LFB2179
	.long L$set$334
	.byte	0x0
	.set L$set$335,LEHB134-LFB2179
	.long L$set$335
	.set L$set$336,LEHE134-LEHB134
	.long L$set$336
	.long	0x0
	.byte	0x0
	.set L$set$337,LEHB135-LFB2179
	.long L$set$337
	.set L$set$338,LEHE135-LEHB135
	.long L$set$338
	.set L$set$339,L1212-LFB2179
	.long L$set$339
	.byte	0x0
	.set L$set$340,LEHB136-LFB2179
	.long L$set$340
	.set L$set$341,LEHE136-LEHB136
	.long L$set$341
	.long	0x0
	.byte	0x0
	.set L$set$342,LEHB137-LFB2179
	.long L$set$342
	.set L$set$343,LEHE137-LEHB137
	.long L$set$343
	.set L$set$344,L1211-LFB2179
	.long L$set$344
	.byte	0x0
	.set L$set$345,LEHB138-LFB2179
	.long L$set$345
	.set L$set$346,LEHE138-LEHB138
	.long L$set$346
	.long	0x0
	.byte	0x0
	.section __TEXT,__textcoal_nt,coalesced,pure_instructions
	.align 1
.globl __ZN5TableaSERKS_
	.weak_definition __ZN5TableaSERKS_
	.private_extern __ZN5TableaSERKS_
__ZN5TableaSERKS_:
LFB2001:
	.loc 7 31 0
	nop
	nop
	nop
	nop
	nop
	nop
	pushq	%rbp
LCFI1158:
	movq	%rsp, %rbp
LCFI1159:
	subq	$16, %rsp
LCFI1160:
	movq	%rdi, -8(%rbp)
	movq	%rsi, -16(%rbp)
	.loc 7 31 0
	movq	-16(%rbp), %rsi
	movq	-8(%rbp), %rdi
	call	__ZNSt3mapISsiSt4lessISsESaISt4pairIKSsiEEEaSERKS6_
	movq	-16(%rbp), %rsi
	addq	$48, %rsi
	movq	-8(%rbp), %rdi
	addq	$48, %rdi
	call	__ZNSt3mapIiSsSt4lessIiESaISt4pairIKiSsEEEaSERKS6_
	movq	-16(%rbp), %rsi
	addq	$96, %rsi
	movq	-8(%rbp), %rdi
	addq	$96, %rdi
	call	__ZNSt3mapIiSsSt4lessIiESaISt4pairIKiSsEEEaSERKS6_
	movq	-16(%rbp), %rsi
	addq	$144, %rsi
	movq	-8(%rbp), %rdi
	addq	$144, %rdi
	call	__ZNSt6vectorIS_ISsSaISsEESaIS1_EEaSERKS3_
	movq	-8(%rbp), %rax
	leave
	ret
LFE2001:
	.align 1
.globl __ZNSt12_Vector_baseISt6vectorISsSaISsEESaIS2_EEC2EmRKS3_
	.weak_definition __ZNSt12_Vector_baseISt6vectorISsSaISsEESaIS2_EEC2EmRKS3_
	.private_extern __ZNSt12_Vector_baseISt6vectorISsSaISsEESaIS2_EEC2EmRKS3_
__ZNSt12_Vector_baseISt6vectorISsSaISsEESaIS2_EEC2EmRKS3_:
LFB2311:
	.loc 8 111 0
	nop
	nop
	nop
	nop
	nop
	nop
	pushq	%rbp
LCFI1161:
	movq	%rsp, %rbp
LCFI1162:
	pushq	%rbx
LCFI1163:
	subq	$40, %rsp
LCFI1164:
	movq	%rdi, -24(%rbp)
	movq	%rsi, -32(%rbp)
	movq	%rdx, -40(%rbp)
LBB112:
	.loc 8 112 0
	movq	-24(%rbp), %rdi
	movq	-40(%rbp), %rsi
	call	__ZNSt12_Vector_baseISt6vectorISsSaISsEESaIS2_EE12_Vector_implC1ERKS3_
	.loc 8 114 0
	cmpq	$0, -32(%rbp)
	je	L1220
	.loc 8 116 0
	movq	-32(%rbp), %rsi
	movq	-24(%rbp), %rdi
LEHB139:
	call	__ZNSt12_Vector_baseISt6vectorISsSaISsEESaIS2_EE11_M_allocateEm
LEHE139:
	movq	%rax, %rdx
	movq	-24(%rbp), %rax
	movq	%rdx, (%rax)
	.loc 8 117 0
	movq	-24(%rbp), %rax
	movq	(%rax), %rdx
	movq	-24(%rbp), %rax
	movq	%rdx, 8(%rax)
	.loc 8 118 0
	movq	-24(%rbp), %rax
	movq	(%rax), %rcx
	movq	-32(%rbp), %rdx
	movq	%rdx, %rax
	addq	%rax, %rax
	addq	%rdx, %rax
	salq	$3, %rax
	leaq	(%rcx,%rax), %rdx
	movq	-24(%rbp), %rax
	movq	%rdx, 16(%rax)
	jmp	L1220
L1221:
	movq	%rax, -48(%rbp)
L1219:
	movq	-48(%rbp), %rbx
	movq	-24(%rbp), %rdi
	call	__ZNSt12_Vector_baseISt6vectorISsSaISsEESaIS2_EE12_Vector_implD1Ev
	movq	%rbx, -48(%rbp)
	movq	-48(%rbp), %rdi
LEHB140:
	call	__Unwind_Resume
LEHE140:
L1220:
LBE112:
	addq	$40, %rsp
	popq	%rbx
	leave
	ret
LFE2311:
	.section __TEXT,__gcc_except_tab
GCC_except_table37:
LLSDA2311:
	.byte	0xff
	.byte	0xff
	.byte	0x3
	.byte	0x1a
	.set L$set$347,LEHB139-LFB2311
	.long L$set$347
	.set L$set$348,LEHE139-LEHB139
	.long L$set$348
	.set L$set$349,L1221-LFB2311
	.long L$set$349
	.byte	0x0
	.set L$set$350,LEHB140-LFB2311
	.long L$set$350
	.set L$set$351,LEHE140-LEHB140
	.long L$set$351
	.long	0x0
	.byte	0x0
	.section __TEXT,__textcoal_nt,coalesced,pure_instructions
	.align 1
.globl __ZNSt6vectorIS_ISsSaISsEESaIS1_EEC1ERKS3_
	.weak_definition __ZNSt6vectorIS_ISsSaISsEESaIS1_EEC1ERKS3_
	.private_extern __ZNSt6vectorIS_ISsSaISsEESaIS1_EEC1ERKS3_
__ZNSt6vectorIS_ISsSaISsEESaIS1_EEC1ERKS3_:
LFB2106:
	.loc 8 231 0
	nop
	nop
	nop
	nop
	nop
	nop
	pushq	%rbp
LCFI1165:
	movq	%rsp, %rbp
LCFI1166:
	pushq	%r12
LCFI1167:
	pushq	%rbx
LCFI1168:
	subq	$48, %rsp
LCFI1169:
	movq	%rdi, -40(%rbp)
	movq	%rsi, -48(%rbp)
LBB113:
	.loc 8 232 0
	movq	-48(%rbp), %rdi
	call	__ZNKSt12_Vector_baseISt6vectorISsSaISsEESaIS2_EE19_M_get_Tp_allocatorEv
	movq	%rax, %rbx
	movq	-48(%rbp), %rdi
	call	__ZNKSt6vectorIS_ISsSaISsEESaIS1_EE4sizeEv
	movq	%rax, %rsi
	movq	-40(%rbp), %rdi
	movq	%rbx, %rdx
LEHB141:
	call	__ZNSt12_Vector_baseISt6vectorISsSaISsEESaIS2_EEC2EmRKS3_
LEHE141:
	.loc 8 233 0
	movq	-40(%rbp), %rdi
	call	__ZNSt12_Vector_baseISt6vectorISsSaISsEESaIS2_EE19_M_get_Tp_allocatorEv
	movq	%rax, %rsi
	leaq	-17(%rbp), %rdi
	call	__ZNSaISt6vectorISsSaISsEEEC1ERKS2_
	movq	-40(%rbp), %rax
	movq	(%rax), %r12
	movq	-48(%rbp), %rdi
	call	__ZNKSt6vectorIS_ISsSaISsEESaIS1_EE3endEv
	movq	%rax, %rbx
	movq	-48(%rbp), %rdi
	call	__ZNKSt6vectorIS_ISsSaISsEESaIS1_EE5beginEv
	movq	%rax, %rdi
	leaq	-17(%rbp), %rcx
	movq	%r12, %rdx
	movq	%rbx, %rsi
LEHB142:
	call	__ZSt22__uninitialized_copy_aIN9__gnu_cxx17__normal_iteratorIPKSt6vectorISsSaISsEES2_IS4_SaIS4_EEEEPS4_S4_ET0_T_SC_SB_SaIT1_E
LEHE142:
	movq	-40(%rbp), %rdx
	movq	%rax, 8(%rdx)
	leaq	-17(%rbp), %rdi
	call	__ZNSaISt6vectorISsSaISsEEED1Ev
	jmp	L1225
L1226:
	movq	%rax, -56(%rbp)
L1223:
	movq	-56(%rbp), %rbx
	leaq	-17(%rbp), %rdi
	call	__ZNSaISt6vectorISsSaISsEEED1Ev
	movq	%rbx, -56(%rbp)
L1227:
L1224:
	movq	-56(%rbp), %rbx
	movq	-40(%rbp), %rdi
	call	__ZNSt12_Vector_baseISt6vectorISsSaISsEESaIS2_EED2Ev
	movq	%rbx, -56(%rbp)
	movq	-56(%rbp), %rdi
LEHB143:
	call	__Unwind_Resume
LEHE143:
L1225:
LBE113:
	addq	$48, %rsp
	popq	%rbx
	popq	%r12
	leave
	ret
LFE2106:
	.section __TEXT,__gcc_except_tab
GCC_except_table38:
LLSDA2106:
	.byte	0xff
	.byte	0xff
	.byte	0x3
	.byte	0x27
	.set L$set$352,LEHB141-LFB2106
	.long L$set$352
	.set L$set$353,LEHE141-LEHB141
	.long L$set$353
	.long	0x0
	.byte	0x0
	.set L$set$354,LEHB142-LFB2106
	.long L$set$354
	.set L$set$355,LEHE142-LEHB142
	.long L$set$355
	.set L$set$356,L1226-LFB2106
	.long L$set$356
	.byte	0x0
	.set L$set$357,LEHB143-LFB2106
	.long L$set$357
	.set L$set$358,LEHE143-LEHB143
	.long L$set$358
	.long	0x0
	.byte	0x0
	.section __TEXT,__textcoal_nt,coalesced,pure_instructions
	.align 1
.globl __ZN5TableC1ERKS_
	.weak_definition __ZN5TableC1ERKS_
	.private_extern __ZN5TableC1ERKS_
__ZN5TableC1ERKS_:
LFB1997:
	.loc 7 31 0
	nop
	nop
	nop
	nop
	nop
	nop
	pushq	%rbp
LCFI1170:
	movq	%rsp, %rbp
LCFI1171:
	pushq	%rbx
LCFI1172:
	subq	$40, %rsp
LCFI1173:
	movq	%rdi, -24(%rbp)
	movq	%rsi, -32(%rbp)
LBB114:
	.loc 7 31 0
	movq	-32(%rbp), %rsi
	movq	-24(%rbp), %rdi
LEHB144:
	call	__ZNSt3mapISsiSt4lessISsESaISt4pairIKSsiEEEC1ERKS6_
LEHE144:
	movq	-32(%rbp), %rsi
	addq	$48, %rsi
	movq	-24(%rbp), %rdi
	addq	$48, %rdi
LEHB145:
	call	__ZNSt3mapIiSsSt4lessIiESaISt4pairIKiSsEEEC1ERKS6_
LEHE145:
	movq	-32(%rbp), %rsi
	addq	$96, %rsi
	movq	-24(%rbp), %rdi
	addq	$96, %rdi
LEHB146:
	call	__ZNSt3mapIiSsSt4lessIiESaISt4pairIKiSsEEEC1ERKS6_
LEHE146:
	movq	-32(%rbp), %rsi
	addq	$144, %rsi
	movq	-24(%rbp), %rdi
	addq	$144, %rdi
LEHB147:
	call	__ZNSt6vectorIS_ISsSaISsEESaIS1_EEC1ERKS3_
LEHE147:
	jmp	L1232
L1233:
	movq	%rax, -40(%rbp)
L1229:
	movq	-40(%rbp), %rbx
	movq	-24(%rbp), %rdi
	addq	$96, %rdi
	call	__ZNSt3mapIiSsSt4lessIiESaISt4pairIKiSsEEED1Ev
	movq	%rbx, -40(%rbp)
	jmp	L1230
L1234:
	movq	%rax, -40(%rbp)
L1230:
	movq	-40(%rbp), %rbx
	movq	-24(%rbp), %rdi
	addq	$48, %rdi
	call	__ZNSt3mapIiSsSt4lessIiESaISt4pairIKiSsEEED1Ev
	movq	%rbx, -40(%rbp)
	jmp	L1231
L1235:
	movq	%rax, -40(%rbp)
L1231:
	movq	-40(%rbp), %rbx
	movq	-24(%rbp), %rdi
	call	__ZNSt3mapISsiSt4lessISsESaISt4pairIKSsiEEED1Ev
	movq	%rbx, -40(%rbp)
	movq	-40(%rbp), %rdi
LEHB148:
	call	__Unwind_Resume
LEHE148:
L1232:
LBE114:
	addq	$40, %rsp
	popq	%rbx
	leave
	ret
LFE1997:
	.section __TEXT,__gcc_except_tab
GCC_except_table39:
LLSDA1997:
	.byte	0xff
	.byte	0xff
	.byte	0x3
	.byte	0x41
	.set L$set$359,LEHB144-LFB1997
	.long L$set$359
	.set L$set$360,LEHE144-LEHB144
	.long L$set$360
	.long	0x0
	.byte	0x0
	.set L$set$361,LEHB145-LFB1997
	.long L$set$361
	.set L$set$362,LEHE145-LEHB145
	.long L$set$362
	.set L$set$363,L1235-LFB1997
	.long L$set$363
	.byte	0x0
	.set L$set$364,LEHB146-LFB1997
	.long L$set$364
	.set L$set$365,LEHE146-LEHB146
	.long L$set$365
	.set L$set$366,L1234-LFB1997
	.long L$set$366
	.byte	0x0
	.set L$set$367,LEHB147-LFB1997
	.long L$set$367
	.set L$set$368,LEHE147-LEHB147
	.long L$set$368
	.set L$set$369,L1233-LFB1997
	.long L$set$369
	.byte	0x0
	.set L$set$370,LEHB148-LFB1997
	.long L$set$370
	.set L$set$371,LEHE148-LEHB148
	.long L$set$371
	.long	0x0
	.byte	0x0
	.section __TEXT,__textcoal_nt,coalesced,pure_instructions
	.align 1
.globl __ZNSt4pairIKSs5TableEC1ERS0_RKS1_
	.weak_definition __ZNSt4pairIKSs5TableEC1ERS0_RKS1_
	.private_extern __ZNSt4pairIKSs5TableEC1ERS0_RKS1_
__ZNSt4pairIKSs5TableEC1ERS0_RKS1_:
LFB2301:
	.loc 9 84 0
	nop
	nop
	nop
	nop
	nop
	nop
	pushq	%rbp
LCFI1174:
	movq	%rsp, %rbp
LCFI1175:
	pushq	%rbx
LCFI1176:
	subq	$40, %rsp
LCFI1177:
	movq	%rdi, -24(%rbp)
	movq	%rsi, -32(%rbp)
	movq	%rdx, -40(%rbp)
LBB115:
	.loc 9 85 0
	movq	-24(%rbp), %rdi
	movq	-32(%rbp), %rsi
LEHB149:
	call	__ZNSsC1ERKSs
LEHE149:
	movq	-24(%rbp), %rdi
	addq	$8, %rdi
	movq	-40(%rbp), %rsi
LEHB150:
	call	__ZN5TableC1ERKS_
LEHE150:
	jmp	L1238
L1239:
	movq	%rax, -48(%rbp)
L1237:
	movq	-48(%rbp), %rbx
	movq	-24(%rbp), %rax
	movq	%rax, %rdi
	call	__ZNSsD1Ev
	movq	%rbx, -48(%rbp)
	movq	-48(%rbp), %rdi
LEHB151:
	call	__Unwind_Resume
LEHE151:
L1238:
LBE115:
	addq	$40, %rsp
	popq	%rbx
	leave
	ret
LFE2301:
	.section __TEXT,__gcc_except_tab
GCC_except_table40:
LLSDA2301:
	.byte	0xff
	.byte	0xff
	.byte	0x3
	.byte	0x27
	.set L$set$372,LEHB149-LFB2301
	.long L$set$372
	.set L$set$373,LEHE149-LEHB149
	.long L$set$373
	.long	0x0
	.byte	0x0
	.set L$set$374,LEHB150-LFB2301
	.long L$set$374
	.set L$set$375,LEHE150-LEHB150
	.long L$set$375
	.set L$set$376,L1239-LFB2301
	.long L$set$376
	.byte	0x0
	.set L$set$377,LEHB151-LFB2301
	.long L$set$377
	.set L$set$378,LEHE151-LEHB151
	.long L$set$378
	.long	0x0
	.byte	0x0
	.section __TEXT,__textcoal_nt,coalesced,pure_instructions
	.align 1
.globl __ZNSt4pairIKSs5TableEC1ERKS2_
	.weak_definition __ZNSt4pairIKSs5TableEC1ERKS2_
	.private_extern __ZNSt4pairIKSs5TableEC1ERKS2_
__ZNSt4pairIKSs5TableEC1ERKS2_:
LFB2097:
	.loc 9 69 0
	nop
	nop
	nop
	nop
	nop
	nop
	pushq	%rbp
LCFI1178:
	movq	%rsp, %rbp
LCFI1179:
	pushq	%rbx
LCFI1180:
	subq	$40, %rsp
LCFI1181:
	movq	%rdi, -24(%rbp)
	movq	%rsi, -32(%rbp)
LBB116:
	.loc 9 69 0
	movq	-32(%rbp), %rsi
	movq	-24(%rbp), %rdi
LEHB152:
	call	__ZNSsC1ERKSs
LEHE152:
	movq	-32(%rbp), %rsi
	addq	$8, %rsi
	movq	-24(%rbp), %rdi
	addq	$8, %rdi
LEHB153:
	call	__ZN5TableC1ERKS_
LEHE153:
	jmp	L1242
L1243:
	movq	%rax, -40(%rbp)
L1241:
	movq	-40(%rbp), %rbx
	movq	-24(%rbp), %rax
	movq	%rax, %rdi
	call	__ZNSsD1Ev
	movq	%rbx, -40(%rbp)
	movq	-40(%rbp), %rdi
LEHB154:
	call	__Unwind_Resume
LEHE154:
L1242:
LBE116:
	addq	$40, %rsp
	popq	%rbx
	leave
	ret
LFE2097:
	.section __TEXT,__gcc_except_tab
GCC_except_table41:
LLSDA2097:
	.byte	0xff
	.byte	0xff
	.byte	0x3
	.byte	0x27
	.set L$set$379,LEHB152-LFB2097
	.long L$set$379
	.set L$set$380,LEHE152-LEHB152
	.long L$set$380
	.long	0x0
	.byte	0x0
	.set L$set$381,LEHB153-LFB2097
	.long L$set$381
	.set L$set$382,LEHE153-LEHB153
	.long L$set$382
	.set L$set$383,L1243-LFB2097
	.long L$set$383
	.byte	0x0
	.set L$set$384,LEHB154-LFB2097
	.long L$set$384
	.set L$set$385,LEHE154-LEHB154
	.long L$set$385
	.long	0x0
	.byte	0x0
	.section __TEXT,__textcoal_nt,coalesced,pure_instructions
	.align 1
.globl __ZN9__gnu_cxx13new_allocatorISt4pairIKSs5TableEE9constructEPS4_RKS4_
	.weak_definition __ZN9__gnu_cxx13new_allocatorISt4pairIKSs5TableEE9constructEPS4_RKS4_
	.private_extern __ZN9__gnu_cxx13new_allocatorISt4pairIKSs5TableEE9constructEPS4_RKS4_
__ZN9__gnu_cxx13new_allocatorISt4pairIKSs5TableEE9constructEPS4_RKS4_:
LFB2747:
	.loc 10 106 0
	nop
	nop
	nop
	nop
	nop
	nop
	pushq	%rbp
LCFI1182:
	movq	%rsp, %rbp
LCFI1183:
	pushq	%rbx
LCFI1184:
	subq	$56, %rsp
LCFI1185:
	movq	%rdi, -24(%rbp)
	movq	%rsi, -32(%rbp)
	movq	%rdx, -40(%rbp)
	.loc 10 107 0
	movq	-32(%rbp), %rsi
	movl	$176, %edi
	call	__ZnwmPv
	movq	%rax, -48(%rbp)
	cmpq	$0, -48(%rbp)
	je	L1249
	movq	-40(%rbp), %rsi
	movq	-48(%rbp), %rdi
LEHB155:
	call	__ZNSt4pairIKSs5TableEC1ERKS2_
LEHE155:
	jmp	L1249
L1250:
	movq	%rax, -56(%rbp)
L1248:
	movq	-56(%rbp), %rbx
	movq	-32(%rbp), %rsi
	movq	-48(%rbp), %rdi
	call	__ZdlPvS_
	movq	%rbx, -56(%rbp)
	movq	-56(%rbp), %rdi
LEHB156:
	call	__Unwind_Resume
LEHE156:
L1249:
	addq	$56, %rsp
	popq	%rbx
	leave
	ret
LFE2747:
	.section __TEXT,__gcc_except_tab
GCC_except_table42:
LLSDA2747:
	.byte	0xff
	.byte	0xff
	.byte	0x3
	.byte	0x1a
	.set L$set$386,LEHB155-LFB2747
	.long L$set$386
	.set L$set$387,LEHE155-LEHB155
	.long L$set$387
	.set L$set$388,L1250-LFB2747
	.long L$set$388
	.byte	0x0
	.set L$set$389,LEHB156-LFB2747
	.long L$set$389
	.set L$set$390,LEHE156-LEHB156
	.long L$set$390
	.long	0x0
	.byte	0x0
	.section __TEXT,__textcoal_nt,coalesced,pure_instructions
	.align 1
.globl __ZN9__gnu_cxx13new_allocatorISt13_Rb_tree_nodeISt4pairIKSs5TableEEE8allocateEmPKv
	.weak_definition __ZN9__gnu_cxx13new_allocatorISt13_Rb_tree_nodeISt4pairIKSs5TableEEE8allocateEmPKv
	.private_extern __ZN9__gnu_cxx13new_allocatorISt13_Rb_tree_nodeISt4pairIKSs5TableEEE8allocateEmPKv
__ZN9__gnu_cxx13new_allocatorISt13_Rb_tree_nodeISt4pairIKSs5TableEEE8allocateEmPKv:
LFB2756:
	.loc 10 86 0
	nop
	nop
	nop
	nop
	nop
	nop
	pushq	%rbp
LCFI1186:
	movq	%rsp, %rbp
LCFI1187:
	subq	$32, %rsp
LCFI1188:
	movq	%rdi, -8(%rbp)
	movq	%rsi, -16(%rbp)
	movq	%rdx, -24(%rbp)
	.loc 10 88 0
	movq	-8(%rbp), %rdi
	call	__ZNK9__gnu_cxx13new_allocatorISt13_Rb_tree_nodeISt4pairIKSs5TableEEE8max_sizeEv
	cmpq	-16(%rbp), %rax
	setb	%al
	movzbl	%al, %eax
	testq	%rax, %rax
	setne	%al
	testb	%al, %al
	je	L1252
	.loc 10 89 0
	call	__ZSt17__throw_bad_allocv
L1252:
	.loc 10 91 0
	movq	-16(%rbp), %rax
	imulq	$208, %rax, %rdi
	call	__Znwm
	leave
	ret
LFE2756:
	.align 1
.globl __ZNSt8_Rb_treeISsSt4pairIKSs5TableESt10_Select1stIS3_ESt4lessISsESaIS3_EE11_M_get_nodeEv
	.weak_definition __ZNSt8_Rb_treeISsSt4pairIKSs5TableESt10_Select1stIS3_ESt4lessISsESaIS3_EE11_M_get_nodeEv
	.private_extern __ZNSt8_Rb_treeISsSt4pairIKSs5TableESt10_Select1stIS3_ESt4lessISsESaIS3_EE11_M_get_nodeEv
__ZNSt8_Rb_treeISsSt4pairIKSs5TableESt10_Select1stIS3_ESt4lessISsESaIS3_EE11_M_get_nodeEv:
LFB2746:
	.loc 3 368 0
	nop
	nop
	nop
	nop
	nop
	nop
	pushq	%rbp
LCFI1189:
	movq	%rsp, %rbp
LCFI1190:
	subq	$16, %rsp
LCFI1191:
	movq	%rdi, -8(%rbp)
	.loc 3 369 0
	movq	-8(%rbp), %rax
	movq	%rax, %rdi
	movl	$0, %edx
	movl	$1, %esi
	call	__ZN9__gnu_cxx13new_allocatorISt13_Rb_tree_nodeISt4pairIKSs5TableEEE8allocateEmPKv
	leave
	ret
LFE2746:
	.align 1
.globl __ZNSt8_Rb_treeISsSt4pairIKSs5TableESt10_Select1stIS3_ESt4lessISsESaIS3_EE14_M_create_nodeERKS3_
	.weak_definition __ZNSt8_Rb_treeISsSt4pairIKSs5TableESt10_Select1stIS3_ESt4lessISsESaIS3_EE14_M_create_nodeERKS3_
	.private_extern __ZNSt8_Rb_treeISsSt4pairIKSs5TableESt10_Select1stIS3_ESt4lessISsESaIS3_EE14_M_create_nodeERKS3_
__ZNSt8_Rb_treeISsSt4pairIKSs5TableESt10_Select1stIS3_ESt4lessISsESaIS3_EE14_M_create_nodeERKS3_:
LFB2702:
	.loc 3 376 0
	nop
	nop
	nop
	nop
	nop
	nop
	pushq	%rbp
LCFI1192:
	movq	%rsp, %rbp
LCFI1193:
	pushq	%rbx
LCFI1194:
	subq	$56, %rsp
LCFI1195:
	movq	%rdi, -40(%rbp)
	movq	%rsi, -48(%rbp)
LBB117:
	.loc 3 378 0
	movq	-40(%rbp), %rdi
LEHB157:
	call	__ZNSt8_Rb_treeISsSt4pairIKSs5TableESt10_Select1stIS3_ESt4lessISsESaIS3_EE11_M_get_nodeEv
LEHE157:
	movq	%rax, -32(%rbp)
	.loc 3 380 0
	movq	-32(%rbp), %rbx
	addq	$32, %rbx
	leaq	-17(%rbp), %rdi
	movq	-40(%rbp), %rsi
	call	__ZNKSt8_Rb_treeISsSt4pairIKSs5TableESt10_Select1stIS3_ESt4lessISsESaIS3_EE13get_allocatorEv
	leaq	-17(%rbp), %rdi
	movq	-48(%rbp), %rdx
	movq	%rbx, %rsi
LEHB158:
	call	__ZN9__gnu_cxx13new_allocatorISt4pairIKSs5TableEE9constructEPS4_RKS4_
LEHE158:
	leaq	-17(%rbp), %rdi
	call	__ZNSaISt4pairIKSs5TableEED1Ev
	.loc 3 386 0
	movq	-32(%rbp), %rax
	movq	%rax, -56(%rbp)
	jmp	L1257
L1264:
	movq	%rax, -64(%rbp)
L1258:
	movq	-64(%rbp), %rbx
	.loc 3 380 0
	leaq	-17(%rbp), %rdi
	call	__ZNSaISt4pairIKSs5TableEED1Ev
	movq	%rbx, -64(%rbp)
L1265:
L1259:
	.loc 3 381 0
	movq	-64(%rbp), %rdi
	call	___cxa_begin_catch
	.loc 3 383 0
	movq	-32(%rbp), %rsi
	movq	-40(%rbp), %rdi
	call	__ZNSt8_Rb_treeISsSt4pairIKSs5TableESt10_Select1stIS3_ESt4lessISsESaIS3_EE11_M_put_nodeEPSt13_Rb_tree_nodeIS3_E
LEHB159:
	.loc 3 384 0
	call	___cxa_rethrow
LEHE159:
L1263:
	movq	%rax, -64(%rbp)
L1260:
	movq	-64(%rbp), %rbx
	.loc 3 381 0
	call	___cxa_end_catch
	movq	%rbx, -64(%rbp)
	movq	-64(%rbp), %rdi
LEHB160:
	call	__Unwind_Resume
LEHE160:
L1257:
LBE117:
	.loc 3 386 0
	movq	-56(%rbp), %rax
	addq	$56, %rsp
	popq	%rbx
	leave
	ret
LFE2702:
	.section __TEXT,__gcc_except_tab
	.align 2
GCC_except_table43:
LLSDA2702:
	.byte	0xff
	.byte	0x9b
	.byte	0x41
	.byte	0x3
	.byte	0x34
	.set L$set$391,LEHB157-LFB2702
	.long L$set$391
	.set L$set$392,LEHE157-LEHB157
	.long L$set$392
	.long	0x0
	.byte	0x0
	.set L$set$393,LEHB158-LFB2702
	.long L$set$393
	.set L$set$394,LEHE158-LEHB158
	.long L$set$394
	.set L$set$395,L1264-LFB2702
	.long L$set$395
	.byte	0x3
	.set L$set$396,LEHB159-LFB2702
	.long L$set$396
	.set L$set$397,LEHE159-LEHB159
	.long L$set$397
	.set L$set$398,L1263-LFB2702
	.long L$set$398
	.byte	0x0
	.set L$set$399,LEHB160-LFB2702
	.long L$set$399
	.set L$set$400,LEHE160-LEHB160
	.long L$set$400
	.long	0x0
	.byte	0x0
	.byte	0x1
	.byte	0x0
	.byte	0x0
	.byte	0x7d
	.align 2
	.long	0

	.section __TEXT,__textcoal_nt,coalesced,pure_instructions
.globl __ZNSt11char_traitsIcE6lengthEPKc
	.weak_definition __ZNSt11char_traitsIcE6lengthEPKc
	.private_extern __ZNSt11char_traitsIcE6lengthEPKc
__ZNSt11char_traitsIcE6lengthEPKc:
LFB644:
	.file 20 "/Developer/SDKs/MacOSX10.6.sdk/usr/include/c++/4.2.1/bits/char_traits.h"
	.loc 20 257 0
	nop
	nop
	nop
	nop
	nop
	nop
	pushq	%rbp
LCFI1196:
	movq	%rsp, %rbp
LCFI1197:
	subq	$16, %rsp
LCFI1198:
	movq	%rdi, -8(%rbp)
	.loc 20 258 0
	movq	-8(%rbp), %rdi
	call	_strlen
	leave
	ret
LFE644:
	.cstring
LC16:
	.ascii "vector::_M_insert_aux\0"
	.section __TEXT,__textcoal_nt,coalesced,pure_instructions
	.align 1
.globl __ZNSt6vectorISsSaISsEE13_M_insert_auxEN9__gnu_cxx17__normal_iteratorIPSsS1_EERKSs
	.weak_definition __ZNSt6vectorISsSaISsEE13_M_insert_auxEN9__gnu_cxx17__normal_iteratorIPSsS1_EERKSs
__ZNSt6vectorISsSaISsEE13_M_insert_auxEN9__gnu_cxx17__normal_iteratorIPSsS1_EERKSs:
LFB2293:
	.loc 19 245 0
	nop
	nop
	nop
	nop
	nop
	nop
	pushq	%rbp
LCFI1199:
	movq	%rsp, %rbp
LCFI1200:
	pushq	%r12
LCFI1201:
	pushq	%rbx
LCFI1202:
	subq	$96, %rsp
LCFI1203:
	movq	%rdi, -72(%rbp)
	movq	%rsi, -80(%rbp)
	movq	%rdx, -88(%rbp)
LBB118:
	.loc 19 247 0
	movq	-72(%rbp), %rax
	movq	8(%rax), %rdx
	movq	-72(%rbp), %rax
	movq	16(%rax), %rax
	cmpq	%rax, %rdx
	je	L1269
LBB119:
	.loc 19 249 0
	movq	-72(%rbp), %rax
	movq	8(%rax), %rax
	leaq	-8(%rax), %rdx
	movq	-72(%rbp), %rax
	movq	8(%rax), %rsi
	movq	-72(%rbp), %rax
	movq	%rax, %rdi
LEHB161:
	call	__ZN9__gnu_cxx13new_allocatorISsE9constructEPSsRKSs
	.loc 19 251 0
	movq	-72(%rbp), %rax
	movq	8(%rax), %rax
	leaq	8(%rax), %rdx
	movq	-72(%rbp), %rax
	movq	%rdx, 8(%rax)
	.loc 19 252 0
	movq	-88(%rbp), %rsi
	leaq	-32(%rbp), %rdi
	call	__ZNSsC1ERKSs
LEHE161:
	.loc 19 253 0
	movq	-72(%rbp), %rax
	movq	8(%rax), %rax
	leaq	-8(%rax), %rbx
	movq	-72(%rbp), %rax
	movq	8(%rax), %rax
	leaq	-16(%rax), %r12
	leaq	-80(%rbp), %rdi
	call	__ZNK9__gnu_cxx17__normal_iteratorIPSsSt6vectorISsSaISsEEE4baseEv
	movq	(%rax), %rdi
	movq	%rbx, %rdx
	movq	%r12, %rsi
LEHB162:
	call	__ZSt13copy_backwardIPSsS0_ET0_T_S2_S1_
	.loc 19 256 0
	leaq	-80(%rbp), %rdi
	call	__ZNK9__gnu_cxx17__normal_iteratorIPSsSt6vectorISsSaISsEEEdeEv
	movq	%rax, %rdi
	leaq	-32(%rbp), %rsi
	call	__ZNSsaSERKSs
LEHE162:
	leaq	-32(%rbp), %rdi
LEHB163:
	call	__ZNSsD1Ev
LEHE163:
	jmp	L1288
L1296:
	movq	%rax, -104(%rbp)
L1272:
	movq	-104(%rbp), %rbx
	leaq	-32(%rbp), %rdi
	call	__ZNSsD1Ev
	movq	%rbx, -104(%rbp)
	movq	-104(%rbp), %rdi
LEHB164:
	call	__Unwind_Resume
L1269:
LBE119:
LBB120:
	.loc 19 260 0
	movq	-72(%rbp), %rdi
	call	__ZNKSt6vectorISsSaISsEE4sizeEv
	movq	%rax, -40(%rbp)
	.loc 19 261 0
	movq	-72(%rbp), %rdi
	call	__ZNKSt6vectorISsSaISsEE8max_sizeEv
	cmpq	-40(%rbp), %rax
	sete	%al
	testb	%al, %al
	je	L1273
	.loc 19 262 0
	leaq	LC16(%rip), %rdi
	call	__ZSt20__throw_length_errorPKc
L1273:
	.loc 19 267 0
	cmpq	$0, -40(%rbp)
	je	L1275
	movq	-40(%rbp), %rax
	addq	%rax, %rax
	movq	%rax, -96(%rbp)
	jmp	L1277
L1275:
	movq	$1, -96(%rbp)
L1277:
	movq	-96(%rbp), %rax
	movq	%rax, -48(%rbp)
	.loc 19 268 0
	movq	-48(%rbp), %rax
	cmpq	-40(%rbp), %rax
	jae	L1278
	.loc 19 269 0
	movq	-72(%rbp), %rdi
	call	__ZNKSt6vectorISsSaISsEE8max_sizeEv
	movq	%rax, -48(%rbp)
L1278:
	.loc 19 271 0
	movq	-72(%rbp), %rdi
	movq	-48(%rbp), %rsi
	call	__ZNSt12_Vector_baseISsSaISsEE11_M_allocateEm
LEHE164:
	movq	%rax, -56(%rbp)
	.loc 19 272 0
	movq	-56(%rbp), %rax
	movq	%rax, -64(%rbp)
	.loc 19 275 0
	movq	-72(%rbp), %rdi
	call	__ZNSt12_Vector_baseISsSaISsEE19_M_get_Tp_allocatorEv
	movq	%rax, %rsi
	leaq	-17(%rbp), %rdi
	call	__ZNSaISsEC1ERKS_
	leaq	-80(%rbp), %rdi
	call	__ZNK9__gnu_cxx17__normal_iteratorIPSsSt6vectorISsSaISsEEE4baseEv
	movq	(%rax), %rsi
	movq	-72(%rbp), %rax
	movq	(%rax), %rdi
	leaq	-17(%rbp), %rcx
	movq	-56(%rbp), %rdx
LEHB165:
	call	__ZSt22__uninitialized_copy_aIPSsS0_SsET0_T_S2_S1_SaIT1_E
LEHE165:
	movq	%rax, -64(%rbp)
	leaq	-17(%rbp), %rdi
	call	__ZNSaISsED1Ev
	.loc 19 279 0
	movq	-72(%rbp), %rax
	movq	%rax, %rdi
	movq	-88(%rbp), %rdx
	movq	-64(%rbp), %rsi
LEHB166:
	call	__ZN9__gnu_cxx13new_allocatorISsE9constructEPSsRKSs
LEHE166:
	jmp	L1280
L1294:
	movq	%rax, -104(%rbp)
L1281:
	movq	-104(%rbp), %rbx
	.loc 19 275 0
	leaq	-17(%rbp), %rdi
	call	__ZNSaISsED1Ev
	movq	%rbx, -104(%rbp)
	jmp	L1284
L1280:
	.loc 19 280 0
	addq	$8, -64(%rbp)
	.loc 19 281 0
	movq	-72(%rbp), %rdi
	call	__ZNSt12_Vector_baseISsSaISsEE19_M_get_Tp_allocatorEv
	movq	%rax, %rsi
	leaq	-18(%rbp), %rdi
	call	__ZNSaISsEC1ERKS_
	movq	-72(%rbp), %rax
	movq	8(%rax), %rbx
	leaq	-80(%rbp), %rdi
	call	__ZNK9__gnu_cxx17__normal_iteratorIPSsSt6vectorISsSaISsEEE4baseEv
	movq	(%rax), %rdi
	leaq	-18(%rbp), %rcx
	movq	-64(%rbp), %rdx
	movq	%rbx, %rsi
LEHB167:
	call	__ZSt22__uninitialized_copy_aIPSsS0_SsET0_T_S2_S1_SaIT1_E
LEHE167:
	movq	%rax, -64(%rbp)
	leaq	-18(%rbp), %rdi
	call	__ZNSaISsED1Ev
	.loc 19 293 0
	movq	-72(%rbp), %rdi
	call	__ZNSt12_Vector_baseISsSaISsEE19_M_get_Tp_allocatorEv
	movq	%rax, %rsi
	leaq	-20(%rbp), %rdi
	call	__ZNSaISsEC1ERKS_
	movq	-72(%rbp), %rax
	movq	8(%rax), %rsi
	movq	-72(%rbp), %rax
	movq	(%rax), %rdi
	leaq	-20(%rbp), %rdx
LEHB168:
	call	__ZSt8_DestroyIPSsSsEvT_S1_SaIT0_E
LEHE168:
	jmp	L1282
L1293:
	movq	%rax, -104(%rbp)
L1283:
	movq	-104(%rbp), %rbx
	.loc 19 281 0
	leaq	-18(%rbp), %rdi
	call	__ZNSaISsED1Ev
	movq	%rbx, -104(%rbp)
	jmp	L1284
L1295:
	movq	%rax, -104(%rbp)
L1284:
	.loc 19 287 0
	movq	-104(%rbp), %rdi
	call	___cxa_begin_catch
	.loc 19 289 0
	movq	-72(%rbp), %rdi
	call	__ZNSt12_Vector_baseISsSaISsEE19_M_get_Tp_allocatorEv
	movq	%rax, %rsi
	leaq	-19(%rbp), %rdi
	call	__ZNSaISsEC1ERKS_
	leaq	-19(%rbp), %rdx
	movq	-64(%rbp), %rsi
	movq	-56(%rbp), %rdi
LEHB169:
	call	__ZSt8_DestroyIPSsSsEvT_S1_SaIT0_E
LEHE169:
	leaq	-19(%rbp), %rdi
	call	__ZNSaISsED1Ev
	.loc 19 290 0
	movq	-72(%rbp), %rdi
	movq	-48(%rbp), %rdx
	movq	-56(%rbp), %rsi
	call	__ZNSt12_Vector_baseISsSaISsEE13_M_deallocateEPSsm
LEHB170:
	.loc 19 291 0
	call	___cxa_rethrow
LEHE170:
L1291:
	movq	%rax, -104(%rbp)
L1285:
	movq	-104(%rbp), %rbx
	.loc 19 289 0
	leaq	-19(%rbp), %rdi
	call	__ZNSaISsED1Ev
	movq	%rbx, -104(%rbp)
	jmp	L1286
L1292:
	movq	%rax, -104(%rbp)
L1286:
	movq	-104(%rbp), %rbx
	.loc 19 287 0
	call	___cxa_end_catch
	movq	%rbx, -104(%rbp)
	movq	-104(%rbp), %rdi
LEHB171:
	call	__Unwind_Resume
L1282:
	.loc 19 293 0
	leaq	-20(%rbp), %rdi
	call	__ZNSaISsED1Ev
	.loc 19 295 0
	movq	-72(%rbp), %rax
	movq	16(%rax), %rax
	movq	%rax, %rdx
	movq	-72(%rbp), %rax
	movq	(%rax), %rax
	movq	%rdx, %rcx
	subq	%rax, %rcx
	movq	%rcx, %rax
	sarq	$3, %rax
	movq	%rax, %rdx
	movq	-72(%rbp), %rax
	movq	(%rax), %rsi
	movq	-72(%rbp), %rdi
	call	__ZNSt12_Vector_baseISsSaISsEE13_M_deallocateEPSsm
	.loc 19 298 0
	movq	-72(%rbp), %rdx
	movq	-56(%rbp), %rax
	movq	%rax, (%rdx)
	.loc 19 299 0
	movq	-72(%rbp), %rdx
	movq	-64(%rbp), %rax
	movq	%rax, 8(%rdx)
	.loc 19 300 0
	movq	-48(%rbp), %rax
	salq	$3, %rax
	movq	%rax, %rdx
	addq	-56(%rbp), %rdx
	movq	-72(%rbp), %rax
	movq	%rdx, 16(%rax)
	jmp	L1288
L1290:
	movq	%rax, -104(%rbp)
L1287:
	movq	-104(%rbp), %rbx
	.loc 19 293 0
	leaq	-20(%rbp), %rdi
	call	__ZNSaISsED1Ev
	movq	%rbx, -104(%rbp)
	movq	-104(%rbp), %rdi
	call	__Unwind_Resume
LEHE171:
L1288:
LBE120:
LBE118:
	.loc 19 300 0
	addq	$96, %rsp
	popq	%rbx
	popq	%r12
	leave
	ret
LFE2293:
	.section __TEXT,__gcc_except_tab
	.align 2
GCC_except_table44:
LLSDA2293:
	.byte	0xff
	.byte	0x9b
	.byte	0x9c,0x1
	.byte	0x3
	.byte	0x8f,0x1
	.set L$set$401,LEHB161-LFB2293
	.long L$set$401
	.set L$set$402,LEHE161-LEHB161
	.long L$set$402
	.long	0x0
	.byte	0x0
	.set L$set$403,LEHB162-LFB2293
	.long L$set$403
	.set L$set$404,LEHE162-LEHB162
	.long L$set$404
	.set L$set$405,L1296-LFB2293
	.long L$set$405
	.byte	0x0
	.set L$set$406,LEHB163-LFB2293
	.long L$set$406
	.set L$set$407,LEHE163-LEHB163
	.long L$set$407
	.long	0x0
	.byte	0x0
	.set L$set$408,LEHB164-LFB2293
	.long L$set$408
	.set L$set$409,LEHE164-LEHB164
	.long L$set$409
	.long	0x0
	.byte	0x0
	.set L$set$410,LEHB165-LFB2293
	.long L$set$410
	.set L$set$411,LEHE165-LEHB165
	.long L$set$411
	.set L$set$412,L1294-LFB2293
	.long L$set$412
	.byte	0x3
	.set L$set$413,LEHB166-LFB2293
	.long L$set$413
	.set L$set$414,LEHE166-LEHB166
	.long L$set$414
	.set L$set$415,L1295-LFB2293
	.long L$set$415
	.byte	0x1
	.set L$set$416,LEHB167-LFB2293
	.long L$set$416
	.set L$set$417,LEHE167-LEHB167
	.long L$set$417
	.set L$set$418,L1293-LFB2293
	.long L$set$418
	.byte	0x3
	.set L$set$419,LEHB168-LFB2293
	.long L$set$419
	.set L$set$420,LEHE168-LEHB168
	.long L$set$420
	.set L$set$421,L1290-LFB2293
	.long L$set$421
	.byte	0x0
	.set L$set$422,LEHB169-LFB2293
	.long L$set$422
	.set L$set$423,LEHE169-LEHB169
	.long L$set$423
	.set L$set$424,L1291-LFB2293
	.long L$set$424
	.byte	0x0
	.set L$set$425,LEHB170-LFB2293
	.long L$set$425
	.set L$set$426,LEHE170-LEHB170
	.long L$set$426
	.set L$set$427,L1292-LFB2293
	.long L$set$427
	.byte	0x0
	.set L$set$428,LEHB171-LFB2293
	.long L$set$428
	.set L$set$429,LEHE171-LEHB171
	.long L$set$429
	.long	0x0
	.byte	0x0
	.byte	0x1
	.byte	0x0
	.byte	0x0
	.byte	0x7d
	.align 2
	.long	0

	.section __TEXT,__textcoal_nt,coalesced,pure_instructions
	.align 1
.globl __ZNSt6vectorISsSaISsEE9push_backERKSs
	.weak_definition __ZNSt6vectorISsSaISsEE9push_backERKSs
	.private_extern __ZNSt6vectorISsSaISsEE9push_backERKSs
__ZNSt6vectorISsSaISsEE9push_backERKSs:
LFB2090:
	.loc 8 600 0
	nop
	nop
	nop
	nop
	nop
	nop
	pushq	%rbp
LCFI1204:
	movq	%rsp, %rbp
LCFI1205:
	subq	$16, %rsp
LCFI1206:
	movq	%rdi, -8(%rbp)
	movq	%rsi, -16(%rbp)
	.loc 8 602 0
	movq	-8(%rbp), %rax
	movq	8(%rax), %rdx
	movq	-8(%rbp), %rax
	movq	16(%rax), %rax
	cmpq	%rax, %rdx
	je	L1298
	.loc 8 604 0
	movq	-8(%rbp), %rax
	movq	8(%rax), %rsi
	movq	-8(%rbp), %rax
	movq	%rax, %rdi
	movq	-16(%rbp), %rdx
	call	__ZN9__gnu_cxx13new_allocatorISsE9constructEPSsRKSs
	.loc 8 605 0
	movq	-8(%rbp), %rax
	movq	8(%rax), %rax
	leaq	8(%rax), %rdx
	movq	-8(%rbp), %rax
	movq	%rdx, 8(%rax)
	jmp	L1301
L1298:
	.loc 8 608 0
	movq	-8(%rbp), %rdi
	call	__ZNSt6vectorISsSaISsEE3endEv
	movq	%rax, %rsi
	movq	-16(%rbp), %rdx
	movq	-8(%rbp), %rdi
	call	__ZNSt6vectorISsSaISsEE13_M_insert_auxEN9__gnu_cxx17__normal_iteratorIPSsS1_EERKSs
L1301:
	leave
	ret
LFE2090:
	.align 1
.globl __ZNSt6vectorIS_ISsSaISsEESaIS1_EE13_M_insert_auxEN9__gnu_cxx17__normal_iteratorIPS1_S3_EERKS1_
	.weak_definition __ZNSt6vectorIS_ISsSaISsEESaIS1_EE13_M_insert_auxEN9__gnu_cxx17__normal_iteratorIPS1_S3_EERKS1_
__ZNSt6vectorIS_ISsSaISsEESaIS1_EE13_M_insert_auxEN9__gnu_cxx17__normal_iteratorIPS1_S3_EERKS1_:
LFB2417:
	.loc 19 245 0
	nop
	nop
	nop
	nop
	nop
	nop
	pushq	%rbp
LCFI1207:
	movq	%rsp, %rbp
LCFI1208:
	pushq	%r12
LCFI1209:
	pushq	%rbx
LCFI1210:
	subq	$112, %rsp
LCFI1211:
	movq	%rdi, -88(%rbp)
	movq	%rsi, -96(%rbp)
	movq	%rdx, -104(%rbp)
LBB121:
	.loc 19 247 0
	movq	-88(%rbp), %rax
	movq	8(%rax), %rdx
	movq	-88(%rbp), %rax
	movq	16(%rax), %rax
	cmpq	%rax, %rdx
	je	L1303
LBB122:
	.loc 19 249 0
	movq	-88(%rbp), %rax
	movq	8(%rax), %rax
	leaq	-24(%rax), %rdx
	movq	-88(%rbp), %rax
	movq	8(%rax), %rsi
	movq	-88(%rbp), %rax
	movq	%rax, %rdi
LEHB172:
	call	__ZN9__gnu_cxx13new_allocatorISt6vectorISsSaISsEEE9constructEPS3_RKS3_
	.loc 19 251 0
	movq	-88(%rbp), %rax
	movq	8(%rax), %rax
	leaq	24(%rax), %rdx
	movq	-88(%rbp), %rax
	movq	%rdx, 8(%rax)
	.loc 19 252 0
	movq	-104(%rbp), %rsi
	leaq	-80(%rbp), %rdi
	call	__ZNSt6vectorISsSaISsEEC1ERKS1_
LEHE172:
	.loc 19 253 0
	movq	-88(%rbp), %rax
	movq	8(%rax), %rax
	leaq	-24(%rax), %rbx
	movq	-88(%rbp), %rax
	movq	8(%rax), %rax
	leaq	-48(%rax), %r12
	leaq	-96(%rbp), %rdi
	call	__ZNK9__gnu_cxx17__normal_iteratorIPSt6vectorISsSaISsEES1_IS3_SaIS3_EEE4baseEv
	movq	(%rax), %rdi
	movq	%rbx, %rdx
	movq	%r12, %rsi
LEHB173:
	call	__ZSt13copy_backwardIPSt6vectorISsSaISsEES3_ET0_T_S5_S4_
	.loc 19 256 0
	leaq	-96(%rbp), %rdi
	call	__ZNK9__gnu_cxx17__normal_iteratorIPSt6vectorISsSaISsEES1_IS3_SaIS3_EEEdeEv
	movq	%rax, %rdi
	leaq	-80(%rbp), %rsi
	call	__ZNSt6vectorISsSaISsEEaSERKS1_
LEHE173:
	leaq	-80(%rbp), %rdi
LEHB174:
	call	__ZNSt6vectorISsSaISsEED1Ev
LEHE174:
	jmp	L1322
L1330:
	movq	%rax, -120(%rbp)
L1306:
	movq	-120(%rbp), %rbx
	leaq	-80(%rbp), %rdi
	call	__ZNSt6vectorISsSaISsEED1Ev
	movq	%rbx, -120(%rbp)
	movq	-120(%rbp), %rdi
LEHB175:
	call	__Unwind_Resume
L1303:
LBE122:
LBB123:
	.loc 19 260 0
	movq	-88(%rbp), %rdi
	call	__ZNKSt6vectorIS_ISsSaISsEESaIS1_EE4sizeEv
	movq	%rax, -32(%rbp)
	.loc 19 261 0
	movq	-88(%rbp), %rdi
	call	__ZNKSt6vectorIS_ISsSaISsEESaIS1_EE8max_sizeEv
	cmpq	-32(%rbp), %rax
	sete	%al
	testb	%al, %al
	je	L1307
	.loc 19 262 0
	leaq	LC16(%rip), %rdi
	call	__ZSt20__throw_length_errorPKc
L1307:
	.loc 19 267 0
	cmpq	$0, -32(%rbp)
	je	L1309
	movq	-32(%rbp), %rax
	addq	%rax, %rax
	movq	%rax, -112(%rbp)
	jmp	L1311
L1309:
	movq	$1, -112(%rbp)
L1311:
	movq	-112(%rbp), %rax
	movq	%rax, -40(%rbp)
	.loc 19 268 0
	movq	-40(%rbp), %rax
	cmpq	-32(%rbp), %rax
	jae	L1312
	.loc 19 269 0
	movq	-88(%rbp), %rdi
	call	__ZNKSt6vectorIS_ISsSaISsEESaIS1_EE8max_sizeEv
	movq	%rax, -40(%rbp)
L1312:
	.loc 19 271 0
	movq	-88(%rbp), %rdi
	movq	-40(%rbp), %rsi
	call	__ZNSt12_Vector_baseISt6vectorISsSaISsEESaIS2_EE11_M_allocateEm
LEHE175:
	movq	%rax, -48(%rbp)
	.loc 19 272 0
	movq	-48(%rbp), %rax
	movq	%rax, -56(%rbp)
	.loc 19 275 0
	movq	-88(%rbp), %rdi
	call	__ZNSt12_Vector_baseISt6vectorISsSaISsEESaIS2_EE19_M_get_Tp_allocatorEv
	movq	%rax, %rsi
	leaq	-17(%rbp), %rdi
	call	__ZNSaISt6vectorISsSaISsEEEC1ERKS2_
	leaq	-96(%rbp), %rdi
	call	__ZNK9__gnu_cxx17__normal_iteratorIPSt6vectorISsSaISsEES1_IS3_SaIS3_EEE4baseEv
	movq	(%rax), %rsi
	movq	-88(%rbp), %rax
	movq	(%rax), %rdi
	leaq	-17(%rbp), %rcx
	movq	-48(%rbp), %rdx
LEHB176:
	call	__ZSt22__uninitialized_copy_aIPSt6vectorISsSaISsEES3_S2_ET0_T_S5_S4_SaIT1_E
LEHE176:
	movq	%rax, -56(%rbp)
	leaq	-17(%rbp), %rdi
	call	__ZNSaISt6vectorISsSaISsEEED1Ev
	.loc 19 279 0
	movq	-88(%rbp), %rax
	movq	%rax, %rdi
	movq	-104(%rbp), %rdx
	movq	-56(%rbp), %rsi
LEHB177:
	call	__ZN9__gnu_cxx13new_allocatorISt6vectorISsSaISsEEE9constructEPS3_RKS3_
LEHE177:
	jmp	L1314
L1328:
	movq	%rax, -120(%rbp)
L1315:
	movq	-120(%rbp), %rbx
	.loc 19 275 0
	leaq	-17(%rbp), %rdi
	call	__ZNSaISt6vectorISsSaISsEEED1Ev
	movq	%rbx, -120(%rbp)
	jmp	L1318
L1314:
	.loc 19 280 0
	addq	$24, -56(%rbp)
	.loc 19 281 0
	movq	-88(%rbp), %rdi
	call	__ZNSt12_Vector_baseISt6vectorISsSaISsEESaIS2_EE19_M_get_Tp_allocatorEv
	movq	%rax, %rsi
	leaq	-18(%rbp), %rdi
	call	__ZNSaISt6vectorISsSaISsEEEC1ERKS2_
	movq	-88(%rbp), %rax
	movq	8(%rax), %rbx
	leaq	-96(%rbp), %rdi
	call	__ZNK9__gnu_cxx17__normal_iteratorIPSt6vectorISsSaISsEES1_IS3_SaIS3_EEE4baseEv
	movq	(%rax), %rdi
	leaq	-18(%rbp), %rcx
	movq	-56(%rbp), %rdx
	movq	%rbx, %rsi
LEHB178:
	call	__ZSt22__uninitialized_copy_aIPSt6vectorISsSaISsEES3_S2_ET0_T_S5_S4_SaIT1_E
LEHE178:
	movq	%rax, -56(%rbp)
	leaq	-18(%rbp), %rdi
	call	__ZNSaISt6vectorISsSaISsEEED1Ev
	.loc 19 293 0
	movq	-88(%rbp), %rdi
	call	__ZNSt12_Vector_baseISt6vectorISsSaISsEESaIS2_EE19_M_get_Tp_allocatorEv
	movq	%rax, %rsi
	leaq	-20(%rbp), %rdi
	call	__ZNSaISt6vectorISsSaISsEEEC1ERKS2_
	movq	-88(%rbp), %rax
	movq	8(%rax), %rsi
	movq	-88(%rbp), %rax
	movq	(%rax), %rdi
	leaq	-20(%rbp), %rdx
LEHB179:
	call	__ZSt8_DestroyIPSt6vectorISsSaISsEES2_EvT_S4_SaIT0_E
LEHE179:
	jmp	L1316
L1327:
	movq	%rax, -120(%rbp)
L1317:
	movq	-120(%rbp), %rbx
	.loc 19 281 0
	leaq	-18(%rbp), %rdi
	call	__ZNSaISt6vectorISsSaISsEEED1Ev
	movq	%rbx, -120(%rbp)
	jmp	L1318
L1329:
	movq	%rax, -120(%rbp)
L1318:
	.loc 19 287 0
	movq	-120(%rbp), %rdi
	call	___cxa_begin_catch
	.loc 19 289 0
	movq	-88(%rbp), %rdi
	call	__ZNSt12_Vector_baseISt6vectorISsSaISsEESaIS2_EE19_M_get_Tp_allocatorEv
	movq	%rax, %rsi
	leaq	-19(%rbp), %rdi
	call	__ZNSaISt6vectorISsSaISsEEEC1ERKS2_
	leaq	-19(%rbp), %rdx
	movq	-56(%rbp), %rsi
	movq	-48(%rbp), %rdi
LEHB180:
	call	__ZSt8_DestroyIPSt6vectorISsSaISsEES2_EvT_S4_SaIT0_E
LEHE180:
	leaq	-19(%rbp), %rdi
	call	__ZNSaISt6vectorISsSaISsEEED1Ev
	.loc 19 290 0
	movq	-88(%rbp), %rdi
	movq	-40(%rbp), %rdx
	movq	-48(%rbp), %rsi
	call	__ZNSt12_Vector_baseISt6vectorISsSaISsEESaIS2_EE13_M_deallocateEPS2_m
LEHB181:
	.loc 19 291 0
	call	___cxa_rethrow
LEHE181:
L1325:
	movq	%rax, -120(%rbp)
L1319:
	movq	-120(%rbp), %rbx
	.loc 19 289 0
	leaq	-19(%rbp), %rdi
	call	__ZNSaISt6vectorISsSaISsEEED1Ev
	movq	%rbx, -120(%rbp)
	jmp	L1320
L1326:
	movq	%rax, -120(%rbp)
L1320:
	movq	-120(%rbp), %rbx
	.loc 19 287 0
	call	___cxa_end_catch
	movq	%rbx, -120(%rbp)
	movq	-120(%rbp), %rdi
LEHB182:
	call	__Unwind_Resume
L1316:
	.loc 19 293 0
	leaq	-20(%rbp), %rdi
	call	__ZNSaISt6vectorISsSaISsEEED1Ev
	.loc 19 295 0
	movq	-88(%rbp), %rax
	movq	16(%rax), %rax
	movq	%rax, %rdx
	movq	-88(%rbp), %rax
	movq	(%rax), %rax
	movq	%rdx, %rcx
	subq	%rax, %rcx
	movq	%rcx, %rax
	movq	%rax, %rdx
	sarq	$3, %rdx
	movabsq	$-6148914691236517205, %rax
	imulq	%rdx, %rax
	movq	%rax, %rdx
	movq	-88(%rbp), %rax
	movq	(%rax), %rsi
	movq	-88(%rbp), %rdi
	call	__ZNSt12_Vector_baseISt6vectorISsSaISsEESaIS2_EE13_M_deallocateEPS2_m
	.loc 19 298 0
	movq	-88(%rbp), %rdx
	movq	-48(%rbp), %rax
	movq	%rax, (%rdx)
	.loc 19 299 0
	movq	-88(%rbp), %rdx
	movq	-56(%rbp), %rax
	movq	%rax, 8(%rdx)
	.loc 19 300 0
	movq	-40(%rbp), %rdx
	movq	%rdx, %rax
	addq	%rax, %rax
	addq	%rdx, %rax
	salq	$3, %rax
	movq	%rax, %rdx
	addq	-48(%rbp), %rdx
	movq	-88(%rbp), %rax
	movq	%rdx, 16(%rax)
	jmp	L1322
L1324:
	movq	%rax, -120(%rbp)
L1321:
	movq	-120(%rbp), %rbx
	.loc 19 293 0
	leaq	-20(%rbp), %rdi
	call	__ZNSaISt6vectorISsSaISsEEED1Ev
	movq	%rbx, -120(%rbp)
	movq	-120(%rbp), %rdi
	call	__Unwind_Resume
LEHE182:
L1322:
LBE123:
LBE121:
	.loc 19 300 0
	addq	$112, %rsp
	popq	%rbx
	popq	%r12
	leave
	ret
LFE2417:
	.section __TEXT,__gcc_except_tab
	.align 2
GCC_except_table45:
LLSDA2417:
	.byte	0xff
	.byte	0x9b
	.byte	0x9c,0x1
	.byte	0x3
	.byte	0x8f,0x1
	.set L$set$430,LEHB172-LFB2417
	.long L$set$430
	.set L$set$431,LEHE172-LEHB172
	.long L$set$431
	.long	0x0
	.byte	0x0
	.set L$set$432,LEHB173-LFB2417
	.long L$set$432
	.set L$set$433,LEHE173-LEHB173
	.long L$set$433
	.set L$set$434,L1330-LFB2417
	.long L$set$434
	.byte	0x0
	.set L$set$435,LEHB174-LFB2417
	.long L$set$435
	.set L$set$436,LEHE174-LEHB174
	.long L$set$436
	.long	0x0
	.byte	0x0
	.set L$set$437,LEHB175-LFB2417
	.long L$set$437
	.set L$set$438,LEHE175-LEHB175
	.long L$set$438
	.long	0x0
	.byte	0x0
	.set L$set$439,LEHB176-LFB2417
	.long L$set$439
	.set L$set$440,LEHE176-LEHB176
	.long L$set$440
	.set L$set$441,L1328-LFB2417
	.long L$set$441
	.byte	0x3
	.set L$set$442,LEHB177-LFB2417
	.long L$set$442
	.set L$set$443,LEHE177-LEHB177
	.long L$set$443
	.set L$set$444,L1329-LFB2417
	.long L$set$444
	.byte	0x1
	.set L$set$445,LEHB178-LFB2417
	.long L$set$445
	.set L$set$446,LEHE178-LEHB178
	.long L$set$446
	.set L$set$447,L1327-LFB2417
	.long L$set$447
	.byte	0x3
	.set L$set$448,LEHB179-LFB2417
	.long L$set$448
	.set L$set$449,LEHE179-LEHB179
	.long L$set$449
	.set L$set$450,L1324-LFB2417
	.long L$set$450
	.byte	0x0
	.set L$set$451,LEHB180-LFB2417
	.long L$set$451
	.set L$set$452,LEHE180-LEHB180
	.long L$set$452
	.set L$set$453,L1325-LFB2417
	.long L$set$453
	.byte	0x0
	.set L$set$454,LEHB181-LFB2417
	.long L$set$454
	.set L$set$455,LEHE181-LEHB181
	.long L$set$455
	.set L$set$456,L1326-LFB2417
	.long L$set$456
	.byte	0x0
	.set L$set$457,LEHB182-LFB2417
	.long L$set$457
	.set L$set$458,LEHE182-LEHB182
	.long L$set$458
	.long	0x0
	.byte	0x0
	.byte	0x1
	.byte	0x0
	.byte	0x0
	.byte	0x7d
	.align 2
	.long	0

	.section __TEXT,__textcoal_nt,coalesced,pure_instructions
	.align 1
.globl __ZNSt6vectorIS_ISsSaISsEESaIS1_EE9push_backERKS1_
	.weak_definition __ZNSt6vectorIS_ISsSaISsEESaIS1_EE9push_backERKS1_
	.private_extern __ZNSt6vectorIS_ISsSaISsEESaIS1_EE9push_backERKS1_
__ZNSt6vectorIS_ISsSaISsEESaIS1_EE9push_backERKS1_:
LFB2182:
	.loc 8 600 0
	nop
	nop
	nop
	nop
	nop
	nop
	pushq	%rbp
LCFI1212:
	movq	%rsp, %rbp
LCFI1213:
	subq	$16, %rsp
LCFI1214:
	movq	%rdi, -8(%rbp)
	movq	%rsi, -16(%rbp)
	.loc 8 602 0
	movq	-8(%rbp), %rax
	movq	8(%rax), %rdx
	movq	-8(%rbp), %rax
	movq	16(%rax), %rax
	cmpq	%rax, %rdx
	je	L1332
	.loc 8 604 0
	movq	-8(%rbp), %rax
	movq	8(%rax), %rsi
	movq	-8(%rbp), %rax
	movq	%rax, %rdi
	movq	-16(%rbp), %rdx
	call	__ZN9__gnu_cxx13new_allocatorISt6vectorISsSaISsEEE9constructEPS3_RKS3_
	.loc 8 605 0
	movq	-8(%rbp), %rax
	movq	8(%rax), %rax
	leaq	24(%rax), %rdx
	movq	-8(%rbp), %rax
	movq	%rdx, 8(%rax)
	jmp	L1335
L1332:
	.loc 8 608 0
	movq	-8(%rbp), %rdi
	call	__ZNSt6vectorIS_ISsSaISsEESaIS1_EE3endEv
	movq	%rax, %rsi
	movq	-16(%rbp), %rdx
	movq	-8(%rbp), %rdi
	call	__ZNSt6vectorIS_ISsSaISsEESaIS1_EE13_M_insert_auxEN9__gnu_cxx17__normal_iteratorIPS1_S3_EERKS1_
L1335:
	leave
	ret
LFE2182:
	.align 1
.globl __ZNSt17_Rb_tree_iteratorISt4pairIKSsiEEmmEv
	.weak_definition __ZNSt17_Rb_tree_iteratorISt4pairIKSsiEEmmEv
	.private_extern __ZNSt17_Rb_tree_iteratorISt4pairIKSsiEEmmEv
__ZNSt17_Rb_tree_iteratorISt4pairIKSsiEEmmEv:
LFB2655:
	.loc 3 198 0
	nop
	nop
	nop
	nop
	nop
	nop
	pushq	%rbp
LCFI1215:
	movq	%rsp, %rbp
LCFI1216:
	subq	$16, %rsp
LCFI1217:
	movq	%rdi, -8(%rbp)
	.loc 3 200 0
	movq	-8(%rbp), %rax
	movq	(%rax), %rdi
	call	__ZSt18_Rb_tree_decrementPSt18_Rb_tree_node_base
	movq	%rax, %rdx
	movq	-8(%rbp), %rax
	movq	%rdx, (%rax)
	.loc 3 201 0
	movq	-8(%rbp), %rax
	leave
	ret
LFE2655:
	.align 1
.globl __ZNSt17_Rb_tree_iteratorISt4pairIKSs5TableEEmmEv
	.weak_definition __ZNSt17_Rb_tree_iteratorISt4pairIKSs5TableEEmmEv
	.private_extern __ZNSt17_Rb_tree_iteratorISt4pairIKSs5TableEEmmEv
__ZNSt17_Rb_tree_iteratorISt4pairIKSs5TableEEmmEv:
LFB2627:
	.loc 3 198 0
	nop
	nop
	nop
	nop
	nop
	nop
	pushq	%rbp
LCFI1218:
	movq	%rsp, %rbp
LCFI1219:
	subq	$16, %rsp
LCFI1220:
	movq	%rdi, -8(%rbp)
	.loc 3 200 0
	movq	-8(%rbp), %rax
	movq	(%rax), %rdi
	call	__ZSt18_Rb_tree_decrementPSt18_Rb_tree_node_base
	movq	%rax, %rdx
	movq	-8(%rbp), %rax
	movq	%rdx, (%rax)
	.loc 3 201 0
	movq	-8(%rbp), %rax
	leave
	ret
LFE2627:
	.align 1
.globl __ZNSt17_Rb_tree_iteratorISt4pairIKiSsEEmmEv
	.weak_definition __ZNSt17_Rb_tree_iteratorISt4pairIKiSsEEmmEv
	.private_extern __ZNSt17_Rb_tree_iteratorISt4pairIKiSsEEmmEv
__ZNSt17_Rb_tree_iteratorISt4pairIKiSsEEmmEv:
LFB2665:
	.loc 3 198 0
	nop
	nop
	nop
	nop
	nop
	nop
	pushq	%rbp
LCFI1221:
	movq	%rsp, %rbp
LCFI1222:
	subq	$16, %rsp
LCFI1223:
	movq	%rdi, -8(%rbp)
	.loc 3 200 0
	movq	-8(%rbp), %rax
	movq	(%rax), %rdi
	call	__ZSt18_Rb_tree_decrementPSt18_Rb_tree_node_base
	movq	%rax, %rdx
	movq	-8(%rbp), %rax
	movq	%rdx, (%rax)
	.loc 3 201 0
	movq	-8(%rbp), %rax
	leave
	ret
LFE2665:
	.align 1
.globl __ZNSt8_Rb_treeISsSt4pairIKSsiESt10_Select1stIS2_ESt4lessISsESaIS2_EE9_M_insertEPSt18_Rb_tree_node_baseSA_RKS2_
	.weak_definition __ZNSt8_Rb_treeISsSt4pairIKSsiESt10_Select1stIS2_ESt4lessISsESaIS2_EE9_M_insertEPSt18_Rb_tree_node_baseSA_RKS2_
__ZNSt8_Rb_treeISsSt4pairIKSsiESt10_Select1stIS2_ESt4lessISsESaIS2_EE9_M_insertEPSt18_Rb_tree_node_baseSA_RKS2_:
LFB2653:
	.loc 3 834 0
	nop
	nop
	nop
	nop
	nop
	nop
	pushq	%rbp
LCFI1224:
	movq	%rsp, %rbp
LCFI1225:
	pushq	%rbx
LCFI1226:
	subq	$88, %rsp
LCFI1227:
	movq	%rdi, -56(%rbp)
	movq	%rsi, -64(%rbp)
	movq	%rdx, -72(%rbp)
	movq	%rcx, -80(%rbp)
LBB124:
	.loc 3 838 0
	cmpq	$0, -64(%rbp)
	jne	L1343
	movq	-56(%rbp), %rdi
	call	__ZNSt8_Rb_treeISsSt4pairIKSsiESt10_Select1stIS2_ESt4lessISsESaIS2_EE6_M_endEv
	cmpq	-72(%rbp), %rax
	je	L1343
	movq	-72(%rbp), %rdi
	call	__ZNSt8_Rb_treeISsSt4pairIKSsiESt10_Select1stIS2_ESt4lessISsESaIS2_EE6_S_keyEPKSt18_Rb_tree_node_base
	movq	%rax, %rbx
	leaq	-18(%rbp), %rdi
	call	__ZNSt10_Select1stISt4pairIKSsiEEC1Ev
	movq	-80(%rbp), %rsi
	leaq	-18(%rbp), %rdi
	call	__ZNKSt10_Select1stISt4pairIKSsiEEclERKS2_
	movq	%rax, %rsi
	movq	-56(%rbp), %rdi
	movq	%rbx, %rdx
	call	__ZNKSt4lessISsEclERKSsS2_
	testb	%al, %al
	je	L1346
L1343:
	movb	$1, -81(%rbp)
	jmp	L1347
L1346:
	movb	$0, -81(%rbp)
L1347:
	movzbl	-81(%rbp), %eax
	movb	%al, -17(%rbp)
	.loc 3 840 0
	movq	-80(%rbp), %rsi
	movq	-56(%rbp), %rdi
	call	__ZNSt8_Rb_treeISsSt4pairIKSsiESt10_Select1stIS2_ESt4lessISsESaIS2_EE14_M_create_nodeERKS2_
	movq	%rax, -32(%rbp)
	.loc 3 842 0
	movq	-56(%rbp), %rcx
	addq	$8, %rcx
	movq	-32(%rbp), %rsi
	movzbl	-17(%rbp), %edi
	movq	-72(%rbp), %rdx
	call	__ZSt29_Rb_tree_insert_and_rebalancebPSt18_Rb_tree_node_baseS0_RS_
	.loc 3 844 0
	movq	-56(%rbp), %rax
	movq	40(%rax), %rax
	leaq	1(%rax), %rdx
	movq	-56(%rbp), %rax
	movq	%rdx, 40(%rax)
	.loc 3 845 0
	movq	-32(%rbp), %rsi
	leaq	-48(%rbp), %rdi
	call	__ZNSt17_Rb_tree_iteratorISt4pairIKSsiEEC1EPSt13_Rb_tree_nodeIS2_E
	movq	-48(%rbp), %rax
LBE124:
	addq	$88, %rsp
	popq	%rbx
	leave
	ret
LFE2653:
	.align 1
.globl __ZNSt8_Rb_treeISsSt4pairIKSsiESt10_Select1stIS2_ESt4lessISsESaIS2_EE16_M_insert_uniqueERKS2_
	.weak_definition __ZNSt8_Rb_treeISsSt4pairIKSsiESt10_Select1stIS2_ESt4lessISsESaIS2_EE16_M_insert_uniqueERKS2_
__ZNSt8_Rb_treeISsSt4pairIKSsiESt10_Select1stIS2_ESt4lessISsESaIS2_EE16_M_insert_uniqueERKS2_:
LFB2654:
	.loc 3 974 0
	nop
	nop
	nop
	nop
	nop
	nop
	pushq	%rbp
LCFI1228:
	movq	%rsp, %rbp
LCFI1229:
	pushq	%rbx
LCFI1230:
	subq	$200, %rsp
LCFI1231:
	movq	%rdi, -168(%rbp)
	movq	%rsi, -176(%rbp)
LBB125:
	.loc 3 976 0
	movq	-168(%rbp), %rdi
	call	__ZNSt8_Rb_treeISsSt4pairIKSsiESt10_Select1stIS2_ESt4lessISsESaIS2_EE8_M_beginEv
	movq	%rax, -32(%rbp)
	.loc 3 977 0
	movq	-168(%rbp), %rdi
	call	__ZNSt8_Rb_treeISsSt4pairIKSsiESt10_Select1stIS2_ESt4lessISsESaIS2_EE6_M_endEv
	movq	%rax, -40(%rbp)
	.loc 3 978 0
	movb	$1, -17(%rbp)
	.loc 3 979 0
	jmp	L1350
L1351:
	.loc 3 981 0
	movq	-32(%rbp), %rax
	movq	%rax, -40(%rbp)
	.loc 3 982 0
	movq	-32(%rbp), %rdi
	call	__ZNSt8_Rb_treeISsSt4pairIKSsiESt10_Select1stIS2_ESt4lessISsESaIS2_EE6_S_keyEPKSt13_Rb_tree_nodeIS2_E
	movq	%rax, %rbx
	leaq	-18(%rbp), %rdi
	call	__ZNSt10_Select1stISt4pairIKSsiEEC1Ev
	movq	-176(%rbp), %rsi
	leaq	-18(%rbp), %rdi
	call	__ZNKSt10_Select1stISt4pairIKSsiEEclERKS2_
	movq	%rax, %rsi
	movq	-168(%rbp), %rdi
	movq	%rbx, %rdx
	call	__ZNKSt4lessISsEclERKSsS2_
	movb	%al, -17(%rbp)
	.loc 3 983 0
	cmpb	$0, -17(%rbp)
	je	L1352
	movq	-32(%rbp), %rdi
	call	__ZNSt8_Rb_treeISsSt4pairIKSsiESt10_Select1stIS2_ESt4lessISsESaIS2_EE7_S_leftEPSt18_Rb_tree_node_base
	movq	%rax, -200(%rbp)
	jmp	L1354
L1352:
	movq	-32(%rbp), %rdi
	call	__ZNSt8_Rb_treeISsSt4pairIKSsiESt10_Select1stIS2_ESt4lessISsESaIS2_EE8_S_rightEPSt18_Rb_tree_node_base
	movq	%rax, -200(%rbp)
L1354:
	movq	-200(%rbp), %rax
	movq	%rax, -32(%rbp)
L1350:
	.loc 3 979 0
	cmpq	$0, -32(%rbp)
	jne	L1351
	.loc 3 985 0
	movq	-40(%rbp), %rsi
	leaq	-48(%rbp), %rdi
	call	__ZNSt17_Rb_tree_iteratorISt4pairIKSsiEEC1EPSt13_Rb_tree_nodeIS2_E
	.loc 3 986 0
	cmpb	$0, -17(%rbp)
	je	L1356
	.loc 3 987 0
	movq	-168(%rbp), %rdi
	call	__ZNSt8_Rb_treeISsSt4pairIKSsiESt10_Select1stIS2_ESt4lessISsESaIS2_EE5beginEv
	movq	%rax, -64(%rbp)
	leaq	-64(%rbp), %rsi
	leaq	-48(%rbp), %rdi
	call	__ZNKSt17_Rb_tree_iteratorISt4pairIKSsiEEeqERKS3_
	testb	%al, %al
	je	L1358
	.loc 3 988 0
	movb	$1, -19(%rbp)
	movq	-40(%rbp), %rdx
	movq	-32(%rbp), %rsi
	movq	-176(%rbp), %rcx
	movq	-168(%rbp), %rdi
	call	__ZNSt8_Rb_treeISsSt4pairIKSsiESt10_Select1stIS2_ESt4lessISsESaIS2_EE9_M_insertEPSt18_Rb_tree_node_baseSA_RKS2_
	movq	%rax, -80(%rbp)
	leaq	-19(%rbp), %rdx
	leaq	-80(%rbp), %rsi
	leaq	-112(%rbp), %rdi
	call	__ZNSt4pairISt17_Rb_tree_iteratorIS_IKSsiEEbEC1ERKS3_RKb
	movq	-112(%rbp), %rax
	movq	%rax, -160(%rbp)
	movzbl	-104(%rbp), %eax
	movb	%al, -152(%rbp)
	jmp	L1360
L1358:
	.loc 3 990 0
	leaq	-48(%rbp), %rdi
	call	__ZNSt17_Rb_tree_iteratorISt4pairIKSsiEEmmEv
L1356:
	.loc 3 991 0
	leaq	-20(%rbp), %rdi
	call	__ZNSt10_Select1stISt4pairIKSsiEEC1Ev
	movq	-176(%rbp), %rsi
	leaq	-20(%rbp), %rdi
	call	__ZNKSt10_Select1stISt4pairIKSsiEEclERKS2_
	movq	%rax, %rbx
	movq	-48(%rbp), %rdi
	call	__ZNSt8_Rb_treeISsSt4pairIKSsiESt10_Select1stIS2_ESt4lessISsESaIS2_EE6_S_keyEPKSt18_Rb_tree_node_base
	movq	%rax, %rsi
	movq	-168(%rbp), %rdi
	movq	%rbx, %rdx
	call	__ZNKSt4lessISsEclERKSsS2_
	testb	%al, %al
	je	L1361
	.loc 3 992 0
	movb	$1, -21(%rbp)
	movq	-40(%rbp), %rdx
	movq	-32(%rbp), %rsi
	movq	-176(%rbp), %rcx
	movq	-168(%rbp), %rdi
	call	__ZNSt8_Rb_treeISsSt4pairIKSsiESt10_Select1stIS2_ESt4lessISsESaIS2_EE9_M_insertEPSt18_Rb_tree_node_baseSA_RKS2_
	movq	%rax, -96(%rbp)
	leaq	-21(%rbp), %rdx
	leaq	-96(%rbp), %rsi
	leaq	-128(%rbp), %rdi
	call	__ZNSt4pairISt17_Rb_tree_iteratorIS_IKSsiEEbEC1ERKS3_RKb
	movq	-128(%rbp), %rax
	movq	%rax, -160(%rbp)
	movzbl	-120(%rbp), %eax
	movb	%al, -152(%rbp)
	jmp	L1360
L1361:
	.loc 3 993 0
	movb	$0, -22(%rbp)
	leaq	-22(%rbp), %rdx
	leaq	-48(%rbp), %rsi
	leaq	-144(%rbp), %rdi
	call	__ZNSt4pairISt17_Rb_tree_iteratorIS_IKSsiEEbEC1ERKS3_RKb
	movq	-144(%rbp), %rax
	movq	%rax, -160(%rbp)
	movzbl	-136(%rbp), %eax
	movb	%al, -152(%rbp)
L1360:
	movq	-160(%rbp), %rax
	movq	-152(%rbp), %rdx
LBE125:
	addq	$200, %rsp
	popq	%rbx
	leave
	ret
LFE2654:
	.align 1
.globl __ZNSt8_Rb_treeISsSt4pairIKSsiESt10_Select1stIS2_ESt4lessISsESaIS2_EE16_M_insert_uniqueESt17_Rb_tree_iteratorIS2_ERKS2_
	.weak_definition __ZNSt8_Rb_treeISsSt4pairIKSsiESt10_Select1stIS2_ESt4lessISsESaIS2_EE16_M_insert_uniqueESt17_Rb_tree_iteratorIS2_ERKS2_
__ZNSt8_Rb_treeISsSt4pairIKSsiESt10_Select1stIS2_ESt4lessISsESaIS2_EE16_M_insert_uniqueESt17_Rb_tree_iteratorIS2_ERKS2_:
LFB2531:
	.loc 3 1000 0
	nop
	nop
	nop
	nop
	nop
	nop
	pushq	%rbp
LCFI1232:
	movq	%rsp, %rbp
LCFI1233:
	pushq	%rbx
LCFI1234:
	subq	$136, %rsp
LCFI1235:
	movq	%rdi, -88(%rbp)
	movq	%rsi, -96(%rbp)
	movq	%rdx, -104(%rbp)
LBB126:
	.loc 3 1003 0
	movq	-96(%rbp), %rbx
	movq	-88(%rbp), %rdi
	call	__ZNSt8_Rb_treeISsSt4pairIKSsiESt10_Select1stIS2_ESt4lessISsESaIS2_EE6_M_endEv
	cmpq	%rax, %rbx
	sete	%al
	testb	%al, %al
	je	L1365
	.loc 3 1005 0
	movq	-88(%rbp), %rdi
	call	__ZNKSt8_Rb_treeISsSt4pairIKSsiESt10_Select1stIS2_ESt4lessISsESaIS2_EE4sizeEv
	testq	%rax, %rax
	je	L1367
	leaq	-17(%rbp), %rdi
	call	__ZNSt10_Select1stISt4pairIKSsiEEC1Ev
	movq	-104(%rbp), %rsi
	leaq	-17(%rbp), %rdi
	call	__ZNKSt10_Select1stISt4pairIKSsiEEclERKS2_
	movq	%rax, %rbx
	movq	-88(%rbp), %rdi
	call	__ZNSt8_Rb_treeISsSt4pairIKSsiESt10_Select1stIS2_ESt4lessISsESaIS2_EE12_M_rightmostEv
	movq	(%rax), %rdi
	call	__ZNSt8_Rb_treeISsSt4pairIKSsiESt10_Select1stIS2_ESt4lessISsESaIS2_EE6_S_keyEPKSt18_Rb_tree_node_base
	movq	%rax, %rsi
	movq	-88(%rbp), %rdi
	movq	%rbx, %rdx
	call	__ZNKSt4lessISsEclERKSsS2_
	xorl	$1, %eax
	testb	%al, %al
	jne	L1367
	movb	$1, -137(%rbp)
	jmp	L1370
L1367:
	movb	$0, -137(%rbp)
L1370:
	movzbl	-137(%rbp), %eax
	testb	%al, %al
	je	L1371
	.loc 3 1008 0
	movq	-88(%rbp), %rdi
	call	__ZNSt8_Rb_treeISsSt4pairIKSsiESt10_Select1stIS2_ESt4lessISsESaIS2_EE12_M_rightmostEv
	movq	(%rax), %rdx
	movq	-104(%rbp), %rcx
	movq	-88(%rbp), %rdi
	movl	$0, %esi
	call	__ZNSt8_Rb_treeISsSt4pairIKSsiESt10_Select1stIS2_ESt4lessISsESaIS2_EE9_M_insertEPSt18_Rb_tree_node_baseSA_RKS2_
	movq	%rax, -136(%rbp)
	jmp	L1373
L1371:
	.loc 3 1010 0
	movq	-104(%rbp), %rsi
	movq	-88(%rbp), %rdi
	call	__ZNSt8_Rb_treeISsSt4pairIKSsiESt10_Select1stIS2_ESt4lessISsESaIS2_EE16_M_insert_uniqueERKS2_
	movq	%rax, -128(%rbp)
	movq	%rdx, -120(%rbp)
	movq	-128(%rbp), %rax
	movq	%rax, -48(%rbp)
	movzbl	-120(%rbp), %eax
	movb	%al, -40(%rbp)
	movq	-48(%rbp), %rax
	movq	%rax, -136(%rbp)
	jmp	L1373
L1365:
	.loc 3 1012 0
	movq	-96(%rbp), %rdi
	call	__ZNSt8_Rb_treeISsSt4pairIKSsiESt10_Select1stIS2_ESt4lessISsESaIS2_EE6_S_keyEPKSt18_Rb_tree_node_base
	movq	%rax, %rbx
	leaq	-18(%rbp), %rdi
	call	__ZNSt10_Select1stISt4pairIKSsiEEC1Ev
	movq	-104(%rbp), %rsi
	leaq	-18(%rbp), %rdi
	call	__ZNKSt10_Select1stISt4pairIKSsiEEclERKS2_
	movq	%rax, %rsi
	movq	-88(%rbp), %rdi
	movq	%rbx, %rdx
	call	__ZNKSt4lessISsEclERKSsS2_
	testb	%al, %al
	je	L1374
LBB127:
	.loc 3 1016 0
	movq	-96(%rbp), %rax
	movq	%rax, -32(%rbp)
	.loc 3 1017 0
	movq	-96(%rbp), %rbx
	movq	-88(%rbp), %rdi
	call	__ZNSt8_Rb_treeISsSt4pairIKSsiESt10_Select1stIS2_ESt4lessISsESaIS2_EE11_M_leftmostEv
	movq	(%rax), %rax
	cmpq	%rax, %rbx
	sete	%al
	testb	%al, %al
	je	L1376
	.loc 3 1018 0
	movq	-88(%rbp), %rdi
	call	__ZNSt8_Rb_treeISsSt4pairIKSsiESt10_Select1stIS2_ESt4lessISsESaIS2_EE11_M_leftmostEv
	movq	(%rax), %rbx
	movq	-88(%rbp), %rdi
	call	__ZNSt8_Rb_treeISsSt4pairIKSsiESt10_Select1stIS2_ESt4lessISsESaIS2_EE11_M_leftmostEv
	movq	(%rax), %rsi
	movq	-104(%rbp), %rcx
	movq	-88(%rbp), %rdi
	movq	%rbx, %rdx
	call	__ZNSt8_Rb_treeISsSt4pairIKSsiESt10_Select1stIS2_ESt4lessISsESaIS2_EE9_M_insertEPSt18_Rb_tree_node_baseSA_RKS2_
	movq	%rax, -136(%rbp)
	jmp	L1373
L1376:
	.loc 3 1019 0
	leaq	-19(%rbp), %rdi
	call	__ZNSt10_Select1stISt4pairIKSsiEEC1Ev
	movq	-104(%rbp), %rsi
	leaq	-19(%rbp), %rdi
	call	__ZNKSt10_Select1stISt4pairIKSsiEEclERKS2_
	movq	%rax, %rbx
	leaq	-32(%rbp), %rdi
	call	__ZNSt17_Rb_tree_iteratorISt4pairIKSsiEEmmEv
	movq	(%rax), %rdi
	call	__ZNSt8_Rb_treeISsSt4pairIKSsiESt10_Select1stIS2_ESt4lessISsESaIS2_EE6_S_keyEPKSt18_Rb_tree_node_base
	movq	%rax, %rsi
	movq	-88(%rbp), %rdi
	movq	%rbx, %rdx
	call	__ZNKSt4lessISsEclERKSsS2_
	testb	%al, %al
	je	L1378
	.loc 3 1022 0
	movq	-32(%rbp), %rdi
	call	__ZNSt8_Rb_treeISsSt4pairIKSsiESt10_Select1stIS2_ESt4lessISsESaIS2_EE8_S_rightEPSt18_Rb_tree_node_base
	testq	%rax, %rax
	sete	%al
	testb	%al, %al
	je	L1380
	.loc 3 1023 0
	movq	-32(%rbp), %rdx
	movq	-104(%rbp), %rcx
	movq	-88(%rbp), %rdi
	movl	$0, %esi
	call	__ZNSt8_Rb_treeISsSt4pairIKSsiESt10_Select1stIS2_ESt4lessISsESaIS2_EE9_M_insertEPSt18_Rb_tree_node_baseSA_RKS2_
	movq	%rax, -136(%rbp)
	jmp	L1373
L1380:
	.loc 3 1026 0
	movq	-96(%rbp), %rdx
	movq	-96(%rbp), %rsi
	movq	-104(%rbp), %rcx
	movq	-88(%rbp), %rdi
	call	__ZNSt8_Rb_treeISsSt4pairIKSsiESt10_Select1stIS2_ESt4lessISsESaIS2_EE9_M_insertEPSt18_Rb_tree_node_baseSA_RKS2_
	movq	%rax, -136(%rbp)
	jmp	L1373
L1378:
	.loc 3 1029 0
	movq	-104(%rbp), %rsi
	movq	-88(%rbp), %rdi
	call	__ZNSt8_Rb_treeISsSt4pairIKSsiESt10_Select1stIS2_ESt4lessISsESaIS2_EE16_M_insert_uniqueERKS2_
	movq	%rax, -128(%rbp)
	movq	%rdx, -120(%rbp)
	movq	-128(%rbp), %rax
	movq	%rax, -64(%rbp)
	movzbl	-120(%rbp), %eax
	movb	%al, -56(%rbp)
	movq	-64(%rbp), %rax
	movq	%rax, -136(%rbp)
	jmp	L1373
L1374:
LBE127:
	.loc 3 1031 0
	leaq	-20(%rbp), %rdi
	call	__ZNSt10_Select1stISt4pairIKSsiEEC1Ev
	movq	-104(%rbp), %rsi
	leaq	-20(%rbp), %rdi
	call	__ZNKSt10_Select1stISt4pairIKSsiEEclERKS2_
	movq	%rax, %rbx
	movq	-96(%rbp), %rdi
	call	__ZNSt8_Rb_treeISsSt4pairIKSsiESt10_Select1stIS2_ESt4lessISsESaIS2_EE6_S_keyEPKSt18_Rb_tree_node_base
	movq	%rax, %rsi
	movq	-88(%rbp), %rdi
	movq	%rbx, %rdx
	call	__ZNKSt4lessISsEclERKSsS2_
	testb	%al, %al
	je	L1382
LBB128:
	.loc 3 1035 0
	movq	-96(%rbp), %rax
	movq	%rax, -32(%rbp)
	.loc 3 1036 0
	movq	-96(%rbp), %rbx
	movq	-88(%rbp), %rdi
	call	__ZNSt8_Rb_treeISsSt4pairIKSsiESt10_Select1stIS2_ESt4lessISsESaIS2_EE12_M_rightmostEv
	movq	(%rax), %rax
	cmpq	%rax, %rbx
	sete	%al
	testb	%al, %al
	je	L1384
	.loc 3 1037 0
	movq	-88(%rbp), %rdi
	call	__ZNSt8_Rb_treeISsSt4pairIKSsiESt10_Select1stIS2_ESt4lessISsESaIS2_EE12_M_rightmostEv
	movq	(%rax), %rdx
	movq	-104(%rbp), %rcx
	movq	-88(%rbp), %rdi
	movl	$0, %esi
	call	__ZNSt8_Rb_treeISsSt4pairIKSsiESt10_Select1stIS2_ESt4lessISsESaIS2_EE9_M_insertEPSt18_Rb_tree_node_baseSA_RKS2_
	movq	%rax, -136(%rbp)
	jmp	L1373
L1384:
	.loc 3 1038 0
	leaq	-32(%rbp), %rdi
	call	__ZNSt17_Rb_tree_iteratorISt4pairIKSsiEEppEv
	movq	(%rax), %rdi
	call	__ZNSt8_Rb_treeISsSt4pairIKSsiESt10_Select1stIS2_ESt4lessISsESaIS2_EE6_S_keyEPKSt18_Rb_tree_node_base
	movq	%rax, %rbx
	leaq	-21(%rbp), %rdi
	call	__ZNSt10_Select1stISt4pairIKSsiEEC1Ev
	movq	-104(%rbp), %rsi
	leaq	-21(%rbp), %rdi
	call	__ZNKSt10_Select1stISt4pairIKSsiEEclERKS2_
	movq	%rax, %rsi
	movq	-88(%rbp), %rdi
	movq	%rbx, %rdx
	call	__ZNKSt4lessISsEclERKSsS2_
	testb	%al, %al
	je	L1386
	.loc 3 1041 0
	movq	-96(%rbp), %rdi
	call	__ZNSt8_Rb_treeISsSt4pairIKSsiESt10_Select1stIS2_ESt4lessISsESaIS2_EE8_S_rightEPSt18_Rb_tree_node_base
	testq	%rax, %rax
	sete	%al
	testb	%al, %al
	je	L1388
	.loc 3 1042 0
	movq	-96(%rbp), %rdx
	movq	-104(%rbp), %rcx
	movq	-88(%rbp), %rdi
	movl	$0, %esi
	call	__ZNSt8_Rb_treeISsSt4pairIKSsiESt10_Select1stIS2_ESt4lessISsESaIS2_EE9_M_insertEPSt18_Rb_tree_node_baseSA_RKS2_
	movq	%rax, -136(%rbp)
	jmp	L1373
L1388:
	.loc 3 1044 0
	movq	-32(%rbp), %rdx
	movq	-32(%rbp), %rsi
	movq	-104(%rbp), %rcx
	movq	-88(%rbp), %rdi
	call	__ZNSt8_Rb_treeISsSt4pairIKSsiESt10_Select1stIS2_ESt4lessISsESaIS2_EE9_M_insertEPSt18_Rb_tree_node_baseSA_RKS2_
	movq	%rax, -136(%rbp)
	jmp	L1373
L1386:
	.loc 3 1047 0
	movq	-104(%rbp), %rsi
	movq	-88(%rbp), %rdi
	call	__ZNSt8_Rb_treeISsSt4pairIKSsiESt10_Select1stIS2_ESt4lessISsESaIS2_EE16_M_insert_uniqueERKS2_
	movq	%rax, -128(%rbp)
	movq	%rdx, -120(%rbp)
	movq	-128(%rbp), %rax
	movq	%rax, -80(%rbp)
	movzbl	-120(%rbp), %eax
	movb	%al, -72(%rbp)
	movq	-80(%rbp), %rax
	movq	%rax, -136(%rbp)
	jmp	L1373
L1382:
LBE128:
	.loc 3 1050 0
	movq	-96(%rbp), %rax
	movq	%rax, -136(%rbp)
L1373:
	movq	-136(%rbp), %rax
LBE126:
	addq	$136, %rsp
	popq	%rbx
	leave
	ret
LFE2531:
	.align 1
.globl __ZNSt3mapISsiSt4lessISsESaISt4pairIKSsiEEE6insertESt17_Rb_tree_iteratorIS4_ERKS4_
	.weak_definition __ZNSt3mapISsiSt4lessISsESaISt4pairIKSsiEEE6insertESt17_Rb_tree_iteratorIS4_ERKS4_
	.private_extern __ZNSt3mapISsiSt4lessISsESaISt4pairIKSsiEEE6insertESt17_Rb_tree_iteratorIS4_ERKS4_
__ZNSt3mapISsiSt4lessISsESaISt4pairIKSsiEEE6insertESt17_Rb_tree_iteratorIS4_ERKS4_:
LFB2339:
	.loc 13 426 0
	nop
	nop
	nop
	nop
	nop
	nop
	pushq	%rbp
LCFI1236:
	movq	%rsp, %rbp
LCFI1237:
	subq	$32, %rsp
LCFI1238:
	movq	%rdi, -8(%rbp)
	movq	%rsi, -16(%rbp)
	movq	%rdx, -24(%rbp)
	.loc 13 427 0
	movq	-8(%rbp), %rdi
	movq	-24(%rbp), %rdx
	movq	-16(%rbp), %rsi
	call	__ZNSt8_Rb_treeISsSt4pairIKSsiESt10_Select1stIS2_ESt4lessISsESaIS2_EE16_M_insert_uniqueESt17_Rb_tree_iteratorIS2_ERKS2_
	leave
	ret
LFE2339:
	.align 1
.globl __ZNSt3mapISsiSt4lessISsESaISt4pairIKSsiEEEixERS3_
	.weak_definition __ZNSt3mapISsiSt4lessISsESaISt4pairIKSsiEEEixERS3_
	.private_extern __ZNSt3mapISsiSt4lessISsESaISt4pairIKSsiEEEixERS3_
__ZNSt3mapISsiSt4lessISsESaISt4pairIKSsiEEEixERS3_:
LFB2118:
	.loc 13 342 0
	nop
	nop
	nop
	nop
	nop
	nop
	pushq	%rbp
LCFI1239:
	movq	%rsp, %rbp
LCFI1240:
	pushq	%rbx
LCFI1241:
	subq	$88, %rsp
LCFI1242:
	movq	%rdi, -72(%rbp)
	movq	%rsi, -80(%rbp)
LBB129:
	.loc 13 347 0
	movq	-80(%rbp), %rsi
	movq	-72(%rbp), %rdi
LEHB183:
	call	__ZNSt3mapISsiSt4lessISsESaISt4pairIKSsiEEE11lower_boundERS3_
	movq	%rax, -32(%rbp)
	.loc 13 349 0
	movq	-72(%rbp), %rdi
	call	__ZNSt3mapISsiSt4lessISsESaISt4pairIKSsiEEE3endEv
	movq	%rax, -48(%rbp)
	leaq	-48(%rbp), %rsi
	leaq	-32(%rbp), %rdi
	call	__ZNKSt17_Rb_tree_iteratorISt4pairIKSsiEEeqERKS3_
	testb	%al, %al
	jne	L1394
	leaq	-32(%rbp), %rdi
	call	__ZNKSt17_Rb_tree_iteratorISt4pairIKSsiEEdeEv
	movq	%rax, %rbx
	movq	-72(%rbp), %rdi
	call	__ZNKSt3mapISsiSt4lessISsESaISt4pairIKSsiEEE8key_compEv
	movq	-80(%rbp), %rsi
	leaq	-17(%rbp), %rdi
	movq	%rbx, %rdx
	call	__ZNKSt4lessISsEclERKSsS2_
	testb	%al, %al
	je	L1396
L1394:
	movb	$1, -81(%rbp)
	jmp	L1397
L1396:
	movb	$0, -81(%rbp)
L1397:
	movzbl	-81(%rbp), %eax
	testb	%al, %al
	je	L1398
	.loc 13 350 0
	movl	$0, -24(%rbp)
	leaq	-24(%rbp), %rdx
	movq	-80(%rbp), %rsi
	leaq	-64(%rbp), %rdi
	call	__ZNSt4pairIKSsiEC1ERS0_RKi
LEHE183:
	leaq	-64(%rbp), %rdx
	movq	-32(%rbp), %rsi
	movq	-72(%rbp), %rdi
LEHB184:
	call	__ZNSt3mapISsiSt4lessISsESaISt4pairIKSsiEEE6insertESt17_Rb_tree_iteratorIS4_ERKS4_
LEHE184:
	movq	%rax, -32(%rbp)
	leaq	-64(%rbp), %rdi
LEHB185:
	call	__ZNSt4pairIKSsiED1Ev
LEHE185:
	jmp	L1398
L1402:
	movq	%rax, -96(%rbp)
L1400:
	movq	-96(%rbp), %rbx
	leaq	-64(%rbp), %rdi
	call	__ZNSt4pairIKSsiED1Ev
	movq	%rbx, -96(%rbp)
	movq	-96(%rbp), %rdi
LEHB186:
	call	__Unwind_Resume
LEHE186:
L1398:
	.loc 13 351 0
	leaq	-32(%rbp), %rdi
	call	__ZNKSt17_Rb_tree_iteratorISt4pairIKSsiEEdeEv
	addq	$8, %rax
LBE129:
	addq	$88, %rsp
	popq	%rbx
	leave
	ret
LFE2118:
	.section __TEXT,__gcc_except_tab
GCC_except_table46:
LLSDA2118:
	.byte	0xff
	.byte	0xff
	.byte	0x3
	.byte	0x34
	.set L$set$459,LEHB183-LFB2118
	.long L$set$459
	.set L$set$460,LEHE183-LEHB183
	.long L$set$460
	.long	0x0
	.byte	0x0
	.set L$set$461,LEHB184-LFB2118
	.long L$set$461
	.set L$set$462,LEHE184-LEHB184
	.long L$set$462
	.set L$set$463,L1402-LFB2118
	.long L$set$463
	.byte	0x0
	.set L$set$464,LEHB185-LFB2118
	.long L$set$464
	.set L$set$465,LEHE185-LEHB185
	.long L$set$465
	.long	0x0
	.byte	0x0
	.set L$set$466,LEHB186-LFB2118
	.long L$set$466
	.set L$set$467,LEHE186-LEHB186
	.long L$set$467
	.long	0x0
	.byte	0x0
	.section __TEXT,__textcoal_nt,coalesced,pure_instructions
	.align 1
.globl __ZNSt8_Rb_treeISsSt4pairIKSs5TableESt10_Select1stIS3_ESt4lessISsESaIS3_EE9_M_insertEPSt18_Rb_tree_node_baseSB_RKS3_
	.weak_definition __ZNSt8_Rb_treeISsSt4pairIKSs5TableESt10_Select1stIS3_ESt4lessISsESaIS3_EE9_M_insertEPSt18_Rb_tree_node_baseSB_RKS3_
__ZNSt8_Rb_treeISsSt4pairIKSs5TableESt10_Select1stIS3_ESt4lessISsESaIS3_EE9_M_insertEPSt18_Rb_tree_node_baseSB_RKS3_:
LFB2624:
	.loc 3 834 0
	nop
	nop
	nop
	nop
	nop
	nop
	pushq	%rbp
LCFI1243:
	movq	%rsp, %rbp
LCFI1244:
	pushq	%rbx
LCFI1245:
	subq	$88, %rsp
LCFI1246:
	movq	%rdi, -56(%rbp)
	movq	%rsi, -64(%rbp)
	movq	%rdx, -72(%rbp)
	movq	%rcx, -80(%rbp)
LBB130:
	.loc 3 838 0
	cmpq	$0, -64(%rbp)
	jne	L1404
	movq	-56(%rbp), %rdi
	call	__ZNSt8_Rb_treeISsSt4pairIKSs5TableESt10_Select1stIS3_ESt4lessISsESaIS3_EE6_M_endEv
	cmpq	-72(%rbp), %rax
	je	L1404
	movq	-72(%rbp), %rdi
	call	__ZNSt8_Rb_treeISsSt4pairIKSs5TableESt10_Select1stIS3_ESt4lessISsESaIS3_EE6_S_keyEPKSt18_Rb_tree_node_base
	movq	%rax, %rbx
	leaq	-18(%rbp), %rdi
	call	__ZNSt10_Select1stISt4pairIKSs5TableEEC1Ev
	movq	-80(%rbp), %rsi
	leaq	-18(%rbp), %rdi
	call	__ZNKSt10_Select1stISt4pairIKSs5TableEEclERKS3_
	movq	%rax, %rsi
	movq	-56(%rbp), %rdi
	movq	%rbx, %rdx
	call	__ZNKSt4lessISsEclERKSsS2_
	testb	%al, %al
	je	L1407
L1404:
	movb	$1, -81(%rbp)
	jmp	L1408
L1407:
	movb	$0, -81(%rbp)
L1408:
	movzbl	-81(%rbp), %eax
	movb	%al, -17(%rbp)
	.loc 3 840 0
	movq	-80(%rbp), %rsi
	movq	-56(%rbp), %rdi
	call	__ZNSt8_Rb_treeISsSt4pairIKSs5TableESt10_Select1stIS3_ESt4lessISsESaIS3_EE14_M_create_nodeERKS3_
	movq	%rax, -32(%rbp)
	.loc 3 842 0
	movq	-56(%rbp), %rcx
	addq	$8, %rcx
	movq	-32(%rbp), %rsi
	movzbl	-17(%rbp), %edi
	movq	-72(%rbp), %rdx
	call	__ZSt29_Rb_tree_insert_and_rebalancebPSt18_Rb_tree_node_baseS0_RS_
	.loc 3 844 0
	movq	-56(%rbp), %rax
	movq	40(%rax), %rax
	leaq	1(%rax), %rdx
	movq	-56(%rbp), %rax
	movq	%rdx, 40(%rax)
	.loc 3 845 0
	movq	-32(%rbp), %rsi
	leaq	-48(%rbp), %rdi
	call	__ZNSt17_Rb_tree_iteratorISt4pairIKSs5TableEEC1EPSt13_Rb_tree_nodeIS3_E
	movq	-48(%rbp), %rax
LBE130:
	addq	$88, %rsp
	popq	%rbx
	leave
	ret
LFE2624:
	.align 1
.globl __ZNSt8_Rb_treeISsSt4pairIKSs5TableESt10_Select1stIS3_ESt4lessISsESaIS3_EE16_M_insert_uniqueERKS3_
	.weak_definition __ZNSt8_Rb_treeISsSt4pairIKSs5TableESt10_Select1stIS3_ESt4lessISsESaIS3_EE16_M_insert_uniqueERKS3_
__ZNSt8_Rb_treeISsSt4pairIKSs5TableESt10_Select1stIS3_ESt4lessISsESaIS3_EE16_M_insert_uniqueERKS3_:
LFB2625:
	.loc 3 974 0
	nop
	nop
	nop
	nop
	nop
	nop
	pushq	%rbp
LCFI1247:
	movq	%rsp, %rbp
LCFI1248:
	pushq	%rbx
LCFI1249:
	subq	$200, %rsp
LCFI1250:
	movq	%rdi, -168(%rbp)
	movq	%rsi, -176(%rbp)
LBB131:
	.loc 3 976 0
	movq	-168(%rbp), %rdi
	call	__ZNSt8_Rb_treeISsSt4pairIKSs5TableESt10_Select1stIS3_ESt4lessISsESaIS3_EE8_M_beginEv
	movq	%rax, -32(%rbp)
	.loc 3 977 0
	movq	-168(%rbp), %rdi
	call	__ZNSt8_Rb_treeISsSt4pairIKSs5TableESt10_Select1stIS3_ESt4lessISsESaIS3_EE6_M_endEv
	movq	%rax, -40(%rbp)
	.loc 3 978 0
	movb	$1, -17(%rbp)
	.loc 3 979 0
	jmp	L1411
L1412:
	.loc 3 981 0
	movq	-32(%rbp), %rax
	movq	%rax, -40(%rbp)
	.loc 3 982 0
	movq	-32(%rbp), %rdi
	call	__ZNSt8_Rb_treeISsSt4pairIKSs5TableESt10_Select1stIS3_ESt4lessISsESaIS3_EE6_S_keyEPKSt13_Rb_tree_nodeIS3_E
	movq	%rax, %rbx
	leaq	-18(%rbp), %rdi
	call	__ZNSt10_Select1stISt4pairIKSs5TableEEC1Ev
	movq	-176(%rbp), %rsi
	leaq	-18(%rbp), %rdi
	call	__ZNKSt10_Select1stISt4pairIKSs5TableEEclERKS3_
	movq	%rax, %rsi
	movq	-168(%rbp), %rdi
	movq	%rbx, %rdx
	call	__ZNKSt4lessISsEclERKSsS2_
	movb	%al, -17(%rbp)
	.loc 3 983 0
	cmpb	$0, -17(%rbp)
	je	L1413
	movq	-32(%rbp), %rdi
	call	__ZNSt8_Rb_treeISsSt4pairIKSs5TableESt10_Select1stIS3_ESt4lessISsESaIS3_EE7_S_leftEPSt18_Rb_tree_node_base
	movq	%rax, -200(%rbp)
	jmp	L1415
L1413:
	movq	-32(%rbp), %rdi
	call	__ZNSt8_Rb_treeISsSt4pairIKSs5TableESt10_Select1stIS3_ESt4lessISsESaIS3_EE8_S_rightEPSt18_Rb_tree_node_base
	movq	%rax, -200(%rbp)
L1415:
	movq	-200(%rbp), %rax
	movq	%rax, -32(%rbp)
L1411:
	.loc 3 979 0
	cmpq	$0, -32(%rbp)
	jne	L1412
	.loc 3 985 0
	movq	-40(%rbp), %rsi
	leaq	-48(%rbp), %rdi
	call	__ZNSt17_Rb_tree_iteratorISt4pairIKSs5TableEEC1EPSt13_Rb_tree_nodeIS3_E
	.loc 3 986 0
	cmpb	$0, -17(%rbp)
	je	L1417
	.loc 3 987 0
	movq	-168(%rbp), %rdi
	call	__ZNSt8_Rb_treeISsSt4pairIKSs5TableESt10_Select1stIS3_ESt4lessISsESaIS3_EE5beginEv
	movq	%rax, -64(%rbp)
	leaq	-64(%rbp), %rsi
	leaq	-48(%rbp), %rdi
	call	__ZNKSt17_Rb_tree_iteratorISt4pairIKSs5TableEEeqERKS4_
	testb	%al, %al
	je	L1419
	.loc 3 988 0
	movb	$1, -19(%rbp)
	movq	-40(%rbp), %rdx
	movq	-32(%rbp), %rsi
	movq	-176(%rbp), %rcx
	movq	-168(%rbp), %rdi
	call	__ZNSt8_Rb_treeISsSt4pairIKSs5TableESt10_Select1stIS3_ESt4lessISsESaIS3_EE9_M_insertEPSt18_Rb_tree_node_baseSB_RKS3_
	movq	%rax, -80(%rbp)
	leaq	-19(%rbp), %rdx
	leaq	-80(%rbp), %rsi
	leaq	-112(%rbp), %rdi
	call	__ZNSt4pairISt17_Rb_tree_iteratorIS_IKSs5TableEEbEC1ERKS4_RKb
	movq	-112(%rbp), %rax
	movq	%rax, -160(%rbp)
	movzbl	-104(%rbp), %eax
	movb	%al, -152(%rbp)
	jmp	L1421
L1419:
	.loc 3 990 0
	leaq	-48(%rbp), %rdi
	call	__ZNSt17_Rb_tree_iteratorISt4pairIKSs5TableEEmmEv
L1417:
	.loc 3 991 0
	leaq	-20(%rbp), %rdi
	call	__ZNSt10_Select1stISt4pairIKSs5TableEEC1Ev
	movq	-176(%rbp), %rsi
	leaq	-20(%rbp), %rdi
	call	__ZNKSt10_Select1stISt4pairIKSs5TableEEclERKS3_
	movq	%rax, %rbx
	movq	-48(%rbp), %rdi
	call	__ZNSt8_Rb_treeISsSt4pairIKSs5TableESt10_Select1stIS3_ESt4lessISsESaIS3_EE6_S_keyEPKSt18_Rb_tree_node_base
	movq	%rax, %rsi
	movq	-168(%rbp), %rdi
	movq	%rbx, %rdx
	call	__ZNKSt4lessISsEclERKSsS2_
	testb	%al, %al
	je	L1422
	.loc 3 992 0
	movb	$1, -21(%rbp)
	movq	-40(%rbp), %rdx
	movq	-32(%rbp), %rsi
	movq	-176(%rbp), %rcx
	movq	-168(%rbp), %rdi
	call	__ZNSt8_Rb_treeISsSt4pairIKSs5TableESt10_Select1stIS3_ESt4lessISsESaIS3_EE9_M_insertEPSt18_Rb_tree_node_baseSB_RKS3_
	movq	%rax, -96(%rbp)
	leaq	-21(%rbp), %rdx
	leaq	-96(%rbp), %rsi
	leaq	-128(%rbp), %rdi
	call	__ZNSt4pairISt17_Rb_tree_iteratorIS_IKSs5TableEEbEC1ERKS4_RKb
	movq	-128(%rbp), %rax
	movq	%rax, -160(%rbp)
	movzbl	-120(%rbp), %eax
	movb	%al, -152(%rbp)
	jmp	L1421
L1422:
	.loc 3 993 0
	movb	$0, -22(%rbp)
	leaq	-22(%rbp), %rdx
	leaq	-48(%rbp), %rsi
	leaq	-144(%rbp), %rdi
	call	__ZNSt4pairISt17_Rb_tree_iteratorIS_IKSs5TableEEbEC1ERKS4_RKb
	movq	-144(%rbp), %rax
	movq	%rax, -160(%rbp)
	movzbl	-136(%rbp), %eax
	movb	%al, -152(%rbp)
L1421:
	movq	-160(%rbp), %rax
	movq	-152(%rbp), %rdx
LBE131:
	addq	$200, %rsp
	popq	%rbx
	leave
	ret
LFE2625:
	.align 1
.globl __ZNSt8_Rb_treeISsSt4pairIKSs5TableESt10_Select1stIS3_ESt4lessISsESaIS3_EE16_M_insert_uniqueESt17_Rb_tree_iteratorIS3_ERKS3_
	.weak_definition __ZNSt8_Rb_treeISsSt4pairIKSs5TableESt10_Select1stIS3_ESt4lessISsESaIS3_EE16_M_insert_uniqueESt17_Rb_tree_iteratorIS3_ERKS3_
__ZNSt8_Rb_treeISsSt4pairIKSs5TableESt10_Select1stIS3_ESt4lessISsESaIS3_EE16_M_insert_uniqueESt17_Rb_tree_iteratorIS3_ERKS3_:
LFB2484:
	.loc 3 1000 0
	nop
	nop
	nop
	nop
	nop
	nop
	pushq	%rbp
LCFI1251:
	movq	%rsp, %rbp
LCFI1252:
	pushq	%rbx
LCFI1253:
	subq	$136, %rsp
LCFI1254:
	movq	%rdi, -88(%rbp)
	movq	%rsi, -96(%rbp)
	movq	%rdx, -104(%rbp)
LBB132:
	.loc 3 1003 0
	movq	-96(%rbp), %rbx
	movq	-88(%rbp), %rdi
	call	__ZNSt8_Rb_treeISsSt4pairIKSs5TableESt10_Select1stIS3_ESt4lessISsESaIS3_EE6_M_endEv
	cmpq	%rax, %rbx
	sete	%al
	testb	%al, %al
	je	L1426
	.loc 3 1005 0
	movq	-88(%rbp), %rdi
	call	__ZNKSt8_Rb_treeISsSt4pairIKSs5TableESt10_Select1stIS3_ESt4lessISsESaIS3_EE4sizeEv
	testq	%rax, %rax
	je	L1428
	leaq	-17(%rbp), %rdi
	call	__ZNSt10_Select1stISt4pairIKSs5TableEEC1Ev
	movq	-104(%rbp), %rsi
	leaq	-17(%rbp), %rdi
	call	__ZNKSt10_Select1stISt4pairIKSs5TableEEclERKS3_
	movq	%rax, %rbx
	movq	-88(%rbp), %rdi
	call	__ZNSt8_Rb_treeISsSt4pairIKSs5TableESt10_Select1stIS3_ESt4lessISsESaIS3_EE12_M_rightmostEv
	movq	(%rax), %rdi
	call	__ZNSt8_Rb_treeISsSt4pairIKSs5TableESt10_Select1stIS3_ESt4lessISsESaIS3_EE6_S_keyEPKSt18_Rb_tree_node_base
	movq	%rax, %rsi
	movq	-88(%rbp), %rdi
	movq	%rbx, %rdx
	call	__ZNKSt4lessISsEclERKSsS2_
	xorl	$1, %eax
	testb	%al, %al
	jne	L1428
	movb	$1, -137(%rbp)
	jmp	L1431
L1428:
	movb	$0, -137(%rbp)
L1431:
	movzbl	-137(%rbp), %eax
	testb	%al, %al
	je	L1432
	.loc 3 1008 0
	movq	-88(%rbp), %rdi
	call	__ZNSt8_Rb_treeISsSt4pairIKSs5TableESt10_Select1stIS3_ESt4lessISsESaIS3_EE12_M_rightmostEv
	movq	(%rax), %rdx
	movq	-104(%rbp), %rcx
	movq	-88(%rbp), %rdi
	movl	$0, %esi
	call	__ZNSt8_Rb_treeISsSt4pairIKSs5TableESt10_Select1stIS3_ESt4lessISsESaIS3_EE9_M_insertEPSt18_Rb_tree_node_baseSB_RKS3_
	movq	%rax, -136(%rbp)
	jmp	L1434
L1432:
	.loc 3 1010 0
	movq	-104(%rbp), %rsi
	movq	-88(%rbp), %rdi
	call	__ZNSt8_Rb_treeISsSt4pairIKSs5TableESt10_Select1stIS3_ESt4lessISsESaIS3_EE16_M_insert_uniqueERKS3_
	movq	%rax, -128(%rbp)
	movq	%rdx, -120(%rbp)
	movq	-128(%rbp), %rax
	movq	%rax, -48(%rbp)
	movzbl	-120(%rbp), %eax
	movb	%al, -40(%rbp)
	movq	-48(%rbp), %rax
	movq	%rax, -136(%rbp)
	jmp	L1434
L1426:
	.loc 3 1012 0
	movq	-96(%rbp), %rdi
	call	__ZNSt8_Rb_treeISsSt4pairIKSs5TableESt10_Select1stIS3_ESt4lessISsESaIS3_EE6_S_keyEPKSt18_Rb_tree_node_base
	movq	%rax, %rbx
	leaq	-18(%rbp), %rdi
	call	__ZNSt10_Select1stISt4pairIKSs5TableEEC1Ev
	movq	-104(%rbp), %rsi
	leaq	-18(%rbp), %rdi
	call	__ZNKSt10_Select1stISt4pairIKSs5TableEEclERKS3_
	movq	%rax, %rsi
	movq	-88(%rbp), %rdi
	movq	%rbx, %rdx
	call	__ZNKSt4lessISsEclERKSsS2_
	testb	%al, %al
	je	L1435
LBB133:
	.loc 3 1016 0
	movq	-96(%rbp), %rax
	movq	%rax, -32(%rbp)
	.loc 3 1017 0
	movq	-96(%rbp), %rbx
	movq	-88(%rbp), %rdi
	call	__ZNSt8_Rb_treeISsSt4pairIKSs5TableESt10_Select1stIS3_ESt4lessISsESaIS3_EE11_M_leftmostEv
	movq	(%rax), %rax
	cmpq	%rax, %rbx
	sete	%al
	testb	%al, %al
	je	L1437
	.loc 3 1018 0
	movq	-88(%rbp), %rdi
	call	__ZNSt8_Rb_treeISsSt4pairIKSs5TableESt10_Select1stIS3_ESt4lessISsESaIS3_EE11_M_leftmostEv
	movq	(%rax), %rbx
	movq	-88(%rbp), %rdi
	call	__ZNSt8_Rb_treeISsSt4pairIKSs5TableESt10_Select1stIS3_ESt4lessISsESaIS3_EE11_M_leftmostEv
	movq	(%rax), %rsi
	movq	-104(%rbp), %rcx
	movq	-88(%rbp), %rdi
	movq	%rbx, %rdx
	call	__ZNSt8_Rb_treeISsSt4pairIKSs5TableESt10_Select1stIS3_ESt4lessISsESaIS3_EE9_M_insertEPSt18_Rb_tree_node_baseSB_RKS3_
	movq	%rax, -136(%rbp)
	jmp	L1434
L1437:
	.loc 3 1019 0
	leaq	-19(%rbp), %rdi
	call	__ZNSt10_Select1stISt4pairIKSs5TableEEC1Ev
	movq	-104(%rbp), %rsi
	leaq	-19(%rbp), %rdi
	call	__ZNKSt10_Select1stISt4pairIKSs5TableEEclERKS3_
	movq	%rax, %rbx
	leaq	-32(%rbp), %rdi
	call	__ZNSt17_Rb_tree_iteratorISt4pairIKSs5TableEEmmEv
	movq	(%rax), %rdi
	call	__ZNSt8_Rb_treeISsSt4pairIKSs5TableESt10_Select1stIS3_ESt4lessISsESaIS3_EE6_S_keyEPKSt18_Rb_tree_node_base
	movq	%rax, %rsi
	movq	-88(%rbp), %rdi
	movq	%rbx, %rdx
	call	__ZNKSt4lessISsEclERKSsS2_
	testb	%al, %al
	je	L1439
	.loc 3 1022 0
	movq	-32(%rbp), %rdi
	call	__ZNSt8_Rb_treeISsSt4pairIKSs5TableESt10_Select1stIS3_ESt4lessISsESaIS3_EE8_S_rightEPSt18_Rb_tree_node_base
	testq	%rax, %rax
	sete	%al
	testb	%al, %al
	je	L1441
	.loc 3 1023 0
	movq	-32(%rbp), %rdx
	movq	-104(%rbp), %rcx
	movq	-88(%rbp), %rdi
	movl	$0, %esi
	call	__ZNSt8_Rb_treeISsSt4pairIKSs5TableESt10_Select1stIS3_ESt4lessISsESaIS3_EE9_M_insertEPSt18_Rb_tree_node_baseSB_RKS3_
	movq	%rax, -136(%rbp)
	jmp	L1434
L1441:
	.loc 3 1026 0
	movq	-96(%rbp), %rdx
	movq	-96(%rbp), %rsi
	movq	-104(%rbp), %rcx
	movq	-88(%rbp), %rdi
	call	__ZNSt8_Rb_treeISsSt4pairIKSs5TableESt10_Select1stIS3_ESt4lessISsESaIS3_EE9_M_insertEPSt18_Rb_tree_node_baseSB_RKS3_
	movq	%rax, -136(%rbp)
	jmp	L1434
L1439:
	.loc 3 1029 0
	movq	-104(%rbp), %rsi
	movq	-88(%rbp), %rdi
	call	__ZNSt8_Rb_treeISsSt4pairIKSs5TableESt10_Select1stIS3_ESt4lessISsESaIS3_EE16_M_insert_uniqueERKS3_
	movq	%rax, -128(%rbp)
	movq	%rdx, -120(%rbp)
	movq	-128(%rbp), %rax
	movq	%rax, -64(%rbp)
	movzbl	-120(%rbp), %eax
	movb	%al, -56(%rbp)
	movq	-64(%rbp), %rax
	movq	%rax, -136(%rbp)
	jmp	L1434
L1435:
LBE133:
	.loc 3 1031 0
	leaq	-20(%rbp), %rdi
	call	__ZNSt10_Select1stISt4pairIKSs5TableEEC1Ev
	movq	-104(%rbp), %rsi
	leaq	-20(%rbp), %rdi
	call	__ZNKSt10_Select1stISt4pairIKSs5TableEEclERKS3_
	movq	%rax, %rbx
	movq	-96(%rbp), %rdi
	call	__ZNSt8_Rb_treeISsSt4pairIKSs5TableESt10_Select1stIS3_ESt4lessISsESaIS3_EE6_S_keyEPKSt18_Rb_tree_node_base
	movq	%rax, %rsi
	movq	-88(%rbp), %rdi
	movq	%rbx, %rdx
	call	__ZNKSt4lessISsEclERKSsS2_
	testb	%al, %al
	je	L1443
LBB134:
	.loc 3 1035 0
	movq	-96(%rbp), %rax
	movq	%rax, -32(%rbp)
	.loc 3 1036 0
	movq	-96(%rbp), %rbx
	movq	-88(%rbp), %rdi
	call	__ZNSt8_Rb_treeISsSt4pairIKSs5TableESt10_Select1stIS3_ESt4lessISsESaIS3_EE12_M_rightmostEv
	movq	(%rax), %rax
	cmpq	%rax, %rbx
	sete	%al
	testb	%al, %al
	je	L1445
	.loc 3 1037 0
	movq	-88(%rbp), %rdi
	call	__ZNSt8_Rb_treeISsSt4pairIKSs5TableESt10_Select1stIS3_ESt4lessISsESaIS3_EE12_M_rightmostEv
	movq	(%rax), %rdx
	movq	-104(%rbp), %rcx
	movq	-88(%rbp), %rdi
	movl	$0, %esi
	call	__ZNSt8_Rb_treeISsSt4pairIKSs5TableESt10_Select1stIS3_ESt4lessISsESaIS3_EE9_M_insertEPSt18_Rb_tree_node_baseSB_RKS3_
	movq	%rax, -136(%rbp)
	jmp	L1434
L1445:
	.loc 3 1038 0
	leaq	-32(%rbp), %rdi
	call	__ZNSt17_Rb_tree_iteratorISt4pairIKSs5TableEEppEv
	movq	(%rax), %rdi
	call	__ZNSt8_Rb_treeISsSt4pairIKSs5TableESt10_Select1stIS3_ESt4lessISsESaIS3_EE6_S_keyEPKSt18_Rb_tree_node_base
	movq	%rax, %rbx
	leaq	-21(%rbp), %rdi
	call	__ZNSt10_Select1stISt4pairIKSs5TableEEC1Ev
	movq	-104(%rbp), %rsi
	leaq	-21(%rbp), %rdi
	call	__ZNKSt10_Select1stISt4pairIKSs5TableEEclERKS3_
	movq	%rax, %rsi
	movq	-88(%rbp), %rdi
	movq	%rbx, %rdx
	call	__ZNKSt4lessISsEclERKSsS2_
	testb	%al, %al
	je	L1447
	.loc 3 1041 0
	movq	-96(%rbp), %rdi
	call	__ZNSt8_Rb_treeISsSt4pairIKSs5TableESt10_Select1stIS3_ESt4lessISsESaIS3_EE8_S_rightEPSt18_Rb_tree_node_base
	testq	%rax, %rax
	sete	%al
	testb	%al, %al
	je	L1449
	.loc 3 1042 0
	movq	-96(%rbp), %rdx
	movq	-104(%rbp), %rcx
	movq	-88(%rbp), %rdi
	movl	$0, %esi
	call	__ZNSt8_Rb_treeISsSt4pairIKSs5TableESt10_Select1stIS3_ESt4lessISsESaIS3_EE9_M_insertEPSt18_Rb_tree_node_baseSB_RKS3_
	movq	%rax, -136(%rbp)
	jmp	L1434
L1449:
	.loc 3 1044 0
	movq	-32(%rbp), %rdx
	movq	-32(%rbp), %rsi
	movq	-104(%rbp), %rcx
	movq	-88(%rbp), %rdi
	call	__ZNSt8_Rb_treeISsSt4pairIKSs5TableESt10_Select1stIS3_ESt4lessISsESaIS3_EE9_M_insertEPSt18_Rb_tree_node_baseSB_RKS3_
	movq	%rax, -136(%rbp)
	jmp	L1434
L1447:
	.loc 3 1047 0
	movq	-104(%rbp), %rsi
	movq	-88(%rbp), %rdi
	call	__ZNSt8_Rb_treeISsSt4pairIKSs5TableESt10_Select1stIS3_ESt4lessISsESaIS3_EE16_M_insert_uniqueERKS3_
	movq	%rax, -128(%rbp)
	movq	%rdx, -120(%rbp)
	movq	-128(%rbp), %rax
	movq	%rax, -80(%rbp)
	movzbl	-120(%rbp), %eax
	movb	%al, -72(%rbp)
	movq	-80(%rbp), %rax
	movq	%rax, -136(%rbp)
	jmp	L1434
L1443:
LBE134:
	.loc 3 1050 0
	movq	-96(%rbp), %rax
	movq	%rax, -136(%rbp)
L1434:
	movq	-136(%rbp), %rax
LBE132:
	addq	$136, %rsp
	popq	%rbx
	leave
	ret
LFE2484:
	.align 1
.globl __ZNSt3mapISs5TableSt4lessISsESaISt4pairIKSsS0_EEE6insertESt17_Rb_tree_iteratorIS5_ERKS5_
	.weak_definition __ZNSt3mapISs5TableSt4lessISsESaISt4pairIKSsS0_EEE6insertESt17_Rb_tree_iteratorIS5_ERKS5_
	.private_extern __ZNSt3mapISs5TableSt4lessISsESaISt4pairIKSsS0_EEE6insertESt17_Rb_tree_iteratorIS5_ERKS5_
__ZNSt3mapISs5TableSt4lessISsESaISt4pairIKSsS0_EEE6insertESt17_Rb_tree_iteratorIS5_ERKS5_:
LFB2302:
	.loc 13 426 0
	nop
	nop
	nop
	nop
	nop
	nop
	pushq	%rbp
LCFI1255:
	movq	%rsp, %rbp
LCFI1256:
	subq	$32, %rsp
LCFI1257:
	movq	%rdi, -8(%rbp)
	movq	%rsi, -16(%rbp)
	movq	%rdx, -24(%rbp)
	.loc 13 427 0
	movq	-8(%rbp), %rdi
	movq	-24(%rbp), %rdx
	movq	-16(%rbp), %rsi
	call	__ZNSt8_Rb_treeISsSt4pairIKSs5TableESt10_Select1stIS3_ESt4lessISsESaIS3_EE16_M_insert_uniqueESt17_Rb_tree_iteratorIS3_ERKS3_
	leave
	ret
LFE2302:
	.align 1
.globl __ZNSt3mapISs5TableSt4lessISsESaISt4pairIKSsS0_EEEixERS4_
	.weak_definition __ZNSt3mapISs5TableSt4lessISsESaISt4pairIKSsS0_EEEixERS4_
	.private_extern __ZNSt3mapISs5TableSt4lessISsESaISt4pairIKSsS0_EEEixERS4_
__ZNSt3mapISs5TableSt4lessISsESaISt4pairIKSsS0_EEEixERS4_:
LFB2091:
	.loc 13 342 0
	nop
	nop
	nop
	nop
	nop
	nop
	pushq	%rbp
LCFI1258:
	movq	%rsp, %rbp
LCFI1259:
	pushq	%rbx
LCFI1260:
	subq	$424, %rsp
LCFI1261:
	movq	%rdi, -408(%rbp)
	movq	%rsi, -416(%rbp)
LBB135:
	.loc 13 347 0
	movq	-416(%rbp), %rsi
	movq	-408(%rbp), %rdi
LEHB187:
	call	__ZNSt3mapISs5TableSt4lessISsESaISt4pairIKSsS0_EEE11lower_boundERS4_
	movq	%rax, -32(%rbp)
	.loc 13 349 0
	movq	-408(%rbp), %rdi
	call	__ZNSt3mapISs5TableSt4lessISsESaISt4pairIKSsS0_EEE3endEv
	movq	%rax, -48(%rbp)
	leaq	-48(%rbp), %rsi
	leaq	-32(%rbp), %rdi
	call	__ZNKSt17_Rb_tree_iteratorISt4pairIKSs5TableEEeqERKS4_
	testb	%al, %al
	jne	L1455
	leaq	-32(%rbp), %rdi
	call	__ZNKSt17_Rb_tree_iteratorISt4pairIKSs5TableEEdeEv
	movq	%rax, %rbx
	movq	-408(%rbp), %rdi
	call	__ZNKSt3mapISs5TableSt4lessISsESaISt4pairIKSsS0_EEE8key_compEv
	movq	-416(%rbp), %rsi
	leaq	-17(%rbp), %rdi
	movq	%rbx, %rdx
	call	__ZNKSt4lessISsEclERKSsS2_
LEHE187:
	testb	%al, %al
	je	L1457
L1455:
	movb	$1, -417(%rbp)
	jmp	L1458
L1457:
	movb	$0, -417(%rbp)
L1458:
	movzbl	-417(%rbp), %eax
	testb	%al, %al
	je	L1459
	.loc 13 350 0
	leaq	-224(%rbp), %rdi
	call	__ZN5TableC1Ev
	leaq	-224(%rbp), %rdx
	movq	-416(%rbp), %rsi
	leaq	-400(%rbp), %rdi
LEHB188:
	call	__ZNSt4pairIKSs5TableEC1ERS0_RKS1_
LEHE188:
	leaq	-400(%rbp), %rdx
	movq	-32(%rbp), %rsi
	movq	-408(%rbp), %rdi
LEHB189:
	call	__ZNSt3mapISs5TableSt4lessISsESaISt4pairIKSsS0_EEE6insertESt17_Rb_tree_iteratorIS5_ERKS5_
LEHE189:
	movq	%rax, -32(%rbp)
	leaq	-400(%rbp), %rdi
LEHB190:
	call	__ZNSt4pairIKSs5TableED1Ev
LEHE190:
	jmp	L1461
L1465:
	movq	%rax, -432(%rbp)
L1462:
	movq	-432(%rbp), %rbx
	leaq	-400(%rbp), %rdi
	call	__ZNSt4pairIKSs5TableED1Ev
	movq	%rbx, -432(%rbp)
	jmp	L1463
L1461:
	leaq	-224(%rbp), %rdi
LEHB191:
	call	__ZN5TableD1Ev
LEHE191:
	jmp	L1459
L1466:
	movq	%rax, -432(%rbp)
L1463:
	movq	-432(%rbp), %rbx
	leaq	-224(%rbp), %rdi
	call	__ZN5TableD1Ev
	movq	%rbx, -432(%rbp)
	movq	-432(%rbp), %rdi
LEHB192:
	call	__Unwind_Resume
LEHE192:
L1459:
	.loc 13 351 0
	leaq	-32(%rbp), %rdi
	call	__ZNKSt17_Rb_tree_iteratorISt4pairIKSs5TableEEdeEv
	addq	$8, %rax
LBE135:
	addq	$424, %rsp
	popq	%rbx
	leave
	ret
LFE2091:
	.section __TEXT,__gcc_except_tab
GCC_except_table47:
LLSDA2091:
	.byte	0xff
	.byte	0xff
	.byte	0x3
	.byte	0x4e
	.set L$set$468,LEHB187-LFB2091
	.long L$set$468
	.set L$set$469,LEHE187-LEHB187
	.long L$set$469
	.long	0x0
	.byte	0x0
	.set L$set$470,LEHB188-LFB2091
	.long L$set$470
	.set L$set$471,LEHE188-LEHB188
	.long L$set$471
	.set L$set$472,L1466-LFB2091
	.long L$set$472
	.byte	0x0
	.set L$set$473,LEHB189-LFB2091
	.long L$set$473
	.set L$set$474,LEHE189-LEHB189
	.long L$set$474
	.set L$set$475,L1465-LFB2091
	.long L$set$475
	.byte	0x0
	.set L$set$476,LEHB190-LFB2091
	.long L$set$476
	.set L$set$477,LEHE190-LEHB190
	.long L$set$477
	.set L$set$478,L1466-LFB2091
	.long L$set$478
	.byte	0x0
	.set L$set$479,LEHB191-LFB2091
	.long L$set$479
	.set L$set$480,LEHE191-LEHB191
	.long L$set$480
	.long	0x0
	.byte	0x0
	.set L$set$481,LEHB192-LFB2091
	.long L$set$481
	.set L$set$482,LEHE192-LEHB192
	.long L$set$482
	.long	0x0
	.byte	0x0
	.section __TEXT,__textcoal_nt,coalesced,pure_instructions
	.align 1
.globl __ZNSt8_Rb_treeIiSt4pairIKiSsESt10_Select1stIS2_ESt4lessIiESaIS2_EE9_M_insertEPSt18_Rb_tree_node_baseSA_RKS2_
	.weak_definition __ZNSt8_Rb_treeIiSt4pairIKiSsESt10_Select1stIS2_ESt4lessIiESaIS2_EE9_M_insertEPSt18_Rb_tree_node_baseSA_RKS2_
__ZNSt8_Rb_treeIiSt4pairIKiSsESt10_Select1stIS2_ESt4lessIiESaIS2_EE9_M_insertEPSt18_Rb_tree_node_baseSA_RKS2_:
LFB2663:
	.loc 3 834 0
	nop
	nop
	nop
	nop
	nop
	nop
	pushq	%rbp
LCFI1262:
	movq	%rsp, %rbp
LCFI1263:
	pushq	%rbx
LCFI1264:
	subq	$88, %rsp
LCFI1265:
	movq	%rdi, -56(%rbp)
	movq	%rsi, -64(%rbp)
	movq	%rdx, -72(%rbp)
	movq	%rcx, -80(%rbp)
LBB136:
	.loc 3 838 0
	cmpq	$0, -64(%rbp)
	jne	L1468
	movq	-56(%rbp), %rdi
	call	__ZNSt8_Rb_treeIiSt4pairIKiSsESt10_Select1stIS2_ESt4lessIiESaIS2_EE6_M_endEv
	cmpq	-72(%rbp), %rax
	je	L1468
	movq	-72(%rbp), %rdi
	call	__ZNSt8_Rb_treeIiSt4pairIKiSsESt10_Select1stIS2_ESt4lessIiESaIS2_EE6_S_keyEPKSt18_Rb_tree_node_base
	movq	%rax, %rbx
	leaq	-18(%rbp), %rdi
	call	__ZNSt10_Select1stISt4pairIKiSsEEC1Ev
	movq	-80(%rbp), %rsi
	leaq	-18(%rbp), %rdi
	call	__ZNKSt10_Select1stISt4pairIKiSsEEclERKS2_
	movq	%rax, %rsi
	movq	-56(%rbp), %rdi
	movq	%rbx, %rdx
	call	__ZNKSt4lessIiEclERKiS2_
	testb	%al, %al
	je	L1471
L1468:
	movb	$1, -81(%rbp)
	jmp	L1472
L1471:
	movb	$0, -81(%rbp)
L1472:
	movzbl	-81(%rbp), %eax
	movb	%al, -17(%rbp)
	.loc 3 840 0
	movq	-80(%rbp), %rsi
	movq	-56(%rbp), %rdi
	call	__ZNSt8_Rb_treeIiSt4pairIKiSsESt10_Select1stIS2_ESt4lessIiESaIS2_EE14_M_create_nodeERKS2_
	movq	%rax, -32(%rbp)
	.loc 3 842 0
	movq	-56(%rbp), %rcx
	addq	$8, %rcx
	movq	-32(%rbp), %rsi
	movzbl	-17(%rbp), %edi
	movq	-72(%rbp), %rdx
	call	__ZSt29_Rb_tree_insert_and_rebalancebPSt18_Rb_tree_node_baseS0_RS_
	.loc 3 844 0
	movq	-56(%rbp), %rax
	movq	40(%rax), %rax
	leaq	1(%rax), %rdx
	movq	-56(%rbp), %rax
	movq	%rdx, 40(%rax)
	.loc 3 845 0
	movq	-32(%rbp), %rsi
	leaq	-48(%rbp), %rdi
	call	__ZNSt17_Rb_tree_iteratorISt4pairIKiSsEEC1EPSt13_Rb_tree_nodeIS2_E
	movq	-48(%rbp), %rax
LBE136:
	addq	$88, %rsp
	popq	%rbx
	leave
	ret
LFE2663:
	.align 1
.globl __ZNSt8_Rb_treeIiSt4pairIKiSsESt10_Select1stIS2_ESt4lessIiESaIS2_EE16_M_insert_uniqueERKS2_
	.weak_definition __ZNSt8_Rb_treeIiSt4pairIKiSsESt10_Select1stIS2_ESt4lessIiESaIS2_EE16_M_insert_uniqueERKS2_
__ZNSt8_Rb_treeIiSt4pairIKiSsESt10_Select1stIS2_ESt4lessIiESaIS2_EE16_M_insert_uniqueERKS2_:
LFB2664:
	.loc 3 974 0
	nop
	nop
	nop
	nop
	nop
	nop
	pushq	%rbp
LCFI1266:
	movq	%rsp, %rbp
LCFI1267:
	pushq	%rbx
LCFI1268:
	subq	$200, %rsp
LCFI1269:
	movq	%rdi, -168(%rbp)
	movq	%rsi, -176(%rbp)
LBB137:
	.loc 3 976 0
	movq	-168(%rbp), %rdi
	call	__ZNSt8_Rb_treeIiSt4pairIKiSsESt10_Select1stIS2_ESt4lessIiESaIS2_EE8_M_beginEv
	movq	%rax, -32(%rbp)
	.loc 3 977 0
	movq	-168(%rbp), %rdi
	call	__ZNSt8_Rb_treeIiSt4pairIKiSsESt10_Select1stIS2_ESt4lessIiESaIS2_EE6_M_endEv
	movq	%rax, -40(%rbp)
	.loc 3 978 0
	movb	$1, -17(%rbp)
	.loc 3 979 0
	jmp	L1475
L1476:
	.loc 3 981 0
	movq	-32(%rbp), %rax
	movq	%rax, -40(%rbp)
	.loc 3 982 0
	movq	-32(%rbp), %rdi
	call	__ZNSt8_Rb_treeIiSt4pairIKiSsESt10_Select1stIS2_ESt4lessIiESaIS2_EE6_S_keyEPKSt13_Rb_tree_nodeIS2_E
	movq	%rax, %rbx
	leaq	-18(%rbp), %rdi
	call	__ZNSt10_Select1stISt4pairIKiSsEEC1Ev
	movq	-176(%rbp), %rsi
	leaq	-18(%rbp), %rdi
	call	__ZNKSt10_Select1stISt4pairIKiSsEEclERKS2_
	movq	%rax, %rsi
	movq	-168(%rbp), %rdi
	movq	%rbx, %rdx
	call	__ZNKSt4lessIiEclERKiS2_
	movb	%al, -17(%rbp)
	.loc 3 983 0
	cmpb	$0, -17(%rbp)
	je	L1477
	movq	-32(%rbp), %rdi
	call	__ZNSt8_Rb_treeIiSt4pairIKiSsESt10_Select1stIS2_ESt4lessIiESaIS2_EE7_S_leftEPSt18_Rb_tree_node_base
	movq	%rax, -200(%rbp)
	jmp	L1479
L1477:
	movq	-32(%rbp), %rdi
	call	__ZNSt8_Rb_treeIiSt4pairIKiSsESt10_Select1stIS2_ESt4lessIiESaIS2_EE8_S_rightEPSt18_Rb_tree_node_base
	movq	%rax, -200(%rbp)
L1479:
	movq	-200(%rbp), %rax
	movq	%rax, -32(%rbp)
L1475:
	.loc 3 979 0
	cmpq	$0, -32(%rbp)
	jne	L1476
	.loc 3 985 0
	movq	-40(%rbp), %rsi
	leaq	-48(%rbp), %rdi
	call	__ZNSt17_Rb_tree_iteratorISt4pairIKiSsEEC1EPSt13_Rb_tree_nodeIS2_E
	.loc 3 986 0
	cmpb	$0, -17(%rbp)
	je	L1481
	.loc 3 987 0
	movq	-168(%rbp), %rdi
	call	__ZNSt8_Rb_treeIiSt4pairIKiSsESt10_Select1stIS2_ESt4lessIiESaIS2_EE5beginEv
	movq	%rax, -64(%rbp)
	leaq	-64(%rbp), %rsi
	leaq	-48(%rbp), %rdi
	call	__ZNKSt17_Rb_tree_iteratorISt4pairIKiSsEEeqERKS3_
	testb	%al, %al
	je	L1483
	.loc 3 988 0
	movb	$1, -19(%rbp)
	movq	-40(%rbp), %rdx
	movq	-32(%rbp), %rsi
	movq	-176(%rbp), %rcx
	movq	-168(%rbp), %rdi
	call	__ZNSt8_Rb_treeIiSt4pairIKiSsESt10_Select1stIS2_ESt4lessIiESaIS2_EE9_M_insertEPSt18_Rb_tree_node_baseSA_RKS2_
	movq	%rax, -80(%rbp)
	leaq	-19(%rbp), %rdx
	leaq	-80(%rbp), %rsi
	leaq	-112(%rbp), %rdi
	call	__ZNSt4pairISt17_Rb_tree_iteratorIS_IKiSsEEbEC1ERKS3_RKb
	movq	-112(%rbp), %rax
	movq	%rax, -160(%rbp)
	movzbl	-104(%rbp), %eax
	movb	%al, -152(%rbp)
	jmp	L1485
L1483:
	.loc 3 990 0
	leaq	-48(%rbp), %rdi
	call	__ZNSt17_Rb_tree_iteratorISt4pairIKiSsEEmmEv
L1481:
	.loc 3 991 0
	leaq	-20(%rbp), %rdi
	call	__ZNSt10_Select1stISt4pairIKiSsEEC1Ev
	movq	-176(%rbp), %rsi
	leaq	-20(%rbp), %rdi
	call	__ZNKSt10_Select1stISt4pairIKiSsEEclERKS2_
	movq	%rax, %rbx
	movq	-48(%rbp), %rdi
	call	__ZNSt8_Rb_treeIiSt4pairIKiSsESt10_Select1stIS2_ESt4lessIiESaIS2_EE6_S_keyEPKSt18_Rb_tree_node_base
	movq	%rax, %rsi
	movq	-168(%rbp), %rdi
	movq	%rbx, %rdx
	call	__ZNKSt4lessIiEclERKiS2_
	testb	%al, %al
	je	L1486
	.loc 3 992 0
	movb	$1, -21(%rbp)
	movq	-40(%rbp), %rdx
	movq	-32(%rbp), %rsi
	movq	-176(%rbp), %rcx
	movq	-168(%rbp), %rdi
	call	__ZNSt8_Rb_treeIiSt4pairIKiSsESt10_Select1stIS2_ESt4lessIiESaIS2_EE9_M_insertEPSt18_Rb_tree_node_baseSA_RKS2_
	movq	%rax, -96(%rbp)
	leaq	-21(%rbp), %rdx
	leaq	-96(%rbp), %rsi
	leaq	-128(%rbp), %rdi
	call	__ZNSt4pairISt17_Rb_tree_iteratorIS_IKiSsEEbEC1ERKS3_RKb
	movq	-128(%rbp), %rax
	movq	%rax, -160(%rbp)
	movzbl	-120(%rbp), %eax
	movb	%al, -152(%rbp)
	jmp	L1485
L1486:
	.loc 3 993 0
	movb	$0, -22(%rbp)
	leaq	-22(%rbp), %rdx
	leaq	-48(%rbp), %rsi
	leaq	-144(%rbp), %rdi
	call	__ZNSt4pairISt17_Rb_tree_iteratorIS_IKiSsEEbEC1ERKS3_RKb
	movq	-144(%rbp), %rax
	movq	%rax, -160(%rbp)
	movzbl	-136(%rbp), %eax
	movb	%al, -152(%rbp)
L1485:
	movq	-160(%rbp), %rax
	movq	-152(%rbp), %rdx
LBE137:
	addq	$200, %rsp
	popq	%rbx
	leave
	ret
LFE2664:
	.align 1
.globl __ZNSt8_Rb_treeIiSt4pairIKiSsESt10_Select1stIS2_ESt4lessIiESaIS2_EE16_M_insert_uniqueESt17_Rb_tree_iteratorIS2_ERKS2_
	.weak_definition __ZNSt8_Rb_treeIiSt4pairIKiSsESt10_Select1stIS2_ESt4lessIiESaIS2_EE16_M_insert_uniqueESt17_Rb_tree_iteratorIS2_ERKS2_
__ZNSt8_Rb_treeIiSt4pairIKiSsESt10_Select1stIS2_ESt4lessIiESaIS2_EE16_M_insert_uniqueESt17_Rb_tree_iteratorIS2_ERKS2_:
LFB2548:
	.loc 3 1000 0
	nop
	nop
	nop
	nop
	nop
	nop
	pushq	%rbp
LCFI1270:
	movq	%rsp, %rbp
LCFI1271:
	pushq	%rbx
LCFI1272:
	subq	$136, %rsp
LCFI1273:
	movq	%rdi, -88(%rbp)
	movq	%rsi, -96(%rbp)
	movq	%rdx, -104(%rbp)
LBB138:
	.loc 3 1003 0
	movq	-96(%rbp), %rbx
	movq	-88(%rbp), %rdi
	call	__ZNSt8_Rb_treeIiSt4pairIKiSsESt10_Select1stIS2_ESt4lessIiESaIS2_EE6_M_endEv
	cmpq	%rax, %rbx
	sete	%al
	testb	%al, %al
	je	L1490
	.loc 3 1005 0
	movq	-88(%rbp), %rdi
	call	__ZNKSt8_Rb_treeIiSt4pairIKiSsESt10_Select1stIS2_ESt4lessIiESaIS2_EE4sizeEv
	testq	%rax, %rax
	je	L1492
	leaq	-17(%rbp), %rdi
	call	__ZNSt10_Select1stISt4pairIKiSsEEC1Ev
	movq	-104(%rbp), %rsi
	leaq	-17(%rbp), %rdi
	call	__ZNKSt10_Select1stISt4pairIKiSsEEclERKS2_
	movq	%rax, %rbx
	movq	-88(%rbp), %rdi
	call	__ZNSt8_Rb_treeIiSt4pairIKiSsESt10_Select1stIS2_ESt4lessIiESaIS2_EE12_M_rightmostEv
	movq	(%rax), %rdi
	call	__ZNSt8_Rb_treeIiSt4pairIKiSsESt10_Select1stIS2_ESt4lessIiESaIS2_EE6_S_keyEPKSt18_Rb_tree_node_base
	movq	%rax, %rsi
	movq	-88(%rbp), %rdi
	movq	%rbx, %rdx
	call	__ZNKSt4lessIiEclERKiS2_
	xorl	$1, %eax
	testb	%al, %al
	jne	L1492
	movb	$1, -137(%rbp)
	jmp	L1495
L1492:
	movb	$0, -137(%rbp)
L1495:
	movzbl	-137(%rbp), %eax
	testb	%al, %al
	je	L1496
	.loc 3 1008 0
	movq	-88(%rbp), %rdi
	call	__ZNSt8_Rb_treeIiSt4pairIKiSsESt10_Select1stIS2_ESt4lessIiESaIS2_EE12_M_rightmostEv
	movq	(%rax), %rdx
	movq	-104(%rbp), %rcx
	movq	-88(%rbp), %rdi
	movl	$0, %esi
	call	__ZNSt8_Rb_treeIiSt4pairIKiSsESt10_Select1stIS2_ESt4lessIiESaIS2_EE9_M_insertEPSt18_Rb_tree_node_baseSA_RKS2_
	movq	%rax, -136(%rbp)
	jmp	L1498
L1496:
	.loc 3 1010 0
	movq	-104(%rbp), %rsi
	movq	-88(%rbp), %rdi
	call	__ZNSt8_Rb_treeIiSt4pairIKiSsESt10_Select1stIS2_ESt4lessIiESaIS2_EE16_M_insert_uniqueERKS2_
	movq	%rax, -128(%rbp)
	movq	%rdx, -120(%rbp)
	movq	-128(%rbp), %rax
	movq	%rax, -48(%rbp)
	movzbl	-120(%rbp), %eax
	movb	%al, -40(%rbp)
	movq	-48(%rbp), %rax
	movq	%rax, -136(%rbp)
	jmp	L1498
L1490:
	.loc 3 1012 0
	movq	-96(%rbp), %rdi
	call	__ZNSt8_Rb_treeIiSt4pairIKiSsESt10_Select1stIS2_ESt4lessIiESaIS2_EE6_S_keyEPKSt18_Rb_tree_node_base
	movq	%rax, %rbx
	leaq	-18(%rbp), %rdi
	call	__ZNSt10_Select1stISt4pairIKiSsEEC1Ev
	movq	-104(%rbp), %rsi
	leaq	-18(%rbp), %rdi
	call	__ZNKSt10_Select1stISt4pairIKiSsEEclERKS2_
	movq	%rax, %rsi
	movq	-88(%rbp), %rdi
	movq	%rbx, %rdx
	call	__ZNKSt4lessIiEclERKiS2_
	testb	%al, %al
	je	L1499
LBB139:
	.loc 3 1016 0
	movq	-96(%rbp), %rax
	movq	%rax, -32(%rbp)
	.loc 3 1017 0
	movq	-96(%rbp), %rbx
	movq	-88(%rbp), %rdi
	call	__ZNSt8_Rb_treeIiSt4pairIKiSsESt10_Select1stIS2_ESt4lessIiESaIS2_EE11_M_leftmostEv
	movq	(%rax), %rax
	cmpq	%rax, %rbx
	sete	%al
	testb	%al, %al
	je	L1501
	.loc 3 1018 0
	movq	-88(%rbp), %rdi
	call	__ZNSt8_Rb_treeIiSt4pairIKiSsESt10_Select1stIS2_ESt4lessIiESaIS2_EE11_M_leftmostEv
	movq	(%rax), %rbx
	movq	-88(%rbp), %rdi
	call	__ZNSt8_Rb_treeIiSt4pairIKiSsESt10_Select1stIS2_ESt4lessIiESaIS2_EE11_M_leftmostEv
	movq	(%rax), %rsi
	movq	-104(%rbp), %rcx
	movq	-88(%rbp), %rdi
	movq	%rbx, %rdx
	call	__ZNSt8_Rb_treeIiSt4pairIKiSsESt10_Select1stIS2_ESt4lessIiESaIS2_EE9_M_insertEPSt18_Rb_tree_node_baseSA_RKS2_
	movq	%rax, -136(%rbp)
	jmp	L1498
L1501:
	.loc 3 1019 0
	leaq	-19(%rbp), %rdi
	call	__ZNSt10_Select1stISt4pairIKiSsEEC1Ev
	movq	-104(%rbp), %rsi
	leaq	-19(%rbp), %rdi
	call	__ZNKSt10_Select1stISt4pairIKiSsEEclERKS2_
	movq	%rax, %rbx
	leaq	-32(%rbp), %rdi
	call	__ZNSt17_Rb_tree_iteratorISt4pairIKiSsEEmmEv
	movq	(%rax), %rdi
	call	__ZNSt8_Rb_treeIiSt4pairIKiSsESt10_Select1stIS2_ESt4lessIiESaIS2_EE6_S_keyEPKSt18_Rb_tree_node_base
	movq	%rax, %rsi
	movq	-88(%rbp), %rdi
	movq	%rbx, %rdx
	call	__ZNKSt4lessIiEclERKiS2_
	testb	%al, %al
	je	L1503
	.loc 3 1022 0
	movq	-32(%rbp), %rdi
	call	__ZNSt8_Rb_treeIiSt4pairIKiSsESt10_Select1stIS2_ESt4lessIiESaIS2_EE8_S_rightEPSt18_Rb_tree_node_base
	testq	%rax, %rax
	sete	%al
	testb	%al, %al
	je	L1505
	.loc 3 1023 0
	movq	-32(%rbp), %rdx
	movq	-104(%rbp), %rcx
	movq	-88(%rbp), %rdi
	movl	$0, %esi
	call	__ZNSt8_Rb_treeIiSt4pairIKiSsESt10_Select1stIS2_ESt4lessIiESaIS2_EE9_M_insertEPSt18_Rb_tree_node_baseSA_RKS2_
	movq	%rax, -136(%rbp)
	jmp	L1498
L1505:
	.loc 3 1026 0
	movq	-96(%rbp), %rdx
	movq	-96(%rbp), %rsi
	movq	-104(%rbp), %rcx
	movq	-88(%rbp), %rdi
	call	__ZNSt8_Rb_treeIiSt4pairIKiSsESt10_Select1stIS2_ESt4lessIiESaIS2_EE9_M_insertEPSt18_Rb_tree_node_baseSA_RKS2_
	movq	%rax, -136(%rbp)
	jmp	L1498
L1503:
	.loc 3 1029 0
	movq	-104(%rbp), %rsi
	movq	-88(%rbp), %rdi
	call	__ZNSt8_Rb_treeIiSt4pairIKiSsESt10_Select1stIS2_ESt4lessIiESaIS2_EE16_M_insert_uniqueERKS2_
	movq	%rax, -128(%rbp)
	movq	%rdx, -120(%rbp)
	movq	-128(%rbp), %rax
	movq	%rax, -64(%rbp)
	movzbl	-120(%rbp), %eax
	movb	%al, -56(%rbp)
	movq	-64(%rbp), %rax
	movq	%rax, -136(%rbp)
	jmp	L1498
L1499:
LBE139:
	.loc 3 1031 0
	leaq	-20(%rbp), %rdi
	call	__ZNSt10_Select1stISt4pairIKiSsEEC1Ev
	movq	-104(%rbp), %rsi
	leaq	-20(%rbp), %rdi
	call	__ZNKSt10_Select1stISt4pairIKiSsEEclERKS2_
	movq	%rax, %rbx
	movq	-96(%rbp), %rdi
	call	__ZNSt8_Rb_treeIiSt4pairIKiSsESt10_Select1stIS2_ESt4lessIiESaIS2_EE6_S_keyEPKSt18_Rb_tree_node_base
	movq	%rax, %rsi
	movq	-88(%rbp), %rdi
	movq	%rbx, %rdx
	call	__ZNKSt4lessIiEclERKiS2_
	testb	%al, %al
	je	L1507
LBB140:
	.loc 3 1035 0
	movq	-96(%rbp), %rax
	movq	%rax, -32(%rbp)
	.loc 3 1036 0
	movq	-96(%rbp), %rbx
	movq	-88(%rbp), %rdi
	call	__ZNSt8_Rb_treeIiSt4pairIKiSsESt10_Select1stIS2_ESt4lessIiESaIS2_EE12_M_rightmostEv
	movq	(%rax), %rax
	cmpq	%rax, %rbx
	sete	%al
	testb	%al, %al
	je	L1509
	.loc 3 1037 0
	movq	-88(%rbp), %rdi
	call	__ZNSt8_Rb_treeIiSt4pairIKiSsESt10_Select1stIS2_ESt4lessIiESaIS2_EE12_M_rightmostEv
	movq	(%rax), %rdx
	movq	-104(%rbp), %rcx
	movq	-88(%rbp), %rdi
	movl	$0, %esi
	call	__ZNSt8_Rb_treeIiSt4pairIKiSsESt10_Select1stIS2_ESt4lessIiESaIS2_EE9_M_insertEPSt18_Rb_tree_node_baseSA_RKS2_
	movq	%rax, -136(%rbp)
	jmp	L1498
L1509:
	.loc 3 1038 0
	leaq	-32(%rbp), %rdi
	call	__ZNSt17_Rb_tree_iteratorISt4pairIKiSsEEppEv
	movq	(%rax), %rdi
	call	__ZNSt8_Rb_treeIiSt4pairIKiSsESt10_Select1stIS2_ESt4lessIiESaIS2_EE6_S_keyEPKSt18_Rb_tree_node_base
	movq	%rax, %rbx
	leaq	-21(%rbp), %rdi
	call	__ZNSt10_Select1stISt4pairIKiSsEEC1Ev
	movq	-104(%rbp), %rsi
	leaq	-21(%rbp), %rdi
	call	__ZNKSt10_Select1stISt4pairIKiSsEEclERKS2_
	movq	%rax, %rsi
	movq	-88(%rbp), %rdi
	movq	%rbx, %rdx
	call	__ZNKSt4lessIiEclERKiS2_
	testb	%al, %al
	je	L1511
	.loc 3 1041 0
	movq	-96(%rbp), %rdi
	call	__ZNSt8_Rb_treeIiSt4pairIKiSsESt10_Select1stIS2_ESt4lessIiESaIS2_EE8_S_rightEPSt18_Rb_tree_node_base
	testq	%rax, %rax
	sete	%al
	testb	%al, %al
	je	L1513
	.loc 3 1042 0
	movq	-96(%rbp), %rdx
	movq	-104(%rbp), %rcx
	movq	-88(%rbp), %rdi
	movl	$0, %esi
	call	__ZNSt8_Rb_treeIiSt4pairIKiSsESt10_Select1stIS2_ESt4lessIiESaIS2_EE9_M_insertEPSt18_Rb_tree_node_baseSA_RKS2_
	movq	%rax, -136(%rbp)
	jmp	L1498
L1513:
	.loc 3 1044 0
	movq	-32(%rbp), %rdx
	movq	-32(%rbp), %rsi
	movq	-104(%rbp), %rcx
	movq	-88(%rbp), %rdi
	call	__ZNSt8_Rb_treeIiSt4pairIKiSsESt10_Select1stIS2_ESt4lessIiESaIS2_EE9_M_insertEPSt18_Rb_tree_node_baseSA_RKS2_
	movq	%rax, -136(%rbp)
	jmp	L1498
L1511:
	.loc 3 1047 0
	movq	-104(%rbp), %rsi
	movq	-88(%rbp), %rdi
	call	__ZNSt8_Rb_treeIiSt4pairIKiSsESt10_Select1stIS2_ESt4lessIiESaIS2_EE16_M_insert_uniqueERKS2_
	movq	%rax, -128(%rbp)
	movq	%rdx, -120(%rbp)
	movq	-128(%rbp), %rax
	movq	%rax, -80(%rbp)
	movzbl	-120(%rbp), %eax
	movb	%al, -72(%rbp)
	movq	-80(%rbp), %rax
	movq	%rax, -136(%rbp)
	jmp	L1498
L1507:
LBE140:
	.loc 3 1050 0
	movq	-96(%rbp), %rax
	movq	%rax, -136(%rbp)
L1498:
	movq	-136(%rbp), %rax
LBE138:
	addq	$136, %rsp
	popq	%rbx
	leave
	ret
LFE2548:
	.align 1
.globl __ZNSt3mapIiSsSt4lessIiESaISt4pairIKiSsEEE6insertESt17_Rb_tree_iteratorIS4_ERKS4_
	.weak_definition __ZNSt3mapIiSsSt4lessIiESaISt4pairIKiSsEEE6insertESt17_Rb_tree_iteratorIS4_ERKS4_
	.private_extern __ZNSt3mapIiSsSt4lessIiESaISt4pairIKiSsEEE6insertESt17_Rb_tree_iteratorIS4_ERKS4_
__ZNSt3mapIiSsSt4lessIiESaISt4pairIKiSsEEE6insertESt17_Rb_tree_iteratorIS4_ERKS4_:
LFB2367:
	.loc 13 426 0
	nop
	nop
	nop
	nop
	nop
	nop
	pushq	%rbp
LCFI1274:
	movq	%rsp, %rbp
LCFI1275:
	subq	$32, %rsp
LCFI1276:
	movq	%rdi, -8(%rbp)
	movq	%rsi, -16(%rbp)
	movq	%rdx, -24(%rbp)
	.loc 13 427 0
	movq	-8(%rbp), %rdi
	movq	-24(%rbp), %rdx
	movq	-16(%rbp), %rsi
	call	__ZNSt8_Rb_treeIiSt4pairIKiSsESt10_Select1stIS2_ESt4lessIiESaIS2_EE16_M_insert_uniqueESt17_Rb_tree_iteratorIS2_ERKS2_
	leave
	ret
LFE2367:
	.align 1
.globl __ZNSt3mapIiSsSt4lessIiESaISt4pairIKiSsEEEixERS3_
	.weak_definition __ZNSt3mapIiSsSt4lessIiESaISt4pairIKiSsEEEixERS3_
	.private_extern __ZNSt3mapIiSsSt4lessIiESaISt4pairIKiSsEEEixERS3_
__ZNSt3mapIiSsSt4lessIiESaISt4pairIKiSsEEEixERS3_:
LFB2146:
	.loc 13 342 0
	nop
	nop
	nop
	nop
	nop
	nop
	pushq	%rbp
LCFI1277:
	movq	%rsp, %rbp
LCFI1278:
	pushq	%rbx
LCFI1279:
	subq	$104, %rsp
LCFI1280:
	movq	%rdi, -88(%rbp)
	movq	%rsi, -96(%rbp)
LBB141:
	.loc 13 347 0
	movq	-96(%rbp), %rsi
	movq	-88(%rbp), %rdi
	call	__ZNSt3mapIiSsSt4lessIiESaISt4pairIKiSsEEE11lower_boundERS3_
	movq	%rax, -32(%rbp)
	.loc 13 349 0
	movq	-88(%rbp), %rdi
	call	__ZNSt3mapIiSsSt4lessIiESaISt4pairIKiSsEEE3endEv
	movq	%rax, -48(%rbp)
	leaq	-48(%rbp), %rsi
	leaq	-32(%rbp), %rdi
	call	__ZNKSt17_Rb_tree_iteratorISt4pairIKiSsEEeqERKS3_
	testb	%al, %al
	jne	L1519
	leaq	-32(%rbp), %rdi
	call	__ZNKSt17_Rb_tree_iteratorISt4pairIKiSsEEdeEv
	movq	%rax, %rbx
	movq	-88(%rbp), %rdi
	call	__ZNKSt3mapIiSsSt4lessIiESaISt4pairIKiSsEEE8key_compEv
	movq	-96(%rbp), %rsi
	leaq	-17(%rbp), %rdi
	movq	%rbx, %rdx
	call	__ZNKSt4lessIiEclERKiS2_
	testb	%al, %al
	je	L1521
L1519:
	movb	$1, -97(%rbp)
	jmp	L1522
L1521:
	movb	$0, -97(%rbp)
L1522:
	movzbl	-97(%rbp), %eax
	testb	%al, %al
	je	L1523
	.loc 13 350 0
	leaq	-64(%rbp), %rdi
LEHB193:
	call	__ZNSsC1Ev
LEHE193:
	leaq	-64(%rbp), %rdx
	movq	-96(%rbp), %rsi
	leaq	-80(%rbp), %rdi
LEHB194:
	call	__ZNSt4pairIKiSsEC1ERS0_RKSs
LEHE194:
	leaq	-80(%rbp), %rdx
	movq	-32(%rbp), %rsi
	movq	-88(%rbp), %rdi
LEHB195:
	call	__ZNSt3mapIiSsSt4lessIiESaISt4pairIKiSsEEE6insertESt17_Rb_tree_iteratorIS4_ERKS4_
LEHE195:
	movq	%rax, -32(%rbp)
	leaq	-80(%rbp), %rdi
LEHB196:
	call	__ZNSt4pairIKiSsED1Ev
LEHE196:
	jmp	L1525
L1529:
	movq	%rax, -112(%rbp)
L1526:
	movq	-112(%rbp), %rbx
	leaq	-80(%rbp), %rdi
	call	__ZNSt4pairIKiSsED1Ev
	movq	%rbx, -112(%rbp)
	jmp	L1527
L1525:
	leaq	-64(%rbp), %rdi
LEHB197:
	call	__ZNSsD1Ev
LEHE197:
	jmp	L1523
L1530:
	movq	%rax, -112(%rbp)
L1527:
	movq	-112(%rbp), %rbx
	leaq	-64(%rbp), %rdi
	call	__ZNSsD1Ev
	movq	%rbx, -112(%rbp)
	movq	-112(%rbp), %rdi
LEHB198:
	call	__Unwind_Resume
LEHE198:
L1523:
	.loc 13 351 0
	leaq	-32(%rbp), %rdi
	call	__ZNKSt17_Rb_tree_iteratorISt4pairIKiSsEEdeEv
	addq	$8, %rax
LBE141:
	addq	$104, %rsp
	popq	%rbx
	leave
	ret
LFE2146:
	.section __TEXT,__gcc_except_tab
GCC_except_table48:
LLSDA2146:
	.byte	0xff
	.byte	0xff
	.byte	0x3
	.byte	0x4e
	.set L$set$483,LEHB193-LFB2146
	.long L$set$483
	.set L$set$484,LEHE193-LEHB193
	.long L$set$484
	.long	0x0
	.byte	0x0
	.set L$set$485,LEHB194-LFB2146
	.long L$set$485
	.set L$set$486,LEHE194-LEHB194
	.long L$set$486
	.set L$set$487,L1530-LFB2146
	.long L$set$487
	.byte	0x0
	.set L$set$488,LEHB195-LFB2146
	.long L$set$488
	.set L$set$489,LEHE195-LEHB195
	.long L$set$489
	.set L$set$490,L1529-LFB2146
	.long L$set$490
	.byte	0x0
	.set L$set$491,LEHB196-LFB2146
	.long L$set$491
	.set L$set$492,LEHE196-LEHB196
	.long L$set$492
	.set L$set$493,L1530-LFB2146
	.long L$set$493
	.byte	0x0
	.set L$set$494,LEHB197-LFB2146
	.long L$set$494
	.set L$set$495,LEHE197-LEHB197
	.long L$set$495
	.long	0x0
	.byte	0x0
	.set L$set$496,LEHB198-LFB2146
	.long L$set$496
	.set L$set$497,LEHE198-LEHB198
	.long L$set$497
	.long	0x0
	.byte	0x0
	.section __TEXT,__textcoal_nt,coalesced,pure_instructions
.globl __ZStplIcSt11char_traitsIcESaIcEESbIT_T0_T1_EPKS3_RKS6_
	.weak_definition __ZStplIcSt11char_traitsIcESaIcEESbIT_T0_T1_EPKS3_RKS6_
__ZStplIcSt11char_traitsIcESaIcEESbIT_T0_T1_EPKS3_RKS6_:
LFB2180:
	.file 21 "/Developer/SDKs/MacOSX10.6.sdk/usr/include/c++/4.2.1/bits/basic_string.tcc"
	.loc 21 675 0
	nop
	nop
	nop
	nop
	nop
	nop
	pushq	%rbp
LCFI1281:
	movq	%rsp, %rbp
LCFI1282:
	pushq	%rbx
LCFI1283:
	subq	$56, %rsp
LCFI1284:
	movq	%rdi, -56(%rbp)
	movq	%rsi, -40(%rbp)
	movq	%rdx, -48(%rbp)
LBB142:
	.loc 21 680 0
	movq	-40(%rbp), %rdi
	call	__ZNSt11char_traitsIcE6lengthEPKc
	movq	%rax, -24(%rbp)
	.loc 21 681 0
	movq	-56(%rbp), %rdi
LEHB199:
	call	__ZNSsC1Ev
LEHE199:
	.loc 21 682 0
	movq	-48(%rbp), %rdi
LEHB200:
	call	__ZNKSs4sizeEv
	movq	%rax, %rsi
	addq	-24(%rbp), %rsi
	movq	-56(%rbp), %rdi
	call	__ZNSs7reserveEm
	.loc 21 683 0
	movq	-56(%rbp), %rdi
	movq	-24(%rbp), %rdx
	movq	-40(%rbp), %rsi
	call	__ZNSs6appendEPKcm
	.loc 21 684 0
	movq	-56(%rbp), %rdi
	movq	-48(%rbp), %rsi
	call	__ZNSs6appendERKSs
LEHE200:
	jmp	L1531
L1534:
	movq	%rax, -64(%rbp)
L1532:
	movq	-64(%rbp), %rbx
	.loc 21 685 0
	movq	-56(%rbp), %rdi
	call	__ZNSsD1Ev
	movq	%rbx, -64(%rbp)
	movq	-64(%rbp), %rdi
LEHB201:
	call	__Unwind_Resume
LEHE201:
L1531:
LBE142:
	movq	-56(%rbp), %rax
	addq	$56, %rsp
	popq	%rbx
	leave
	ret
LFE2180:
	.section __TEXT,__gcc_except_tab
GCC_except_table49:
LLSDA2180:
	.byte	0xff
	.byte	0xff
	.byte	0x3
	.byte	0x27
	.set L$set$498,LEHB199-LFB2180
	.long L$set$498
	.set L$set$499,LEHE199-LEHB199
	.long L$set$499
	.long	0x0
	.byte	0x0
	.set L$set$500,LEHB200-LFB2180
	.long L$set$500
	.set L$set$501,LEHE200-LEHB200
	.long L$set$501
	.set L$set$502,L1534-LFB2180
	.long L$set$502
	.byte	0x0
	.set L$set$503,LEHB201-LFB2180
	.long L$set$503
	.set L$set$504,LEHE201-LEHB201
	.long L$set$504
	.long	0x0
	.byte	0x0
	.section __TEXT,__textcoal_nt,coalesced,pure_instructions
	.cstring
LC17:
	.ascii "vector::_M_range_check\0"
	.section __TEXT,__textcoal_nt,coalesced,pure_instructions
	.align 1
.globl __ZNKSt6vectorIS_ISsSaISsEESaIS1_EE14_M_range_checkEm
	.weak_definition __ZNKSt6vectorIS_ISsSaISsEESaIS1_EE14_M_range_checkEm
	.private_extern __ZNKSt6vectorIS_ISsSaISsEESaIS1_EE14_M_range_checkEm
__ZNKSt6vectorIS_ISsSaISsEESaIS1_EE14_M_range_checkEm:
LFB2321:
	.loc 8 498 0
	nop
	nop
	nop
	nop
	nop
	nop
	pushq	%rbp
LCFI1285:
	movq	%rsp, %rbp
LCFI1286:
	subq	$16, %rsp
LCFI1287:
	movq	%rdi, -8(%rbp)
	movq	%rsi, -16(%rbp)
	.loc 8 500 0
	movq	-8(%rbp), %rdi
	call	__ZNKSt6vectorIS_ISsSaISsEESaIS1_EE4sizeEv
	cmpq	-16(%rbp), %rax
	setbe	%al
	testb	%al, %al
	je	L1538
	.loc 8 501 0
	leaq	LC17(%rip), %rdi
	call	__ZSt20__throw_out_of_rangePKc
L1538:
	leave
	ret
LFE2321:
	.align 1
.globl __ZNSt6vectorIS_ISsSaISsEESaIS1_EE2atEm
	.weak_definition __ZNSt6vectorIS_ISsSaISsEESaIS1_EE2atEm
	.private_extern __ZNSt6vectorIS_ISsSaISsEESaIS1_EE2atEm
__ZNSt6vectorIS_ISsSaISsEESaIS1_EE2atEm:
LFB2116:
	.loc 8 517 0
	nop
	nop
	nop
	nop
	nop
	nop
	pushq	%rbp
LCFI1288:
	movq	%rsp, %rbp
LCFI1289:
	subq	$16, %rsp
LCFI1290:
	movq	%rdi, -8(%rbp)
	movq	%rsi, -16(%rbp)
	.loc 8 519 0
	movq	-16(%rbp), %rsi
	movq	-8(%rbp), %rdi
	call	__ZNKSt6vectorIS_ISsSaISsEESaIS1_EE14_M_range_checkEm
	.loc 8 520 0
	movq	-16(%rbp), %rsi
	movq	-8(%rbp), %rdi
	call	__ZNSt6vectorIS_ISsSaISsEESaIS1_EEixEm
	leave
	ret
LFE2116:
	.align 1
.globl __ZNKSt6vectorISsSaISsEE14_M_range_checkEm
	.weak_definition __ZNKSt6vectorISsSaISsEE14_M_range_checkEm
	.private_extern __ZNKSt6vectorISsSaISsEE14_M_range_checkEm
__ZNKSt6vectorISsSaISsEE14_M_range_checkEm:
LFB2316:
	.loc 8 498 0
	nop
	nop
	nop
	nop
	nop
	nop
	pushq	%rbp
LCFI1291:
	movq	%rsp, %rbp
LCFI1292:
	subq	$16, %rsp
LCFI1293:
	movq	%rdi, -8(%rbp)
	movq	%rsi, -16(%rbp)
	.loc 8 500 0
	movq	-8(%rbp), %rdi
	call	__ZNKSt6vectorISsSaISsEE4sizeEv
	cmpq	-16(%rbp), %rax
	setbe	%al
	testb	%al, %al
	je	L1544
	.loc 8 501 0
	leaq	LC17(%rip), %rdi
	call	__ZSt20__throw_out_of_rangePKc
L1544:
	leave
	ret
LFE2316:
	.align 1
.globl __ZNSt6vectorISsSaISsEE2atEm
	.weak_definition __ZNSt6vectorISsSaISsEE2atEm
	.private_extern __ZNSt6vectorISsSaISsEE2atEm
__ZNSt6vectorISsSaISsEE2atEm:
LFB2108:
	.loc 8 517 0
	nop
	nop
	nop
	nop
	nop
	nop
	pushq	%rbp
LCFI1294:
	movq	%rsp, %rbp
LCFI1295:
	subq	$16, %rsp
LCFI1296:
	movq	%rdi, -8(%rbp)
	movq	%rsi, -16(%rbp)
	.loc 8 519 0
	movq	-16(%rbp), %rsi
	movq	-8(%rbp), %rdi
	call	__ZNKSt6vectorISsSaISsEE14_M_range_checkEm
	.loc 8 520 0
	movq	-16(%rbp), %rsi
	movq	-8(%rbp), %rdi
	call	__ZNSt6vectorISsSaISsEEixEm
	leave
	ret
LFE2108:
	.cstring
LC18:
	.ascii "/db.txt\0"
LC19:
	.ascii " = \0"
LC20:
	.ascii " \0"
LC21:
	.ascii "CREATE \0"
LC22:
	.ascii " (\0"
LC23:
	.ascii ",\0"
LC24:
	.ascii ")\0"
LC25:
	.ascii "INSERT into \0"
LC26:
	.ascii " VALUES(\0"
LC27:
	.ascii "table \0"
LC28:
	.ascii " was successfully created\0"
	.align 3
LC29:
	.ascii "values successfully inserted into \0"
LC30:
	.ascii " rows deleted from \0"
LC31:
	.ascii "shutting down..\0"
	.text
.globl _main
_main:
LFB1994:
	.loc 7 92 0
	nop
	nop
	nop
	nop
	nop
	nop
	pushq	%rbp
LCFI1297:
	movq	%rsp, %rbp
LCFI1298:
	pushq	%rbx
LCFI1299:
	subq	$4360, %rsp
LCFI1300:
	movl	%edi, -4100(%rbp)
	movq	%rsi, -4112(%rbp)
	.loc 7 92 0
	movq	___stack_chk_guard@GOTPCREL(%rip), %rax
	movq	(%rax), %rdx
	movq	%rdx, -24(%rbp)
	xorl	%edx, %edx
LBB143:
	.loc 7 93 0
	leaq	-944(%rbp), %rdi
LEHB202:
	call	__ZNSt13basic_fstreamIcSt11char_traitsIcEEC1Ev
LEHE202:
	.loc 7 94 0
	movl	$16, %esi
	movl	$8, %edi
	call	__ZStorSt13_Ios_OpenmodeS_
	leaq	-944(%rbp), %rdi
	movl	%eax, %edx
	leaq	LC18(%rip), %rsi
LEHB203:
	call	__ZNSt13basic_fstreamIcSt11char_traitsIcEE4openEPKcSt13_Ios_Openmode
	.loc 7 95 0
	movb	$1, -1857(%rbp)
L1548:
	.loc 7 98 0
	leaq	-944(%rbp), %rax
	leaq	648(%rax), %rdi
	call	__ZNKSt9basic_iosIcSt11char_traitsIcEE3eofEv
	xorl	$1, %eax
	movb	%al, -1857(%rbp)
	.loc 7 100 0
	cmpb	$0, -1857(%rbp)
	je	L1549
	.loc 7 101 0
	leaq	-944(%rbp), %rdi
	movl	$10, %edx
	movq	_buffer@GOTPCREL(%rip), %rsi
	call	__ZSt7getlineIcSt11char_traitsIcESaIcEERSt13basic_istreamIT_T0_ES7_RSbIS4_S5_T1_ES4_
	jmp	L1551
L1549:
	.loc 7 103 0
	movl	$10, %edx
	movq	_buffer@GOTPCREL(%rip), %rsi
	movq	__ZSt3cin@GOTPCREL(%rip), %rdi
	call	__ZSt7getlineIcSt11char_traitsIcESaIcEERSt13basic_istreamIT_T0_ES7_RSbIS4_S5_T1_ES4_
L1551:
	.loc 7 105 0
	movq	_bi@GOTPCREL(%rip), %rax
	movl	$0, (%rax)
	.loc 7 107 0
	movb	$32, -1859(%rbp)
	movb	$44, -1858(%rbp)
	movq	_buffer@GOTPCREL(%rip), %rdi
	call	__ZNSs3endEv
	movq	%rax, -4352(%rbp)
	movq	_buffer@GOTPCREL(%rip), %rdi
	call	__ZNSs5beginEv
	movq	%rax, %rdi
	leaq	-1859(%rbp), %rcx
	leaq	-1858(%rbp), %rdx
	movq	-4352(%rbp), %rsi
	call	__ZSt7replaceIN9__gnu_cxx17__normal_iteratorIPcSsEEcEvT_S4_RKT0_S7_
	.loc 7 108 0
	movb	$32, -1861(%rbp)
	movb	$40, -1860(%rbp)
	movq	_buffer@GOTPCREL(%rip), %rdi
	call	__ZNSs3endEv
	movq	%rax, -4344(%rbp)
	movq	_buffer@GOTPCREL(%rip), %rdi
	call	__ZNSs5beginEv
	movq	%rax, %rdi
	leaq	-1861(%rbp), %rcx
	leaq	-1860(%rbp), %rdx
	movq	-4344(%rbp), %rsi
	call	__ZSt7replaceIN9__gnu_cxx17__normal_iteratorIPcSsEEcEvT_S4_RKT0_S7_
	.loc 7 109 0
	movb	$32, -1863(%rbp)
	movb	$39, -1862(%rbp)
	movq	_buffer@GOTPCREL(%rip), %rdi
	call	__ZNSs3endEv
	movq	%rax, -4336(%rbp)
	movq	_buffer@GOTPCREL(%rip), %rdi
	call	__ZNSs5beginEv
	movq	%rax, %rdi
	leaq	-1863(%rbp), %rcx
	leaq	-1862(%rbp), %rdx
	movq	-4336(%rbp), %rsi
	call	__ZSt7replaceIN9__gnu_cxx17__normal_iteratorIPcSsEEcEvT_S4_RKT0_S7_
	.loc 7 110 0
	movb	$32, -1865(%rbp)
	movb	$41, -1864(%rbp)
	movq	_buffer@GOTPCREL(%rip), %rdi
	call	__ZNSs3endEv
	movq	%rax, -4328(%rbp)
	movq	_buffer@GOTPCREL(%rip), %rdi
	call	__ZNSs5beginEv
	movq	%rax, %rdi
	leaq	-1865(%rbp), %rcx
	leaq	-1864(%rbp), %rdx
	movq	-4328(%rbp), %rsi
	call	__ZSt7replaceIN9__gnu_cxx17__normal_iteratorIPcSsEEcEvT_S4_RKT0_S7_
	.loc 7 112 0
	leaq	-1936(%rbp), %rdi
	call	__Z4nextv
LEHE203:
	leaq	-1936(%rbp), %rsi
	movq	_cmd@GOTPCREL(%rip), %rdi
LEHB204:
	call	__ZNSsaSERKSs
LEHE204:
	leaq	-1936(%rbp), %rdi
LEHB205:
	call	__ZNSsD1Ev
LEHE205:
	jmp	L1552
L1979:
	movq	%rax, -4360(%rbp)
L1553:
	movq	-4360(%rbp), %rbx
	leaq	-1936(%rbp), %rdi
	call	__ZNSsD1Ev
	movq	%rbx, -4360(%rbp)
	jmp	L1887
L1552:
	.loc 7 115 0
	leaq	-1968(%rbp), %rdi
	movq	_SELECT_CMD@GOTPCREL(%rip), %rsi
LEHB206:
	call	__ZNSsC1ERKSs
LEHE206:
	leaq	-1952(%rbp), %rdi
	movq	_cmd@GOTPCREL(%rip), %rsi
LEHB207:
	call	__ZNSsC1ERKSs
LEHE207:
	leaq	-1968(%rbp), %rsi
	leaq	-1952(%rbp), %rdi
LEHB208:
	call	__Z2eqSsSs
LEHE208:
	movb	%al, -4320(%rbp)
	leaq	-1952(%rbp), %rdi
LEHB209:
	call	__ZNSsD1Ev
LEHE209:
	jmp	L1554
L1977:
	movq	%rax, -4360(%rbp)
L1555:
	movq	-4360(%rbp), %rbx
	leaq	-1952(%rbp), %rdi
	call	__ZNSsD1Ev
	movq	%rbx, -4360(%rbp)
	jmp	L1557
L1554:
	leaq	-1968(%rbp), %rdi
LEHB210:
	call	__ZNSsD1Ev
LEHE210:
	jmp	L1556
L1978:
	movq	%rax, -4360(%rbp)
L1557:
	movq	-4360(%rbp), %rbx
	leaq	-1968(%rbp), %rdi
	call	__ZNSsD1Ev
	movq	%rbx, -4360(%rbp)
	jmp	L1887
L1556:
	cmpb	$0, -4320(%rbp)
	je	L1558
LBB144:
	.loc 7 116 0
	leaq	-1866(%rbp), %rdi
	call	__ZNSaISsEC1Ev
	leaq	-1866(%rbp), %rsi
	leaq	-3184(%rbp), %rdi
	call	__ZNSt6vectorISsSaISsEEC1ERKS0_
	leaq	-1866(%rbp), %rdi
	call	__ZNSaISsED1Ev
	.loc 7 117 0
	leaq	-1984(%rbp), %rdi
LEHB211:
	call	__Z4nextv
LEHE211:
	leaq	-1984(%rbp), %rsi
	movq	_token@GOTPCREL(%rip), %rdi
LEHB212:
	call	__ZNSsaSERKSs
LEHE212:
	leaq	-1984(%rbp), %rdi
LEHB213:
	call	__ZNSsD1Ev
LEHE213:
	jmp	L1562
L1975:
	movq	%rax, -4360(%rbp)
L1561:
	movq	-4360(%rbp), %rbx
	leaq	-1984(%rbp), %rdi
	call	__ZNSsD1Ev
	movq	%rbx, -4360(%rbp)
	jmp	L1685
L1563:
	.loc 7 120 0
	leaq	-3184(%rbp), %rdi
	movq	_token@GOTPCREL(%rip), %rsi
LEHB214:
	call	__ZNSt6vectorISsSaISsEE9push_backERKSs
	.loc 7 121 0
	leaq	-2032(%rbp), %rdi
	call	__Z4nextv
LEHE214:
	leaq	-2032(%rbp), %rsi
	movq	_token@GOTPCREL(%rip), %rdi
LEHB215:
	call	__ZNSsaSERKSs
LEHE215:
	leaq	-2032(%rbp), %rdi
LEHB216:
	call	__ZNSsD1Ev
LEHE216:
	jmp	L1562
L1974:
	movq	%rax, -4360(%rbp)
L1564:
	movq	-4360(%rbp), %rbx
	leaq	-2032(%rbp), %rdi
	call	__ZNSsD1Ev
	movq	%rbx, -4360(%rbp)
	jmp	L1685
L1562:
	.loc 7 119 0
	leaq	-2016(%rbp), %rdi
	movq	_FROM_EXPR@GOTPCREL(%rip), %rsi
LEHB217:
	call	__ZNSsC1ERKSs
LEHE217:
	leaq	-2000(%rbp), %rdi
	movq	_token@GOTPCREL(%rip), %rsi
LEHB218:
	call	__ZNSsC1ERKSs
LEHE218:
	leaq	-2016(%rbp), %rsi
	leaq	-2000(%rbp), %rdi
LEHB219:
	call	__Z2eqSsSs
LEHE219:
	movl	%eax, %edx
	xorl	$1, %edx
	movb	%dl, -4319(%rbp)
	leaq	-2000(%rbp), %rdi
LEHB220:
	call	__ZNSsD1Ev
LEHE220:
	jmp	L1565
L1972:
	movq	%rax, -4360(%rbp)
L1566:
	movq	-4360(%rbp), %rbx
	leaq	-2000(%rbp), %rdi
	call	__ZNSsD1Ev
	movq	%rbx, -4360(%rbp)
	jmp	L1568
L1565:
	leaq	-2016(%rbp), %rdi
LEHB221:
	call	__ZNSsD1Ev
LEHE221:
	jmp	L1567
L1973:
	movq	%rax, -4360(%rbp)
L1568:
	movq	-4360(%rbp), %rbx
	leaq	-2016(%rbp), %rdi
	call	__ZNSsD1Ev
	movq	%rbx, -4360(%rbp)
	jmp	L1685
L1567:
	cmpb	$0, -4319(%rbp)
	jne	L1563
	.loc 7 124 0
	leaq	-2048(%rbp), %rdi
LEHB222:
	call	__Z4nextv
LEHE222:
	leaq	-2048(%rbp), %rsi
	movq	_tableName@GOTPCREL(%rip), %rdi
LEHB223:
	call	__ZNSsaSERKSs
LEHE223:
	leaq	-2048(%rbp), %rdi
LEHB224:
	call	__ZNSsD1Ev
LEHE224:
	jmp	L1570
L1971:
	movq	%rax, -4360(%rbp)
L1571:
	movq	-4360(%rbp), %rbx
	leaq	-2048(%rbp), %rdi
	call	__ZNSsD1Ev
	movq	%rbx, -4360(%rbp)
	jmp	L1685
L1570:
	.loc 7 125 0
	movq	_tableName@GOTPCREL(%rip), %rsi
	movq	_tables@GOTPCREL(%rip), %rdi
LEHB225:
	call	__ZNSt3mapISs5TableSt4lessISsESaISt4pairIKSsS0_EEEixERS4_
	movq	%rax, %rsi
	leaq	-3360(%rbp), %rdi
	call	__ZN5TableC1ERKS_
LEHE225:
	.loc 7 127 0
	movb	$0, -4316(%rbp)
	movb	$0, -4315(%rbp)
	leaq	-3184(%rbp), %rdi
	call	__ZNKSt6vectorISsSaISsEE4sizeEv
	cmpq	$1, %rax
	jne	L1572
	leaq	-2080(%rbp), %rdi
	movq	_ALL_LITERAL@GOTPCREL(%rip), %rsi
LEHB226:
	call	__ZNSsC1ERKSs
	movb	$1, -4316(%rbp)
	leaq	-3184(%rbp), %rdi
	movl	$0, %esi
	call	__ZNSt6vectorISsSaISsEE2atEm
	movq	%rax, %rsi
	leaq	-2064(%rbp), %rdi
	call	__ZNSsC1ERKSs
	movb	$1, -4315(%rbp)
	leaq	-2080(%rbp), %rsi
	leaq	-2064(%rbp), %rdi
	call	__Z2eqSsSs
LEHE226:
	xorl	$1, %eax
	testb	%al, %al
	jne	L1572
	movb	$1, -4317(%rbp)
	jmp	L1575
L1572:
	movb	$0, -4317(%rbp)
L1575:
	movzbl	-4317(%rbp), %eax
	movb	%al, -4318(%rbp)
	cmpb	$0, -4315(%rbp)
	jne	L1576
	jmp	L1577
L1968:
	movq	%rax, -4360(%rbp)
L1578:
	movq	-4360(%rbp), %rdx
	movq	%rdx, -4224(%rbp)
	cmpb	$0, -4315(%rbp)
	je	L1579
	leaq	-2064(%rbp), %rdi
	call	__ZNSsD1Ev
L1579:
	movq	-4224(%rbp), %rax
	movq	%rax, -4360(%rbp)
	jmp	L1583
L1576:
	leaq	-2064(%rbp), %rdi
LEHB227:
	call	__ZNSsD1Ev
LEHE227:
L1577:
	cmpb	$0, -4316(%rbp)
	jne	L1581
	jmp	L1582
L1969:
	movq	%rax, -4360(%rbp)
L1583:
	movq	-4360(%rbp), %rdx
	movq	%rdx, -4216(%rbp)
	cmpb	$0, -4316(%rbp)
	je	L1584
	leaq	-2080(%rbp), %rdi
	call	__ZNSsD1Ev
L1584:
	movq	-4216(%rbp), %rax
	movq	%rax, -4360(%rbp)
	jmp	L1684
L1581:
	leaq	-2080(%rbp), %rdi
LEHB228:
	call	__ZNSsD1Ev
L1582:
	cmpb	$0, -4318(%rbp)
	je	L1586
	.loc 7 128 0
	leaq	-3184(%rbp), %rdi
	call	__ZNSt6vectorISsSaISsEE5clearEv
	.loc 7 129 0
	leaq	-3360(%rbp), %rdi
	call	__ZNSt3mapISsiSt4lessISsESaISt4pairIKSsiEEE5beginEv
	movq	%rax, %rdx
	movq	_jt@GOTPCREL(%rip), %rax
	movq	%rdx, (%rax)
	jmp	L1588
L1589:
	.loc 7 130 0
	movq	_jt@GOTPCREL(%rip), %rdi
	call	__ZNKSt17_Rb_tree_iteratorISt4pairIKSsiEEdeEv
	movq	%rax, %rsi
	leaq	-3184(%rbp), %rdi
	call	__ZNSt6vectorISsSaISsEE9push_backERKSs
	.loc 7 129 0
	movl	$0, %esi
	movq	_jt@GOTPCREL(%rip), %rdi
	call	__ZNSt17_Rb_tree_iteratorISt4pairIKSsiEEppEi
LEHE228:
L1588:
	leaq	-3360(%rbp), %rdi
	call	__ZNSt3mapISsiSt4lessISsESaISt4pairIKSsiEEE3endEv
	movq	%rax, -2096(%rbp)
	leaq	-2096(%rbp), %rsi
	movq	_jt@GOTPCREL(%rip), %rdi
	call	__ZNKSt17_Rb_tree_iteratorISt4pairIKSsiEEneERKS3_
	testb	%al, %al
	jne	L1589
L1586:
	.loc 7 134 0
	leaq	-1867(%rbp), %rdi
	call	__ZNSaISsEC1Ev
	leaq	-1867(%rbp), %rsi
	leaq	-3152(%rbp), %rdi
	call	__ZNSt6vectorISsSaISsEEC1ERKS0_
	leaq	-1867(%rbp), %rdi
	call	__ZNSaISsED1Ev
LEHB229:
	.loc 7 135 0
	call	__Z7hasNextv
	testb	%al, %al
	je	L1590
	.loc 7 136 0
	leaq	-2112(%rbp), %rdi
	call	__Z4nextv
LEHE229:
	leaq	-2112(%rbp), %rsi
	movq	_token@GOTPCREL(%rip), %rdi
LEHB230:
	call	__ZNSsaSERKSs
LEHE230:
	leaq	-2112(%rbp), %rdi
LEHB231:
	call	__ZNSsD1Ev
LEHE231:
	jmp	L1590
L1966:
	movq	%rax, -4360(%rbp)
L1592:
	movq	-4360(%rbp), %rbx
	leaq	-2112(%rbp), %rdi
	call	__ZNSsD1Ev
	movq	%rbx, -4360(%rbp)
	jmp	L1682
L1590:
	.loc 7 139 0
	leaq	-2144(%rbp), %rdi
	movq	_WHERE_EXPR@GOTPCREL(%rip), %rsi
LEHB232:
	call	__ZNSsC1ERKSs
LEHE232:
	leaq	-2128(%rbp), %rdi
	movq	_token@GOTPCREL(%rip), %rsi
LEHB233:
	call	__ZNSsC1ERKSs
LEHE233:
	leaq	-2144(%rbp), %rsi
	leaq	-2128(%rbp), %rdi
LEHB234:
	call	__Z2eqSsSs
LEHE234:
	movb	%al, -4314(%rbp)
	leaq	-2128(%rbp), %rdi
LEHB235:
	call	__ZNSsD1Ev
LEHE235:
	jmp	L1593
L1964:
	movq	%rax, -4360(%rbp)
L1594:
	movq	-4360(%rbp), %rbx
	leaq	-2128(%rbp), %rdi
	call	__ZNSsD1Ev
	movq	%rbx, -4360(%rbp)
	jmp	L1596
L1593:
	leaq	-2144(%rbp), %rdi
LEHB236:
	call	__ZNSsD1Ev
LEHE236:
	jmp	L1595
L1965:
	movq	%rax, -4360(%rbp)
L1596:
	movq	-4360(%rbp), %rbx
	leaq	-2144(%rbp), %rdi
	call	__ZNSsD1Ev
	movq	%rbx, -4360(%rbp)
	jmp	L1682
L1595:
	cmpb	$0, -4314(%rbp)
	je	L1597
	.loc 7 140 0
	jmp	L1599
L1600:
	.loc 7 141 0
	leaq	-2160(%rbp), %rdi
LEHB237:
	call	__Z4nextv
LEHE237:
	leaq	-2160(%rbp), %rsi
	movq	_token@GOTPCREL(%rip), %rdi
LEHB238:
	call	__ZNSsaSERKSs
LEHE238:
	leaq	-2160(%rbp), %rdi
LEHB239:
	call	__ZNSsD1Ev
LEHE239:
	jmp	L1601
L1963:
	movq	%rax, -4360(%rbp)
L1602:
	movq	-4360(%rbp), %rbx
	leaq	-2160(%rbp), %rdi
	call	__ZNSsD1Ev
	movq	%rbx, -4360(%rbp)
	jmp	L1682
L1601:
	.loc 7 142 0
	leaq	-2192(%rbp), %rdi
	movq	_AND_STATEMENT@GOTPCREL(%rip), %rsi
LEHB240:
	call	__ZNSsC1ERKSs
LEHE240:
	leaq	-2176(%rbp), %rdi
	movq	_token@GOTPCREL(%rip), %rsi
LEHB241:
	call	__ZNSsC1ERKSs
LEHE241:
	leaq	-2192(%rbp), %rsi
	leaq	-2176(%rbp), %rdi
LEHB242:
	call	__Z2eqSsSs
LEHE242:
	movl	%eax, %edx
	xorl	$1, %edx
	movb	%dl, -4313(%rbp)
	leaq	-2176(%rbp), %rdi
LEHB243:
	call	__ZNSsD1Ev
LEHE243:
	jmp	L1603
L1961:
	movq	%rax, -4360(%rbp)
L1604:
	movq	-4360(%rbp), %rbx
	leaq	-2176(%rbp), %rdi
	call	__ZNSsD1Ev
	movq	%rbx, -4360(%rbp)
	jmp	L1606
L1603:
	leaq	-2192(%rbp), %rdi
LEHB244:
	call	__ZNSsD1Ev
LEHE244:
	jmp	L1605
L1962:
	movq	%rax, -4360(%rbp)
L1606:
	movq	-4360(%rbp), %rbx
	leaq	-2192(%rbp), %rdi
	call	__ZNSsD1Ev
	movq	%rbx, -4360(%rbp)
	jmp	L1682
L1605:
	cmpb	$0, -4313(%rbp)
	je	L1599
	.loc 7 143 0
	leaq	-3152(%rbp), %rdi
	movq	_token@GOTPCREL(%rip), %rsi
LEHB245:
	call	__ZNSt6vectorISsSaISsEE9push_backERKSs
L1599:
	.loc 7 140 0
	call	__Z7hasNextv
	testb	%al, %al
	jne	L1600
L1597:
LBB145:
	.loc 7 147 0
	movl	$0, -1876(%rbp)
	jmp	L1608
L1609:
LBB146:
	.loc 7 148 0
	movl	-1876(%rbp), %eax
	movslq	%eax,%rsi
	leaq	-3360(%rbp), %rax
	leaq	144(%rax), %rdi
	call	__ZNSt6vectorIS_ISsSaISsEESaIS1_EE2atEm
	movq	%rax, %rsi
	movq	_r@GOTPCREL(%rip), %rdi
	call	__ZNSt6vectorISsSaISsEEaSERKS1_
	.loc 7 150 0
	movb	$1, -1868(%rbp)
LBB147:
	.loc 7 152 0
	movl	$0, -1880(%rbp)
	jmp	L1610
L1611:
LBB148:
	.loc 7 153 0
	movl	-1880(%rbp), %eax
	movslq	%eax,%rsi
	leaq	-3152(%rbp), %rdi
	call	__ZNSt6vectorISsSaISsEE2atEm
	movq	%rax, %rsi
	leaq	-2928(%rbp), %rdi
	call	__ZNSsC1ERKSs
LEHE245:
	incl	-1880(%rbp)
	.loc 7 154 0
	movl	-1880(%rbp), %eax
	movslq	%eax,%rsi
	leaq	-3152(%rbp), %rdi
LEHB246:
	call	__ZNSt6vectorISsSaISsEE2atEm
	movq	%rax, %rsi
	leaq	-2912(%rbp), %rdi
	call	__ZNSsC1ERKSs
LEHE246:
	incl	-1880(%rbp)
	.loc 7 155 0
	movl	-1880(%rbp), %eax
	movslq	%eax,%rsi
	leaq	-3152(%rbp), %rdi
LEHB247:
	call	__ZNSt6vectorISsSaISsEE2atEm
	movq	%rax, %rsi
	leaq	-2896(%rbp), %rdi
	call	__ZNSsC1ERKSs
LEHE247:
	.loc 7 156 0
	leaq	-2928(%rbp), %rsi
	leaq	-3360(%rbp), %rdi
LEHB248:
	call	__ZNSt3mapISsiSt4lessISsESaISt4pairIKSsiEEEixERS3_
	movl	(%rax), %eax
	movslq	%eax,%rsi
	movq	_r@GOTPCREL(%rip), %rdi
	call	__ZNSt6vectorISsSaISsEE2atEm
	movq	%rax, %rsi
	leaq	-2880(%rbp), %rdi
	call	__ZNSsC1ERKSs
LEHE248:
	.loc 7 158 0
	leaq	-2224(%rbp), %rdi
	movq	_CND_EQ@GOTPCREL(%rip), %rsi
LEHB249:
	call	__ZNSsC1ERKSs
LEHE249:
	leaq	-2912(%rbp), %rsi
	leaq	-2208(%rbp), %rdi
LEHB250:
	call	__ZNSsC1ERKSs
LEHE250:
	leaq	-2224(%rbp), %rsi
	leaq	-2208(%rbp), %rdi
LEHB251:
	call	__Z2eqSsSs
LEHE251:
	movb	%al, -4312(%rbp)
	leaq	-2208(%rbp), %rdi
LEHB252:
	call	__ZNSsD1Ev
LEHE252:
	jmp	L1612
L1955:
	movq	%rax, -4360(%rbp)
L1613:
	movq	-4360(%rbp), %rbx
	leaq	-2208(%rbp), %rdi
	call	__ZNSsD1Ev
	movq	%rbx, -4360(%rbp)
	jmp	L1615
L1612:
	leaq	-2224(%rbp), %rdi
LEHB253:
	call	__ZNSsD1Ev
LEHE253:
	jmp	L1614
L1956:
	movq	%rax, -4360(%rbp)
L1615:
	movq	-4360(%rbp), %rbx
	leaq	-2224(%rbp), %rdi
	call	__ZNSsD1Ev
	movq	%rbx, -4360(%rbp)
	jmp	L1659
L1614:
	cmpb	$0, -4312(%rbp)
	je	L1616
	.loc 7 159 0
	leaq	-2928(%rbp), %rsi
	leaq	-3360(%rbp), %rdi
LEHB254:
	call	__ZNSt3mapISsiSt4lessISsESaISt4pairIKSsiEEEixERS3_
	movl	(%rax), %eax
	movslq	%eax,%rsi
	movq	_r@GOTPCREL(%rip), %rdi
	call	__ZNSt6vectorISsSaISsEE2atEm
	movq	%rax, %rsi
	leaq	-2256(%rbp), %rdi
	call	__ZNSsC1ERKSs
LEHE254:
	leaq	-2896(%rbp), %rsi
	leaq	-2240(%rbp), %rdi
LEHB255:
	call	__ZNSsC1ERKSs
LEHE255:
	leaq	-2256(%rbp), %rsi
	leaq	-2240(%rbp), %rdi
LEHB256:
	call	__Z2eqSsSs
LEHE256:
	movb	%al, -1868(%rbp)
	leaq	-2240(%rbp), %rdi
LEHB257:
	call	__ZNSsD1Ev
LEHE257:
	jmp	L1618
L1953:
	movq	%rax, -4360(%rbp)
L1619:
	movq	-4360(%rbp), %rbx
	leaq	-2240(%rbp), %rdi
	call	__ZNSsD1Ev
	movq	%rbx, -4360(%rbp)
	jmp	L1620
L1618:
	leaq	-2256(%rbp), %rdi
LEHB258:
	call	__ZNSsD1Ev
LEHE258:
	jmp	L1616
L1954:
	movq	%rax, -4360(%rbp)
L1620:
	movq	-4360(%rbp), %rbx
	leaq	-2256(%rbp), %rdi
	call	__ZNSsD1Ev
	movq	%rbx, -4360(%rbp)
	jmp	L1659
L1616:
	.loc 7 162 0
	movb	$0, -4309(%rbp)
	movb	$0, -4308(%rbp)
	movb	$0, -4307(%rbp)
	movb	$0, -4306(%rbp)
	leaq	-2288(%rbp), %rdi
	movq	_CND_GE@GOTPCREL(%rip), %rsi
LEHB259:
	call	__ZNSsC1ERKSs
	movb	$1, -4309(%rbp)
	leaq	-2912(%rbp), %rsi
	leaq	-2272(%rbp), %rdi
	call	__ZNSsC1ERKSs
	movb	$1, -4308(%rbp)
	leaq	-2288(%rbp), %rsi
	leaq	-2272(%rbp), %rdi
	call	__Z2eqSsSs
	testb	%al, %al
	jne	L1621
	leaq	-2320(%rbp), %rdi
	movq	_CND_LE@GOTPCREL(%rip), %rsi
	call	__ZNSsC1ERKSs
	movb	$1, -4307(%rbp)
	leaq	-2912(%rbp), %rsi
	leaq	-2304(%rbp), %rdi
	call	__ZNSsC1ERKSs
	movb	$1, -4306(%rbp)
	leaq	-2320(%rbp), %rsi
	leaq	-2304(%rbp), %rdi
	call	__Z2eqSsSs
LEHE259:
	testb	%al, %al
	je	L1623
L1621:
	movb	$1, -4310(%rbp)
	jmp	L1624
L1623:
	movb	$0, -4310(%rbp)
L1624:
	movzbl	-4310(%rbp), %eax
	movb	%al, -4311(%rbp)
	cmpb	$0, -4306(%rbp)
	jne	L1625
	jmp	L1626
L1949:
	movq	%rax, -4360(%rbp)
L1627:
	movq	-4360(%rbp), %rdx
	movq	%rdx, -4208(%rbp)
	cmpb	$0, -4306(%rbp)
	je	L1628
	leaq	-2304(%rbp), %rdi
	call	__ZNSsD1Ev
L1628:
	movq	-4208(%rbp), %rax
	movq	%rax, -4360(%rbp)
	jmp	L1632
L1625:
	leaq	-2304(%rbp), %rdi
LEHB260:
	call	__ZNSsD1Ev
LEHE260:
L1626:
	cmpb	$0, -4307(%rbp)
	jne	L1630
	jmp	L1631
L1950:
	movq	%rax, -4360(%rbp)
L1632:
	movq	-4360(%rbp), %rdx
	movq	%rdx, -4200(%rbp)
	cmpb	$0, -4307(%rbp)
	je	L1633
	leaq	-2320(%rbp), %rdi
	call	__ZNSsD1Ev
L1633:
	movq	-4200(%rbp), %rax
	movq	%rax, -4360(%rbp)
	jmp	L1637
L1630:
	leaq	-2320(%rbp), %rdi
LEHB261:
	call	__ZNSsD1Ev
LEHE261:
L1631:
	cmpb	$0, -4308(%rbp)
	jne	L1635
	jmp	L1636
L1951:
	movq	%rax, -4360(%rbp)
L1637:
	movq	-4360(%rbp), %rdx
	movq	%rdx, -4192(%rbp)
	cmpb	$0, -4308(%rbp)
	je	L1638
	leaq	-2272(%rbp), %rdi
	call	__ZNSsD1Ev
L1638:
	movq	-4192(%rbp), %rax
	movq	%rax, -4360(%rbp)
	jmp	L1642
L1635:
	leaq	-2272(%rbp), %rdi
LEHB262:
	call	__ZNSsD1Ev
LEHE262:
L1636:
	cmpb	$0, -4309(%rbp)
	jne	L1640
	jmp	L1641
L1952:
	movq	%rax, -4360(%rbp)
L1642:
	movq	-4360(%rbp), %rdx
	movq	%rdx, -4184(%rbp)
	cmpb	$0, -4309(%rbp)
	je	L1643
	leaq	-2288(%rbp), %rdi
	call	__ZNSsD1Ev
L1643:
	movq	-4184(%rbp), %rax
	movq	%rax, -4360(%rbp)
	jmp	L1659
L1640:
	leaq	-2288(%rbp), %rdi
LEHB263:
	call	__ZNSsD1Ev
L1641:
	cmpb	$0, -4311(%rbp)
	je	L1645
LBB149:
	.loc 7 163 0
	leaq	-2880(%rbp), %rsi
	leaq	-4096(%rbp), %rdi
	movl	$8, %edx
	call	__ZNSt19basic_istringstreamIcSt11char_traitsIcESaIcEEC1ERKSsSt13_Ios_Openmode
LEHE263:
	.loc 7 165 0
	leaq	-1912(%rbp), %rsi
	leaq	-4096(%rbp), %rdi
LEHB264:
	call	__ZNSirsERi
	.loc 7 166 0
	leaq	-2896(%rbp), %rsi
	leaq	-3728(%rbp), %rdi
	movl	$8, %edx
	call	__ZNSt19basic_istringstreamIcSt11char_traitsIcESaIcEEC1ERKSsSt13_Ios_Openmode
LEHE264:
	.loc 7 168 0
	leaq	-1904(%rbp), %rsi
	leaq	-3728(%rbp), %rdi
LEHB265:
	call	__ZNSirsERi
	.loc 7 170 0
	movl	-1912(%rbp), %edx
	movl	-1904(%rbp), %eax
	cmpl	%eax, %edx
	setg	%al
	movb	%al, -1868(%rbp)
	.loc 7 171 0
	leaq	-2352(%rbp), %rdi
	movq	_CND_LE@GOTPCREL(%rip), %rsi
	call	__ZNSsC1ERKSs
LEHE265:
	leaq	-2912(%rbp), %rsi
	leaq	-2336(%rbp), %rdi
LEHB266:
	call	__ZNSsC1ERKSs
LEHE266:
	leaq	-2352(%rbp), %rsi
	leaq	-2336(%rbp), %rdi
LEHB267:
	call	__Z2eqSsSs
LEHE267:
	movb	%al, -4305(%rbp)
	leaq	-2336(%rbp), %rdi
LEHB268:
	call	__ZNSsD1Ev
LEHE268:
	jmp	L1647
L1945:
	movq	%rax, -4360(%rbp)
L1648:
	movq	-4360(%rbp), %rbx
	leaq	-2336(%rbp), %rdi
	call	__ZNSsD1Ev
	movq	%rbx, -4360(%rbp)
	jmp	L1650
L1647:
	leaq	-2352(%rbp), %rdi
LEHB269:
	call	__ZNSsD1Ev
LEHE269:
	jmp	L1649
L1946:
	movq	%rax, -4360(%rbp)
L1650:
	movq	-4360(%rbp), %rbx
	leaq	-2352(%rbp), %rdi
	call	__ZNSsD1Ev
	movq	%rbx, -4360(%rbp)
	jmp	L1654
L1649:
	cmpb	$0, -4305(%rbp)
	je	L1651
	.loc 7 172 0
	xorb	$1, -1868(%rbp)
L1651:
	.loc 7 173 0
	leaq	-3728(%rbp), %rdi
LEHB270:
	call	__ZNSt19basic_istringstreamIcSt11char_traitsIcESaIcEED1Ev
LEHE270:
	jmp	L1653
L1947:
	movq	%rax, -4360(%rbp)
L1654:
	movq	-4360(%rbp), %rbx
	leaq	-3728(%rbp), %rdi
	call	__ZNSt19basic_istringstreamIcSt11char_traitsIcESaIcEED1Ev
	movq	%rbx, -4360(%rbp)
	jmp	L1655
L1653:
	leaq	-4096(%rbp), %rdi
LEHB271:
	call	__ZNSt19basic_istringstreamIcSt11char_traitsIcESaIcEED1Ev
LEHE271:
	jmp	L1645
L1948:
	movq	%rax, -4360(%rbp)
L1655:
	movq	-4360(%rbp), %rbx
	leaq	-4096(%rbp), %rdi
	call	__ZNSt19basic_istringstreamIcSt11char_traitsIcESaIcEED1Ev
	movq	%rbx, -4360(%rbp)
	jmp	L1659
L1645:
LBE149:
	.loc 7 176 0
	movzbl	-1868(%rbp), %eax
	xorl	$1, %eax
	testb	%al, %al
	je	L1656
	movl	$0, -4176(%rbp)
	jmp	L1658
L1656:
	movl	$1, -4176(%rbp)
	jmp	L1658
L1957:
	movq	%rax, -4360(%rbp)
L1659:
	movq	-4360(%rbp), %rbx
	.loc 7 152 0
	leaq	-2880(%rbp), %rdi
	call	__ZNSsD1Ev
	movq	%rbx, -4360(%rbp)
	jmp	L1663
L1658:
	leaq	-2880(%rbp), %rdi
LEHB272:
	call	__ZNSsD1Ev
LEHE272:
	cmpl	$0, -4176(%rbp)
	je	L1661
	jmp	L1660
L1661:
	movl	$0, -4172(%rbp)
	jmp	L1662
L1660:
	movl	$1, -4172(%rbp)
	jmp	L1662
L1958:
	movq	%rax, -4360(%rbp)
L1663:
	movq	-4360(%rbp), %rbx
	leaq	-2896(%rbp), %rdi
	call	__ZNSsD1Ev
	movq	%rbx, -4360(%rbp)
	jmp	L1667
L1662:
	leaq	-2896(%rbp), %rdi
LEHB273:
	call	__ZNSsD1Ev
LEHE273:
	cmpl	$0, -4172(%rbp)
	je	L1665
	jmp	L1664
L1665:
	movl	$0, -4168(%rbp)
	jmp	L1666
L1664:
	movl	$1, -4168(%rbp)
	jmp	L1666
L1959:
	movq	%rax, -4360(%rbp)
L1667:
	movq	-4360(%rbp), %rbx
	leaq	-2912(%rbp), %rdi
	call	__ZNSsD1Ev
	movq	%rbx, -4360(%rbp)
	jmp	L1671
L1666:
	leaq	-2912(%rbp), %rdi
LEHB274:
	call	__ZNSsD1Ev
LEHE274:
	cmpl	$0, -4168(%rbp)
	je	L1669
	jmp	L1668
L1669:
	movl	$0, -4164(%rbp)
	jmp	L1670
L1668:
	movl	$1, -4164(%rbp)
	jmp	L1670
L1960:
	movq	%rax, -4360(%rbp)
L1671:
	movq	-4360(%rbp), %rbx
	leaq	-2928(%rbp), %rdi
	call	__ZNSsD1Ev
	movq	%rbx, -4360(%rbp)
	jmp	L1682
L1670:
	leaq	-2928(%rbp), %rdi
LEHB275:
	call	__ZNSsD1Ev
	cmpl	$0, -4164(%rbp)
	je	L1674
LBE148:
	incl	-1880(%rbp)
L1610:
	movl	-1880(%rbp), %eax
	movslq	%eax,%rbx
	leaq	-3152(%rbp), %rdi
	call	__ZNKSt6vectorISsSaISsEE4sizeEv
	cmpq	%rax, %rbx
	setb	%al
	testb	%al, %al
	jne	L1611
L1674:
LBE147:
	.loc 7 180 0
	cmpb	$0, -1868(%rbp)
	je	L1675
LBB150:
	.loc 7 181 0
	movl	$0, -1884(%rbp)
	jmp	L1677
L1678:
	.loc 7 182 0
	movl	-1884(%rbp), %eax
	movslq	%eax,%rsi
	leaq	-3184(%rbp), %rdi
	call	__ZNSt6vectorISsSaISsEE2atEm
	movq	%rax, %rsi
	leaq	-3360(%rbp), %rdi
	call	__ZNSt3mapISsiSt4lessISsESaISt4pairIKSsiEEEixERS3_
	movl	(%rax), %eax
	movslq	%eax,%rsi
	movq	_r@GOTPCREL(%rip), %rdi
	call	__ZNSt6vectorISsSaISsEE2atEm
	movq	%rax, -4304(%rbp)
	movl	-1884(%rbp), %eax
	movslq	%eax,%rsi
	leaq	-3184(%rbp), %rdi
	call	__ZNSt6vectorISsSaISsEE2atEm
	movq	%rax, %rsi
	movq	__ZSt4cout@GOTPCREL(%rip), %rdi
	call	__ZStlsIcSt11char_traitsIcESaIcEERSt13basic_ostreamIT_T0_ES7_RKSbIS4_S5_T1_E
	movq	%rax, %rdi
	leaq	LC19(%rip), %rsi
	call	__ZStlsISt11char_traitsIcEERSt13basic_ostreamIcT_ES5_PKc
	movq	%rax, %rdi
	movq	-4304(%rbp), %rsi
	call	__ZStlsIcSt11char_traitsIcESaIcEERSt13basic_ostreamIT_T0_ES7_RKSbIS4_S5_T1_E
	movq	%rax, %rdi
	leaq	LC20(%rip), %rsi
	call	__ZStlsISt11char_traitsIcEERSt13basic_ostreamIcT_ES5_PKc
	.loc 7 181 0
	incl	-1884(%rbp)
L1677:
	movl	-1884(%rbp), %eax
	movslq	%eax,%rbx
	leaq	-3184(%rbp), %rdi
	call	__ZNKSt6vectorISsSaISsEE4sizeEv
	cmpq	%rax, %rbx
	setb	%al
	testb	%al, %al
	jne	L1678
LBE150:
	.loc 7 184 0
	movq	__ZSt4endlIcSt11char_traitsIcEERSt13basic_ostreamIT_T0_ES6_@GOTPCREL(%rip), %rsi
	movq	__ZSt4cout@GOTPCREL(%rip), %rdi
	call	__ZNSolsEPFRSoS_E
L1675:
LBE146:
	.loc 7 147 0
	incl	-1876(%rbp)
L1608:
	movl	-1876(%rbp), %eax
	movslq	%eax,%rbx
	leaq	-3360(%rbp), %rax
	leaq	144(%rax), %rdi
	call	__ZNKSt6vectorIS_ISsSaISsEESaIS1_EE4sizeEv
	cmpq	%rax, %rbx
	setb	%al
	testb	%al, %al
	jne	L1609
LBE145:
	.loc 7 188 0
	movq	_r@GOTPCREL(%rip), %rdi
	call	__ZNSt6vectorISsSaISsEE5clearEv
LEHE275:
	leaq	-3152(%rbp), %rdi
LEHB276:
	call	__ZNSt6vectorISsSaISsEED1Ev
LEHE276:
	jmp	L1681
L1967:
	movq	%rax, -4360(%rbp)
L1682:
	movq	-4360(%rbp), %rbx
	leaq	-3152(%rbp), %rdi
	call	__ZNSt6vectorISsSaISsEED1Ev
	movq	%rbx, -4360(%rbp)
	jmp	L1684
L1681:
	leaq	-3360(%rbp), %rdi
LEHB277:
	call	__ZN5TableD1Ev
LEHE277:
	jmp	L1683
L1970:
	movq	%rax, -4360(%rbp)
L1684:
	movq	-4360(%rbp), %rbx
	leaq	-3360(%rbp), %rdi
	call	__ZN5TableD1Ev
	movq	%rbx, -4360(%rbp)
	jmp	L1685
L1683:
	leaq	-3184(%rbp), %rdi
LEHB278:
	call	__ZNSt6vectorISsSaISsEED1Ev
LEHE278:
	jmp	L1558
L1976:
	movq	%rax, -4360(%rbp)
L1685:
	movq	-4360(%rbp), %rbx
	leaq	-3184(%rbp), %rdi
	call	__ZNSt6vectorISsSaISsEED1Ev
	movq	%rbx, -4360(%rbp)
	jmp	L1887
L1558:
LBE144:
	.loc 7 192 0
	leaq	-2384(%rbp), %rdi
	movq	_DUMP_CMD@GOTPCREL(%rip), %rsi
LEHB279:
	call	__ZNSsC1ERKSs
LEHE279:
	leaq	-2368(%rbp), %rdi
	movq	_cmd@GOTPCREL(%rip), %rsi
LEHB280:
	call	__ZNSsC1ERKSs
LEHE280:
	leaq	-2384(%rbp), %rsi
	leaq	-2368(%rbp), %rdi
LEHB281:
	call	__Z2eqSsSs
LEHE281:
	movb	%al, -4289(%rbp)
	leaq	-2368(%rbp), %rdi
LEHB282:
	call	__ZNSsD1Ev
LEHE282:
	jmp	L1686
L1943:
	movq	%rax, -4360(%rbp)
L1687:
	movq	-4360(%rbp), %rbx
	leaq	-2368(%rbp), %rdi
	call	__ZNSsD1Ev
	movq	%rbx, -4360(%rbp)
	jmp	L1689
L1686:
	leaq	-2384(%rbp), %rdi
LEHB283:
	call	__ZNSsD1Ev
LEHE283:
	jmp	L1688
L1944:
	movq	%rax, -4360(%rbp)
L1689:
	movq	-4360(%rbp), %rbx
	leaq	-2384(%rbp), %rdi
	call	__ZNSsD1Ev
	movq	%rbx, -4360(%rbp)
	jmp	L1887
L1688:
	cmpb	$0, -4289(%rbp)
	je	L1690
	.loc 7 193 0
	movq	_tables@GOTPCREL(%rip), %rdi
	call	__ZNSt3mapISs5TableSt4lessISsESaISt4pairIKSsS0_EEE5beginEv
	movq	%rax, %rdx
	movq	_it@GOTPCREL(%rip), %rax
	movq	%rdx, (%rax)
	jmp	L1692
L1693:
LBB151:
	.loc 7 194 0
	movq	_it@GOTPCREL(%rip), %rdi
	call	__ZNKSt17_Rb_tree_iteratorISt4pairIKSs5TableEEdeEv
	movq	%rax, -4288(%rbp)
	leaq	LC21(%rip), %rsi
	movq	__ZSt4cout@GOTPCREL(%rip), %rdi
LEHB284:
	call	__ZStlsISt11char_traitsIcEERSt13basic_ostreamIcT_ES5_PKc
	movq	%rax, %rdi
	movq	-4288(%rbp), %rsi
	call	__ZStlsIcSt11char_traitsIcESaIcEERSt13basic_ostreamIT_T0_ES7_RKSbIS4_S5_T1_E
	movq	%rax, %rdi
	leaq	LC22(%rip), %rsi
	call	__ZStlsISt11char_traitsIcEERSt13basic_ostreamIcT_ES5_PKc
	.loc 7 195 0
	movq	_it@GOTPCREL(%rip), %rdi
	call	__ZNKSt17_Rb_tree_iteratorISt4pairIKSs5TableEEdeEv
	leaq	8(%rax), %rsi
	leaq	-3360(%rbp), %rdi
	call	__ZN5TableC1ERKS_
LEHE284:
LBB152:
	.loc 7 197 0
	movl	$0, -1904(%rbp)
	jmp	L1694
L1695:
	.loc 7 198 0
	leaq	-1904(%rbp), %rsi
	leaq	-3360(%rbp), %rax
	leaq	48(%rax), %rdi
LEHB285:
	call	__ZNSt3mapIiSsSt4lessIiESaISt4pairIKiSsEEEixERS3_
	movq	%rax, -4280(%rbp)
	leaq	-1904(%rbp), %rsi
	leaq	-3360(%rbp), %rax
	leaq	96(%rax), %rdi
	call	__ZNSt3mapIiSsSt4lessIiESaISt4pairIKiSsEEEixERS3_
	movq	%rax, %rsi
	movq	__ZSt4cout@GOTPCREL(%rip), %rdi
	call	__ZStlsIcSt11char_traitsIcESaIcEERSt13basic_ostreamIT_T0_ES7_RKSbIS4_S5_T1_E
	movq	%rax, %rdi
	leaq	LC20(%rip), %rsi
	call	__ZStlsISt11char_traitsIcEERSt13basic_ostreamIcT_ES5_PKc
	movq	%rax, %rdi
	movq	-4280(%rbp), %rsi
	call	__ZStlsIcSt11char_traitsIcESaIcEERSt13basic_ostreamIT_T0_ES7_RKSbIS4_S5_T1_E
	.loc 7 199 0
	movl	-1904(%rbp), %eax
	incl	%eax
	movslq	%eax,%rbx
	leaq	-3360(%rbp), %rax
	leaq	48(%rax), %rdi
	call	__ZNKSt3mapIiSsSt4lessIiESaISt4pairIKiSsEEE4sizeEv
	cmpq	%rax, %rbx
	setne	%al
	testb	%al, %al
	je	L1696
	leaq	LC23(%rip), %rsi
	movq	__ZSt4cout@GOTPCREL(%rip), %rdi
	call	__ZStlsISt11char_traitsIcEERSt13basic_ostreamIcT_ES5_PKc
L1696:
	.loc 7 197 0
	movl	-1904(%rbp), %eax
	incl	%eax
	movl	%eax, -1904(%rbp)
L1694:
	movl	-1904(%rbp), %eax
	movslq	%eax,%rbx
	leaq	-3360(%rbp), %rax
	leaq	48(%rax), %rdi
	call	__ZNKSt3mapIiSsSt4lessIiESaISt4pairIKiSsEEE4sizeEv
	cmpq	%rax, %rbx
	setb	%al
	testb	%al, %al
	jne	L1695
LBE152:
	.loc 7 201 0
	leaq	LC24(%rip), %rsi
	movq	__ZSt4cout@GOTPCREL(%rip), %rdi
	call	__ZStlsISt11char_traitsIcEERSt13basic_ostreamIcT_ES5_PKc
	movq	%rax, %rdi
	movq	__ZSt4endlIcSt11char_traitsIcEERSt13basic_ostreamIT_T0_ES6_@GOTPCREL(%rip), %rsi
	call	__ZNSolsEPFRSoS_E
LBB153:
	.loc 7 203 0
	movl	$0, -1888(%rbp)
	jmp	L1699
L1700:
	.loc 7 204 0
	movl	-1888(%rbp), %eax
	movslq	%eax,%rsi
	leaq	-3360(%rbp), %rax
	leaq	144(%rax), %rdi
	call	__ZNSt6vectorIS_ISsSaISsEESaIS1_EE2atEm
	movq	%rax, %rsi
	movq	_r@GOTPCREL(%rip), %rdi
	call	__ZNSt6vectorISsSaISsEEaSERKS1_
	.loc 7 206 0
	movq	_it@GOTPCREL(%rip), %rdi
	call	__ZNKSt17_Rb_tree_iteratorISt4pairIKSs5TableEEdeEv
	movq	%rax, -4272(%rbp)
	leaq	LC25(%rip), %rsi
	movq	__ZSt4cout@GOTPCREL(%rip), %rdi
	call	__ZStlsISt11char_traitsIcEERSt13basic_ostreamIcT_ES5_PKc
	movq	%rax, %rdi
	movq	-4272(%rbp), %rsi
	call	__ZStlsIcSt11char_traitsIcESaIcEERSt13basic_ostreamIT_T0_ES7_RKSbIS4_S5_T1_E
	movq	%rax, %rdi
	leaq	LC26(%rip), %rsi
	call	__ZStlsISt11char_traitsIcEERSt13basic_ostreamIcT_ES5_PKc
LBB154:
	.loc 7 207 0
	movl	$0, -1892(%rbp)
	jmp	L1701
L1702:
	.loc 7 208 0
	movl	-1892(%rbp), %eax
	movslq	%eax,%rsi
	movq	_r@GOTPCREL(%rip), %rdi
	call	__ZNSt6vectorISsSaISsEE2atEm
	movq	%rax, %rsi
	movq	__ZSt4cout@GOTPCREL(%rip), %rdi
	call	__ZStlsIcSt11char_traitsIcESaIcEERSt13basic_ostreamIT_T0_ES7_RKSbIS4_S5_T1_E
	.loc 7 209 0
	movl	-1892(%rbp), %eax
	incl	%eax
	movslq	%eax,%rbx
	movq	_r@GOTPCREL(%rip), %rdi
	call	__ZNKSt6vectorISsSaISsEE4sizeEv
	cmpq	%rax, %rbx
	setne	%al
	testb	%al, %al
	je	L1703
	leaq	LC23(%rip), %rsi
	movq	__ZSt4cout@GOTPCREL(%rip), %rdi
	call	__ZStlsISt11char_traitsIcEERSt13basic_ostreamIcT_ES5_PKc
L1703:
	.loc 7 207 0
	incl	-1892(%rbp)
L1701:
	movl	-1892(%rbp), %eax
	movslq	%eax,%rbx
	movq	_r@GOTPCREL(%rip), %rdi
	call	__ZNKSt6vectorISsSaISsEE4sizeEv
	cmpq	%rax, %rbx
	setb	%al
	testb	%al, %al
	jne	L1702
LBE154:
	.loc 7 211 0
	leaq	LC24(%rip), %rsi
	movq	__ZSt4cout@GOTPCREL(%rip), %rdi
	call	__ZStlsISt11char_traitsIcEERSt13basic_ostreamIcT_ES5_PKc
	movq	%rax, %rdi
	movq	__ZSt4endlIcSt11char_traitsIcEERSt13basic_ostreamIT_T0_ES6_@GOTPCREL(%rip), %rsi
	call	__ZNSolsEPFRSoS_E
LEHE285:
	.loc 7 203 0
	incl	-1888(%rbp)
L1699:
	movl	-1888(%rbp), %eax
	movslq	%eax,%rbx
	leaq	-3360(%rbp), %rax
	leaq	144(%rax), %rdi
	call	__ZNKSt6vectorIS_ISsSaISsEESaIS1_EE4sizeEv
	cmpq	%rax, %rbx
	setb	%al
	testb	%al, %al
	jne	L1700
LBE153:
	.loc 7 193 0
	leaq	-3360(%rbp), %rdi
LEHB286:
	call	__ZN5TableD1Ev
LEHE286:
	jmp	L1707
L1942:
	movq	%rax, -4360(%rbp)
L1708:
	movq	-4360(%rbp), %rbx
	leaq	-3360(%rbp), %rdi
	call	__ZN5TableD1Ev
	movq	%rbx, -4360(%rbp)
	jmp	L1887
L1707:
LBE151:
	movl	$0, %esi
	movq	_it@GOTPCREL(%rip), %rdi
LEHB287:
	call	__ZNSt17_Rb_tree_iteratorISt4pairIKSs5TableEEppEi
L1692:
	movq	_tables@GOTPCREL(%rip), %rdi
	call	__ZNSt3mapISs5TableSt4lessISsESaISt4pairIKSsS0_EEE3endEv
	movq	%rax, -2400(%rbp)
	leaq	-2400(%rbp), %rsi
	movq	_it@GOTPCREL(%rip), %rdi
	call	__ZNKSt17_Rb_tree_iteratorISt4pairIKSs5TableEEneERKS4_
	testb	%al, %al
	jne	L1693
L1690:
	.loc 7 217 0
	leaq	-2432(%rbp), %rdi
	movq	_CREATE_CMD@GOTPCREL(%rip), %rsi
	call	__ZNSsC1ERKSs
LEHE287:
	leaq	-2416(%rbp), %rdi
	movq	_cmd@GOTPCREL(%rip), %rsi
LEHB288:
	call	__ZNSsC1ERKSs
LEHE288:
	leaq	-2432(%rbp), %rsi
	leaq	-2416(%rbp), %rdi
LEHB289:
	call	__Z2eqSsSs
LEHE289:
	movb	%al, -4263(%rbp)
	leaq	-2416(%rbp), %rdi
LEHB290:
	call	__ZNSsD1Ev
LEHE290:
	jmp	L1709
L1940:
	movq	%rax, -4360(%rbp)
L1710:
	movq	-4360(%rbp), %rbx
	leaq	-2416(%rbp), %rdi
	call	__ZNSsD1Ev
	movq	%rbx, -4360(%rbp)
	jmp	L1712
L1709:
	leaq	-2432(%rbp), %rdi
LEHB291:
	call	__ZNSsD1Ev
LEHE291:
	jmp	L1711
L1941:
	movq	%rax, -4360(%rbp)
L1712:
	movq	-4360(%rbp), %rbx
	leaq	-2432(%rbp), %rdi
	call	__ZNSsD1Ev
	movq	%rbx, -4360(%rbp)
	jmp	L1887
L1711:
	cmpb	$0, -4263(%rbp)
	je	L1713
LBB155:
	.loc 7 218 0
	leaq	-2448(%rbp), %rdi
LEHB292:
	call	__Z4nextv
LEHE292:
	leaq	-2448(%rbp), %rsi
	movq	_tableName@GOTPCREL(%rip), %rdi
LEHB293:
	call	__ZNSsaSERKSs
LEHE293:
	leaq	-2448(%rbp), %rdi
LEHB294:
	call	__ZNSsD1Ev
LEHE294:
	jmp	L1715
L1939:
	movq	%rax, -4360(%rbp)
L1716:
	movq	-4360(%rbp), %rbx
	leaq	-2448(%rbp), %rdi
	call	__ZNSsD1Ev
	movq	%rbx, -4360(%rbp)
	jmp	L1887
L1715:
	.loc 7 219 0
	leaq	-3360(%rbp), %rdi
	call	__ZN5TableC1Ev
	.loc 7 221 0
	movl	$0, -1904(%rbp)
	.loc 7 222 0
	jmp	L1717
L1718:
	.loc 7 223 0
	leaq	-2464(%rbp), %rdi
LEHB295:
	call	__Z4nextv
LEHE295:
	leaq	-2464(%rbp), %rsi
	movq	_token@GOTPCREL(%rip), %rdi
LEHB296:
	call	__ZNSsaSERKSs
LEHE296:
	leaq	-2464(%rbp), %rdi
LEHB297:
	call	__ZNSsD1Ev
LEHE297:
	jmp	L1719
L1937:
	movq	%rax, -4360(%rbp)
L1720:
	movq	-4360(%rbp), %rbx
	leaq	-2464(%rbp), %rdi
	call	__ZNSsD1Ev
	movq	%rbx, -4360(%rbp)
	jmp	L1728
L1719:
	.loc 7 224 0
	leaq	-1904(%rbp), %rsi
	leaq	-3360(%rbp), %rax
	leaq	96(%rax), %rdi
LEHB298:
	call	__ZNSt3mapIiSsSt4lessIiESaISt4pairIKiSsEEEixERS3_
	movq	%rax, %rdi
	movq	_token@GOTPCREL(%rip), %rsi
	call	__ZNSsaSERKSs
	.loc 7 225 0
	leaq	-2480(%rbp), %rdi
	call	__Z4nextv
LEHE298:
	leaq	-2480(%rbp), %rsi
	movq	_token@GOTPCREL(%rip), %rdi
LEHB299:
	call	__ZNSsaSERKSs
LEHE299:
	leaq	-2480(%rbp), %rdi
LEHB300:
	call	__ZNSsD1Ev
LEHE300:
	jmp	L1721
L1936:
	movq	%rax, -4360(%rbp)
L1722:
	movq	-4360(%rbp), %rbx
	leaq	-2480(%rbp), %rdi
	call	__ZNSsD1Ev
	movq	%rbx, -4360(%rbp)
	jmp	L1728
L1721:
	.loc 7 226 0
	leaq	-3360(%rbp), %rdi
	movq	_token@GOTPCREL(%rip), %rsi
LEHB301:
	call	__ZNSt3mapISsiSt4lessISsESaISt4pairIKSsiEEEixERS3_
	movq	%rax, %rdx
	movl	-1904(%rbp), %eax
	movl	%eax, (%rdx)
	.loc 7 227 0
	leaq	-1904(%rbp), %rsi
	leaq	-3360(%rbp), %rax
	leaq	48(%rax), %rdi
	call	__ZNSt3mapIiSsSt4lessIiESaISt4pairIKiSsEEEixERS3_
	movq	%rax, %rdi
	movq	_token@GOTPCREL(%rip), %rsi
	call	__ZNSsaSERKSs
	.loc 7 228 0
	movl	-1904(%rbp), %eax
	incl	%eax
	movl	%eax, -1904(%rbp)
L1717:
	.loc 7 222 0
	call	__Z7hasNextv
	testb	%al, %al
	jne	L1718
	.loc 7 231 0
	movq	_tableName@GOTPCREL(%rip), %rsi
	movq	_tables@GOTPCREL(%rip), %rdi
	call	__ZNSt3mapISs5TableSt4lessISsESaISt4pairIKSsS0_EEEixERS4_
	movq	%rax, %rdi
	leaq	-3360(%rbp), %rsi
	call	__ZN5TableaSERKS_
	.loc 7 233 0
	leaq	-2496(%rbp), %rdi
	movq	_tableName@GOTPCREL(%rip), %rdx
	leaq	LC27(%rip), %rsi
	call	__ZStplIcSt11char_traitsIcESaIcEESbIT_T0_T1_EPKS3_RKS6_
LEHE301:
	leaq	-2512(%rbp), %rdi
	leaq	-2496(%rbp), %rsi
	leaq	LC28(%rip), %rdx
LEHB302:
	call	__ZStplIcSt11char_traitsIcESaIcEESbIT_T0_T1_ERKS6_PKS3_
LEHE302:
	leaq	-2512(%rbp), %rsi
	movq	__ZSt4cout@GOTPCREL(%rip), %rdi
LEHB303:
	call	__ZStlsIcSt11char_traitsIcESaIcEERSt13basic_ostreamIT_T0_ES7_RKSbIS4_S5_T1_E
	movq	%rax, %rdi
	movq	__ZSt4endlIcSt11char_traitsIcEERSt13basic_ostreamIT_T0_ES6_@GOTPCREL(%rip), %rsi
	call	__ZNSolsEPFRSoS_E
LEHE303:
	leaq	-2512(%rbp), %rdi
LEHB304:
	call	__ZNSsD1Ev
LEHE304:
	jmp	L1724
L1934:
	movq	%rax, -4360(%rbp)
L1725:
	movq	-4360(%rbp), %rbx
	leaq	-2512(%rbp), %rdi
	call	__ZNSsD1Ev
	movq	%rbx, -4360(%rbp)
	jmp	L1727
L1724:
	leaq	-2496(%rbp), %rdi
LEHB305:
	call	__ZNSsD1Ev
LEHE305:
	jmp	L1726
L1935:
	movq	%rax, -4360(%rbp)
L1727:
	movq	-4360(%rbp), %rbx
	leaq	-2496(%rbp), %rdi
	call	__ZNSsD1Ev
	movq	%rbx, -4360(%rbp)
	jmp	L1728
L1726:
	leaq	-3360(%rbp), %rdi
LEHB306:
	call	__ZN5TableD1Ev
LEHE306:
	jmp	L1713
L1938:
	movq	%rax, -4360(%rbp)
L1728:
	movq	-4360(%rbp), %rbx
	leaq	-3360(%rbp), %rdi
	call	__ZN5TableD1Ev
	movq	%rbx, -4360(%rbp)
	jmp	L1887
L1713:
LBE155:
	.loc 7 237 0
	leaq	-2544(%rbp), %rdi
	movq	_INSERT_CMD@GOTPCREL(%rip), %rsi
LEHB307:
	call	__ZNSsC1ERKSs
LEHE307:
	leaq	-2528(%rbp), %rdi
	movq	_cmd@GOTPCREL(%rip), %rsi
LEHB308:
	call	__ZNSsC1ERKSs
LEHE308:
	leaq	-2544(%rbp), %rsi
	leaq	-2528(%rbp), %rdi
LEHB309:
	call	__Z2eqSsSs
LEHE309:
	movb	%al, -4262(%rbp)
	leaq	-2528(%rbp), %rdi
LEHB310:
	call	__ZNSsD1Ev
LEHE310:
	jmp	L1729
L1932:
	movq	%rax, -4360(%rbp)
L1730:
	movq	-4360(%rbp), %rbx
	leaq	-2528(%rbp), %rdi
	call	__ZNSsD1Ev
	movq	%rbx, -4360(%rbp)
	jmp	L1732
L1729:
	leaq	-2544(%rbp), %rdi
LEHB311:
	call	__ZNSsD1Ev
LEHE311:
	jmp	L1731
L1933:
	movq	%rax, -4360(%rbp)
L1732:
	movq	-4360(%rbp), %rbx
	leaq	-2544(%rbp), %rdi
	call	__ZNSsD1Ev
	movq	%rbx, -4360(%rbp)
	jmp	L1887
L1731:
	cmpb	$0, -4262(%rbp)
	je	L1733
	.loc 7 238 0
	leaq	-2560(%rbp), %rdi
LEHB312:
	call	__Z4nextv
	leaq	-2560(%rbp), %rdi
	call	__ZNSsD1Ev
	.loc 7 239 0
	leaq	-2576(%rbp), %rdi
	call	__Z4nextv
LEHE312:
	leaq	-2576(%rbp), %rsi
	movq	_tableName@GOTPCREL(%rip), %rdi
LEHB313:
	call	__ZNSsaSERKSs
LEHE313:
	leaq	-2576(%rbp), %rdi
LEHB314:
	call	__ZNSsD1Ev
LEHE314:
	jmp	L1735
L1931:
	movq	%rax, -4360(%rbp)
L1736:
	movq	-4360(%rbp), %rbx
	leaq	-2576(%rbp), %rdi
	call	__ZNSsD1Ev
	movq	%rbx, -4360(%rbp)
	jmp	L1887
L1735:
LEHB315:
	.loc 7 241 0
	call	__Z7hasNextv
LEHE315:
	testb	%al, %al
	je	L1733
LBB156:
	.loc 7 242 0
	leaq	-1869(%rbp), %rdi
	call	__ZNSaISsEC1Ev
	leaq	-1869(%rbp), %rsi
	leaq	-3152(%rbp), %rdi
	call	__ZNSt6vectorISsSaISsEEC1ERKS0_
	leaq	-1869(%rbp), %rdi
	call	__ZNSaISsED1Ev
	.loc 7 244 0
	leaq	-2592(%rbp), %rdi
LEHB316:
	call	__Z4nextv
LEHE316:
	leaq	-2592(%rbp), %rsi
	movq	_token@GOTPCREL(%rip), %rdi
LEHB317:
	call	__ZNSsaSERKSs
LEHE317:
	leaq	-2592(%rbp), %rdi
LEHB318:
	call	__ZNSsD1Ev
LEHE318:
	jmp	L1738
L1929:
	movq	%rax, -4360(%rbp)
L1739:
	movq	-4360(%rbp), %rbx
	leaq	-2592(%rbp), %rdi
	call	__ZNSsD1Ev
	movq	%rbx, -4360(%rbp)
	jmp	L1752
L1738:
	.loc 7 245 0
	leaq	-2624(%rbp), %rdi
	movq	_VALUES_EXPR@GOTPCREL(%rip), %rsi
LEHB319:
	call	__ZNSsC1ERKSs
LEHE319:
	leaq	-2608(%rbp), %rdi
	movq	_token@GOTPCREL(%rip), %rsi
LEHB320:
	call	__ZNSsC1ERKSs
LEHE320:
	leaq	-2624(%rbp), %rsi
	leaq	-2608(%rbp), %rdi
LEHB321:
	call	__Z2eqSsSs
LEHE321:
	movb	%al, -4261(%rbp)
	leaq	-2608(%rbp), %rdi
LEHB322:
	call	__ZNSsD1Ev
LEHE322:
	jmp	L1740
L1927:
	movq	%rax, -4360(%rbp)
L1741:
	movq	-4360(%rbp), %rbx
	leaq	-2608(%rbp), %rdi
	call	__ZNSsD1Ev
	movq	%rbx, -4360(%rbp)
	jmp	L1743
L1740:
	leaq	-2624(%rbp), %rdi
LEHB323:
	call	__ZNSsD1Ev
LEHE323:
	jmp	L1742
L1928:
	movq	%rax, -4360(%rbp)
L1743:
	movq	-4360(%rbp), %rbx
	leaq	-2624(%rbp), %rdi
	call	__ZNSsD1Ev
	movq	%rbx, -4360(%rbp)
	jmp	L1752
L1742:
	cmpb	$0, -4261(%rbp)
	je	L1744
	.loc 7 246 0
	jmp	L1746
L1747:
	.loc 7 247 0
	leaq	-2640(%rbp), %rdi
LEHB324:
	call	__Z4nextv
LEHE324:
	leaq	-2640(%rbp), %rsi
	movq	_token@GOTPCREL(%rip), %rdi
LEHB325:
	call	__ZNSsaSERKSs
LEHE325:
	leaq	-2640(%rbp), %rdi
LEHB326:
	call	__ZNSsD1Ev
LEHE326:
	jmp	L1748
L1926:
	movq	%rax, -4360(%rbp)
L1749:
	movq	-4360(%rbp), %rbx
	leaq	-2640(%rbp), %rdi
	call	__ZNSsD1Ev
	movq	%rbx, -4360(%rbp)
	jmp	L1752
L1748:
	.loc 7 248 0
	leaq	-3152(%rbp), %rdi
	movq	_token@GOTPCREL(%rip), %rsi
LEHB327:
	call	__ZNSt6vectorISsSaISsEE9push_backERKSs
L1746:
	.loc 7 246 0
	call	__Z7hasNextv
	testb	%al, %al
	jne	L1747
	.loc 7 251 0
	movq	_tableName@GOTPCREL(%rip), %rsi
	movq	_tables@GOTPCREL(%rip), %rdi
	call	__ZNSt3mapISs5TableSt4lessISsESaISt4pairIKSsS0_EEEixERS4_
	leaq	144(%rax), %rdi
	leaq	-3152(%rbp), %rsi
	call	__ZNSt6vectorIS_ISsSaISsEESaIS1_EE9push_backERKS1_
	.loc 7 252 0
	leaq	-3152(%rbp), %rdi
	call	__ZNSt6vectorISsSaISsEE5clearEv
	.loc 7 254 0
	leaq	-2656(%rbp), %rdi
	movq	_tableName@GOTPCREL(%rip), %rdx
	leaq	LC29(%rip), %rsi
	call	__ZStplIcSt11char_traitsIcESaIcEESbIT_T0_T1_EPKS3_RKS6_
LEHE327:
	leaq	-2656(%rbp), %rsi
	movq	__ZSt4cout@GOTPCREL(%rip), %rdi
LEHB328:
	call	__ZStlsIcSt11char_traitsIcESaIcEERSt13basic_ostreamIT_T0_ES7_RKSbIS4_S5_T1_E
	movq	%rax, %rdi
	movq	__ZSt4endlIcSt11char_traitsIcEERSt13basic_ostreamIT_T0_ES6_@GOTPCREL(%rip), %rsi
	call	__ZNSolsEPFRSoS_E
LEHE328:
	leaq	-2656(%rbp), %rdi
LEHB329:
	call	__ZNSsD1Ev
LEHE329:
	jmp	L1744
L1925:
	movq	%rax, -4360(%rbp)
L1751:
	movq	-4360(%rbp), %rbx
	leaq	-2656(%rbp), %rdi
	call	__ZNSsD1Ev
	movq	%rbx, -4360(%rbp)
	jmp	L1752
L1744:
	.loc 7 255 0
	leaq	-3152(%rbp), %rdi
LEHB330:
	call	__ZNSt6vectorISsSaISsEED1Ev
LEHE330:
	jmp	L1733
L1930:
	movq	%rax, -4360(%rbp)
L1752:
	movq	-4360(%rbp), %rbx
	leaq	-3152(%rbp), %rdi
	call	__ZNSt6vectorISsSaISsEED1Ev
	movq	%rbx, -4360(%rbp)
	jmp	L1887
L1733:
LBE156:
	.loc 7 260 0
	leaq	-2688(%rbp), %rdi
	movq	_DELETE_CMD@GOTPCREL(%rip), %rsi
LEHB331:
	call	__ZNSsC1ERKSs
LEHE331:
	leaq	-2672(%rbp), %rdi
	movq	_cmd@GOTPCREL(%rip), %rsi
LEHB332:
	call	__ZNSsC1ERKSs
LEHE332:
	leaq	-2688(%rbp), %rsi
	leaq	-2672(%rbp), %rdi
LEHB333:
	call	__Z2eqSsSs
LEHE333:
	movb	%al, -4260(%rbp)
	leaq	-2672(%rbp), %rdi
LEHB334:
	call	__ZNSsD1Ev
LEHE334:
	jmp	L1753
L1923:
	movq	%rax, -4360(%rbp)
L1754:
	movq	-4360(%rbp), %rbx
	leaq	-2672(%rbp), %rdi
	call	__ZNSsD1Ev
	movq	%rbx, -4360(%rbp)
	jmp	L1756
L1753:
	leaq	-2688(%rbp), %rdi
LEHB335:
	call	__ZNSsD1Ev
LEHE335:
	jmp	L1755
L1924:
	movq	%rax, -4360(%rbp)
L1756:
	movq	-4360(%rbp), %rbx
	leaq	-2688(%rbp), %rdi
	call	__ZNSsD1Ev
	movq	%rbx, -4360(%rbp)
	jmp	L1887
L1755:
	cmpb	$0, -4260(%rbp)
	je	L1757
LBB157:
	.loc 7 261 0
	leaq	-2704(%rbp), %rdi
LEHB336:
	call	__Z4nextv
LEHE336:
	leaq	-2704(%rbp), %rsi
	movq	_token@GOTPCREL(%rip), %rdi
LEHB337:
	call	__ZNSsaSERKSs
LEHE337:
	leaq	-2704(%rbp), %rdi
LEHB338:
	call	__ZNSsD1Ev
LEHE338:
	jmp	L1761
L1922:
	movq	%rax, -4360(%rbp)
L1760:
	movq	-4360(%rbp), %rbx
	leaq	-2704(%rbp), %rdi
	call	__ZNSsD1Ev
	movq	%rbx, -4360(%rbp)
	jmp	L1887
L1762:
	.loc 7 264 0
	leaq	-2752(%rbp), %rdi
LEHB339:
	call	__Z4nextv
LEHE339:
	leaq	-2752(%rbp), %rsi
	movq	_token@GOTPCREL(%rip), %rdi
LEHB340:
	call	__ZNSsaSERKSs
LEHE340:
	leaq	-2752(%rbp), %rdi
LEHB341:
	call	__ZNSsD1Ev
LEHE341:
	jmp	L1761
L1921:
	movq	%rax, -4360(%rbp)
L1763:
	movq	-4360(%rbp), %rbx
	leaq	-2752(%rbp), %rdi
	call	__ZNSsD1Ev
	movq	%rbx, -4360(%rbp)
	jmp	L1887
L1761:
	.loc 7 263 0
	leaq	-2736(%rbp), %rdi
	movq	_FROM_EXPR@GOTPCREL(%rip), %rsi
LEHB342:
	call	__ZNSsC1ERKSs
LEHE342:
	leaq	-2720(%rbp), %rdi
	movq	_token@GOTPCREL(%rip), %rsi
LEHB343:
	call	__ZNSsC1ERKSs
LEHE343:
	leaq	-2736(%rbp), %rsi
	leaq	-2720(%rbp), %rdi
LEHB344:
	call	__Z2eqSsSs
LEHE344:
	movl	%eax, %edx
	xorl	$1, %edx
	movb	%dl, -4259(%rbp)
	leaq	-2720(%rbp), %rdi
LEHB345:
	call	__ZNSsD1Ev
LEHE345:
	jmp	L1764
L1919:
	movq	%rax, -4360(%rbp)
L1765:
	movq	-4360(%rbp), %rbx
	leaq	-2720(%rbp), %rdi
	call	__ZNSsD1Ev
	movq	%rbx, -4360(%rbp)
	jmp	L1767
L1764:
	leaq	-2736(%rbp), %rdi
LEHB346:
	call	__ZNSsD1Ev
LEHE346:
	jmp	L1766
L1920:
	movq	%rax, -4360(%rbp)
L1767:
	movq	-4360(%rbp), %rbx
	leaq	-2736(%rbp), %rdi
	call	__ZNSsD1Ev
	movq	%rbx, -4360(%rbp)
	jmp	L1887
L1766:
	cmpb	$0, -4259(%rbp)
	jne	L1762
	.loc 7 266 0
	leaq	-2768(%rbp), %rdi
LEHB347:
	call	__Z4nextv
LEHE347:
	leaq	-2768(%rbp), %rsi
	movq	_tableName@GOTPCREL(%rip), %rdi
LEHB348:
	call	__ZNSsaSERKSs
LEHE348:
	leaq	-2768(%rbp), %rdi
LEHB349:
	call	__ZNSsD1Ev
LEHE349:
	jmp	L1769
L1918:
	movq	%rax, -4360(%rbp)
L1770:
	movq	-4360(%rbp), %rbx
	leaq	-2768(%rbp), %rdi
	call	__ZNSsD1Ev
	movq	%rbx, -4360(%rbp)
	jmp	L1887
L1769:
	.loc 7 267 0
	movq	_tableName@GOTPCREL(%rip), %rsi
	movq	_tables@GOTPCREL(%rip), %rdi
LEHB350:
	call	__ZNSt3mapISs5TableSt4lessISsESaISt4pairIKSsS0_EEEixERS4_
	movq	%rax, %rsi
	leaq	-3360(%rbp), %rdi
	call	__ZN5TableC1ERKS_
LEHE350:
	.loc 7 269 0
	leaq	-1870(%rbp), %rdi
	call	__ZNSaISsEC1Ev
	leaq	-1870(%rbp), %rsi
	leaq	-3152(%rbp), %rdi
	call	__ZNSt6vectorISsSaISsEEC1ERKS0_
	leaq	-1870(%rbp), %rdi
	call	__ZNSaISsED1Ev
	.loc 7 270 0
	leaq	-1871(%rbp), %rdi
	call	__ZNSaISt6vectorISsSaISsEEEC1Ev
	leaq	-1871(%rbp), %rsi
	leaq	-3184(%rbp), %rdi
	call	__ZNSt6vectorIS_ISsSaISsEESaIS1_EEC1ERKS2_
	leaq	-1871(%rbp), %rdi
	call	__ZNSaISt6vectorISsSaISsEEED1Ev
LEHB351:
	.loc 7 271 0
	call	__Z7hasNextv
	testb	%al, %al
	je	L1771
	.loc 7 272 0
	leaq	-2784(%rbp), %rdi
	call	__Z4nextv
LEHE351:
	leaq	-2784(%rbp), %rsi
	movq	_token@GOTPCREL(%rip), %rdi
LEHB352:
	call	__ZNSsaSERKSs
LEHE352:
	leaq	-2784(%rbp), %rdi
LEHB353:
	call	__ZNSsD1Ev
LEHE353:
	jmp	L1773
L1914:
	movq	%rax, -4360(%rbp)
L1774:
	movq	-4360(%rbp), %rbx
	leaq	-2784(%rbp), %rdi
	call	__ZNSsD1Ev
	movq	%rbx, -4360(%rbp)
	jmp	L1862
L1773:
	.loc 7 274 0
	leaq	-2816(%rbp), %rdi
	movq	_WHERE_EXPR@GOTPCREL(%rip), %rsi
LEHB354:
	call	__ZNSsC1ERKSs
LEHE354:
	leaq	-2800(%rbp), %rdi
	movq	_token@GOTPCREL(%rip), %rsi
LEHB355:
	call	__ZNSsC1ERKSs
LEHE355:
	leaq	-2816(%rbp), %rsi
	leaq	-2800(%rbp), %rdi
LEHB356:
	call	__Z2eqSsSs
LEHE356:
	movb	%al, -4258(%rbp)
	leaq	-2800(%rbp), %rdi
LEHB357:
	call	__ZNSsD1Ev
LEHE357:
	jmp	L1775
L1912:
	movq	%rax, -4360(%rbp)
L1776:
	movq	-4360(%rbp), %rbx
	leaq	-2800(%rbp), %rdi
	call	__ZNSsD1Ev
	movq	%rbx, -4360(%rbp)
	jmp	L1778
L1775:
	leaq	-2816(%rbp), %rdi
LEHB358:
	call	__ZNSsD1Ev
LEHE358:
	jmp	L1777
L1913:
	movq	%rax, -4360(%rbp)
L1778:
	movq	-4360(%rbp), %rbx
	leaq	-2816(%rbp), %rdi
	call	__ZNSsD1Ev
	movq	%rbx, -4360(%rbp)
	jmp	L1862
L1777:
	cmpb	$0, -4258(%rbp)
	je	L1779
	.loc 7 275 0
	jmp	L1781
L1782:
	.loc 7 276 0
	leaq	-2832(%rbp), %rdi
LEHB359:
	call	__Z4nextv
LEHE359:
	leaq	-2832(%rbp), %rsi
	movq	_token@GOTPCREL(%rip), %rdi
LEHB360:
	call	__ZNSsaSERKSs
LEHE360:
	leaq	-2832(%rbp), %rdi
LEHB361:
	call	__ZNSsD1Ev
LEHE361:
	jmp	L1783
L1911:
	movq	%rax, -4360(%rbp)
L1784:
	movq	-4360(%rbp), %rbx
	leaq	-2832(%rbp), %rdi
	call	__ZNSsD1Ev
	movq	%rbx, -4360(%rbp)
	jmp	L1862
L1783:
	.loc 7 277 0
	leaq	-2864(%rbp), %rdi
	movq	_AND_STATEMENT@GOTPCREL(%rip), %rsi
LEHB362:
	call	__ZNSsC1ERKSs
LEHE362:
	leaq	-2848(%rbp), %rdi
	movq	_token@GOTPCREL(%rip), %rsi
LEHB363:
	call	__ZNSsC1ERKSs
LEHE363:
	leaq	-2864(%rbp), %rsi
	leaq	-2848(%rbp), %rdi
LEHB364:
	call	__Z2eqSsSs
LEHE364:
	movl	%eax, %edx
	xorl	$1, %edx
	movb	%dl, -4257(%rbp)
	leaq	-2848(%rbp), %rdi
LEHB365:
	call	__ZNSsD1Ev
LEHE365:
	jmp	L1785
L1909:
	movq	%rax, -4360(%rbp)
L1786:
	movq	-4360(%rbp), %rbx
	leaq	-2848(%rbp), %rdi
	call	__ZNSsD1Ev
	movq	%rbx, -4360(%rbp)
	jmp	L1788
L1785:
	leaq	-2864(%rbp), %rdi
LEHB366:
	call	__ZNSsD1Ev
LEHE366:
	jmp	L1787
L1910:
	movq	%rax, -4360(%rbp)
L1788:
	movq	-4360(%rbp), %rbx
	leaq	-2864(%rbp), %rdi
	call	__ZNSsD1Ev
	movq	%rbx, -4360(%rbp)
	jmp	L1862
L1787:
	cmpb	$0, -4257(%rbp)
	je	L1781
	.loc 7 278 0
	leaq	-3152(%rbp), %rdi
	movq	_token@GOTPCREL(%rip), %rsi
LEHB367:
	call	__ZNSt6vectorISsSaISsEE9push_backERKSs
L1781:
	.loc 7 275 0
	call	__Z7hasNextv
	testb	%al, %al
	jne	L1782
L1779:
LBB158:
	.loc 7 282 0
	movl	$0, -1896(%rbp)
	jmp	L1790
L1791:
LBB159:
	.loc 7 283 0
	movl	-1896(%rbp), %eax
	movslq	%eax,%rsi
	leaq	-3360(%rbp), %rax
	leaq	144(%rax), %rdi
	call	__ZNSt6vectorIS_ISsSaISsEESaIS1_EE2atEm
	movq	%rax, %rsi
	movq	_r@GOTPCREL(%rip), %rdi
	call	__ZNSt6vectorISsSaISsEEaSERKS1_
	.loc 7 285 0
	movb	$1, -1872(%rbp)
LBB160:
	.loc 7 287 0
	movl	$0, -1900(%rbp)
	jmp	L1792
L1793:
LBB161:
	.loc 7 288 0
	movl	-1900(%rbp), %eax
	movslq	%eax,%rsi
	leaq	-3152(%rbp), %rdi
	call	__ZNSt6vectorISsSaISsEE2atEm
	movq	%rax, %rsi
	leaq	-2880(%rbp), %rdi
	call	__ZNSsC1ERKSs
LEHE367:
	incl	-1900(%rbp)
	.loc 7 289 0
	movl	-1900(%rbp), %eax
	movslq	%eax,%rsi
	leaq	-3152(%rbp), %rdi
LEHB368:
	call	__ZNSt6vectorISsSaISsEE2atEm
	movq	%rax, %rsi
	leaq	-2896(%rbp), %rdi
	call	__ZNSsC1ERKSs
LEHE368:
	incl	-1900(%rbp)
	.loc 7 290 0
	movl	-1900(%rbp), %eax
	movslq	%eax,%rsi
	leaq	-3152(%rbp), %rdi
LEHB369:
	call	__ZNSt6vectorISsSaISsEE2atEm
	movq	%rax, %rsi
	leaq	-2912(%rbp), %rdi
	call	__ZNSsC1ERKSs
LEHE369:
	.loc 7 291 0
	leaq	-2880(%rbp), %rsi
	leaq	-3360(%rbp), %rdi
LEHB370:
	call	__ZNSt3mapISsiSt4lessISsESaISt4pairIKSsiEEEixERS3_
	movl	(%rax), %eax
	movslq	%eax,%rsi
	movq	_r@GOTPCREL(%rip), %rdi
	call	__ZNSt6vectorISsSaISsEE2atEm
	movq	%rax, %rsi
	leaq	-2928(%rbp), %rdi
	call	__ZNSsC1ERKSs
LEHE370:
	.loc 7 293 0
	leaq	-2960(%rbp), %rdi
	movq	_CND_EQ@GOTPCREL(%rip), %rsi
LEHB371:
	call	__ZNSsC1ERKSs
LEHE371:
	leaq	-2896(%rbp), %rsi
	leaq	-2944(%rbp), %rdi
LEHB372:
	call	__ZNSsC1ERKSs
LEHE372:
	leaq	-2960(%rbp), %rsi
	leaq	-2944(%rbp), %rdi
LEHB373:
	call	__Z2eqSsSs
LEHE373:
	movb	%al, -4256(%rbp)
	leaq	-2944(%rbp), %rdi
LEHB374:
	call	__ZNSsD1Ev
LEHE374:
	jmp	L1794
L1903:
	movq	%rax, -4360(%rbp)
L1795:
	movq	-4360(%rbp), %rbx
	leaq	-2944(%rbp), %rdi
	call	__ZNSsD1Ev
	movq	%rbx, -4360(%rbp)
	jmp	L1797
L1794:
	leaq	-2960(%rbp), %rdi
LEHB375:
	call	__ZNSsD1Ev
LEHE375:
	jmp	L1796
L1904:
	movq	%rax, -4360(%rbp)
L1797:
	movq	-4360(%rbp), %rbx
	leaq	-2960(%rbp), %rdi
	call	__ZNSsD1Ev
	movq	%rbx, -4360(%rbp)
	jmp	L1841
L1796:
	cmpb	$0, -4256(%rbp)
	je	L1798
	.loc 7 294 0
	leaq	-2880(%rbp), %rsi
	leaq	-3360(%rbp), %rdi
LEHB376:
	call	__ZNSt3mapISsiSt4lessISsESaISt4pairIKSsiEEEixERS3_
	movl	(%rax), %eax
	movslq	%eax,%rsi
	movq	_r@GOTPCREL(%rip), %rdi
	call	__ZNSt6vectorISsSaISsEE2atEm
	movq	%rax, %rsi
	leaq	-2992(%rbp), %rdi
	call	__ZNSsC1ERKSs
LEHE376:
	leaq	-2912(%rbp), %rsi
	leaq	-2976(%rbp), %rdi
LEHB377:
	call	__ZNSsC1ERKSs
LEHE377:
	leaq	-2992(%rbp), %rsi
	leaq	-2976(%rbp), %rdi
LEHB378:
	call	__Z2eqSsSs
LEHE378:
	movb	%al, -1872(%rbp)
	leaq	-2976(%rbp), %rdi
LEHB379:
	call	__ZNSsD1Ev
LEHE379:
	jmp	L1800
L1901:
	movq	%rax, -4360(%rbp)
L1801:
	movq	-4360(%rbp), %rbx
	leaq	-2976(%rbp), %rdi
	call	__ZNSsD1Ev
	movq	%rbx, -4360(%rbp)
	jmp	L1802
L1800:
	leaq	-2992(%rbp), %rdi
LEHB380:
	call	__ZNSsD1Ev
LEHE380:
	jmp	L1798
L1902:
	movq	%rax, -4360(%rbp)
L1802:
	movq	-4360(%rbp), %rbx
	leaq	-2992(%rbp), %rdi
	call	__ZNSsD1Ev
	movq	%rbx, -4360(%rbp)
	jmp	L1841
L1798:
	.loc 7 297 0
	movb	$0, -4253(%rbp)
	movb	$0, -4252(%rbp)
	movb	$0, -4251(%rbp)
	movb	$0, -4250(%rbp)
	leaq	-3024(%rbp), %rdi
	movq	_CND_GE@GOTPCREL(%rip), %rsi
LEHB381:
	call	__ZNSsC1ERKSs
	movb	$1, -4253(%rbp)
	leaq	-2896(%rbp), %rsi
	leaq	-3008(%rbp), %rdi
	call	__ZNSsC1ERKSs
	movb	$1, -4252(%rbp)
	leaq	-3024(%rbp), %rsi
	leaq	-3008(%rbp), %rdi
	call	__Z2eqSsSs
	testb	%al, %al
	jne	L1803
	leaq	-3056(%rbp), %rdi
	movq	_CND_LE@GOTPCREL(%rip), %rsi
	call	__ZNSsC1ERKSs
	movb	$1, -4251(%rbp)
	leaq	-2896(%rbp), %rsi
	leaq	-3040(%rbp), %rdi
	call	__ZNSsC1ERKSs
	movb	$1, -4250(%rbp)
	leaq	-3056(%rbp), %rsi
	leaq	-3040(%rbp), %rdi
	call	__Z2eqSsSs
LEHE381:
	testb	%al, %al
	je	L1805
L1803:
	movb	$1, -4254(%rbp)
	jmp	L1806
L1805:
	movb	$0, -4254(%rbp)
L1806:
	movzbl	-4254(%rbp), %eax
	movb	%al, -4255(%rbp)
	cmpb	$0, -4250(%rbp)
	jne	L1807
	jmp	L1808
L1897:
	movq	%rax, -4360(%rbp)
L1809:
	movq	-4360(%rbp), %rdx
	movq	%rdx, -4160(%rbp)
	cmpb	$0, -4250(%rbp)
	je	L1810
	leaq	-3040(%rbp), %rdi
	call	__ZNSsD1Ev
L1810:
	movq	-4160(%rbp), %rax
	movq	%rax, -4360(%rbp)
	jmp	L1814
L1807:
	leaq	-3040(%rbp), %rdi
LEHB382:
	call	__ZNSsD1Ev
LEHE382:
L1808:
	cmpb	$0, -4251(%rbp)
	jne	L1812
	jmp	L1813
L1898:
	movq	%rax, -4360(%rbp)
L1814:
	movq	-4360(%rbp), %rdx
	movq	%rdx, -4152(%rbp)
	cmpb	$0, -4251(%rbp)
	je	L1815
	leaq	-3056(%rbp), %rdi
	call	__ZNSsD1Ev
L1815:
	movq	-4152(%rbp), %rax
	movq	%rax, -4360(%rbp)
	jmp	L1819
L1812:
	leaq	-3056(%rbp), %rdi
LEHB383:
	call	__ZNSsD1Ev
LEHE383:
L1813:
	cmpb	$0, -4252(%rbp)
	jne	L1817
	jmp	L1818
L1899:
	movq	%rax, -4360(%rbp)
L1819:
	movq	-4360(%rbp), %rdx
	movq	%rdx, -4144(%rbp)
	cmpb	$0, -4252(%rbp)
	je	L1820
	leaq	-3008(%rbp), %rdi
	call	__ZNSsD1Ev
L1820:
	movq	-4144(%rbp), %rax
	movq	%rax, -4360(%rbp)
	jmp	L1824
L1817:
	leaq	-3008(%rbp), %rdi
LEHB384:
	call	__ZNSsD1Ev
LEHE384:
L1818:
	cmpb	$0, -4253(%rbp)
	jne	L1822
	jmp	L1823
L1900:
	movq	%rax, -4360(%rbp)
L1824:
	movq	-4360(%rbp), %rdx
	movq	%rdx, -4136(%rbp)
	cmpb	$0, -4253(%rbp)
	je	L1825
	leaq	-3024(%rbp), %rdi
	call	__ZNSsD1Ev
L1825:
	movq	-4136(%rbp), %rax
	movq	%rax, -4360(%rbp)
	jmp	L1841
L1822:
	leaq	-3024(%rbp), %rdi
LEHB385:
	call	__ZNSsD1Ev
L1823:
	cmpb	$0, -4255(%rbp)
	je	L1827
LBB162:
	.loc 7 298 0
	leaq	-2928(%rbp), %rsi
	leaq	-3728(%rbp), %rdi
	movl	$8, %edx
	call	__ZNSt19basic_istringstreamIcSt11char_traitsIcESaIcEEC1ERKSsSt13_Ios_Openmode
LEHE385:
	.loc 7 300 0
	leaq	-1904(%rbp), %rsi
	leaq	-3728(%rbp), %rdi
LEHB386:
	call	__ZNSirsERi
	.loc 7 301 0
	leaq	-2912(%rbp), %rsi
	leaq	-4096(%rbp), %rdi
	movl	$8, %edx
	call	__ZNSt19basic_istringstreamIcSt11char_traitsIcESaIcEEC1ERKSsSt13_Ios_Openmode
LEHE386:
	.loc 7 303 0
	leaq	-1912(%rbp), %rsi
	leaq	-4096(%rbp), %rdi
LEHB387:
	call	__ZNSirsERi
	.loc 7 305 0
	movl	-1904(%rbp), %edx
	movl	-1912(%rbp), %eax
	cmpl	%eax, %edx
	setg	%al
	movb	%al, -1872(%rbp)
	.loc 7 306 0
	leaq	-3088(%rbp), %rdi
	movq	_CND_LE@GOTPCREL(%rip), %rsi
	call	__ZNSsC1ERKSs
LEHE387:
	leaq	-2896(%rbp), %rsi
	leaq	-3072(%rbp), %rdi
LEHB388:
	call	__ZNSsC1ERKSs
LEHE388:
	leaq	-3088(%rbp), %rsi
	leaq	-3072(%rbp), %rdi
LEHB389:
	call	__Z2eqSsSs
LEHE389:
	movb	%al, -4249(%rbp)
	leaq	-3072(%rbp), %rdi
LEHB390:
	call	__ZNSsD1Ev
LEHE390:
	jmp	L1829
L1893:
	movq	%rax, -4360(%rbp)
L1830:
	movq	-4360(%rbp), %rbx
	leaq	-3072(%rbp), %rdi
	call	__ZNSsD1Ev
	movq	%rbx, -4360(%rbp)
	jmp	L1832
L1829:
	leaq	-3088(%rbp), %rdi
LEHB391:
	call	__ZNSsD1Ev
LEHE391:
	jmp	L1831
L1894:
	movq	%rax, -4360(%rbp)
L1832:
	movq	-4360(%rbp), %rbx
	leaq	-3088(%rbp), %rdi
	call	__ZNSsD1Ev
	movq	%rbx, -4360(%rbp)
	jmp	L1836
L1831:
	cmpb	$0, -4249(%rbp)
	je	L1833
	.loc 7 307 0
	xorb	$1, -1872(%rbp)
L1833:
	.loc 7 308 0
	leaq	-4096(%rbp), %rdi
LEHB392:
	call	__ZNSt19basic_istringstreamIcSt11char_traitsIcESaIcEED1Ev
LEHE392:
	jmp	L1835
L1895:
	movq	%rax, -4360(%rbp)
L1836:
	movq	-4360(%rbp), %rbx
	leaq	-4096(%rbp), %rdi
	call	__ZNSt19basic_istringstreamIcSt11char_traitsIcESaIcEED1Ev
	movq	%rbx, -4360(%rbp)
	jmp	L1837
L1835:
	leaq	-3728(%rbp), %rdi
LEHB393:
	call	__ZNSt19basic_istringstreamIcSt11char_traitsIcESaIcEED1Ev
LEHE393:
	jmp	L1827
L1896:
	movq	%rax, -4360(%rbp)
L1837:
	movq	-4360(%rbp), %rbx
	leaq	-3728(%rbp), %rdi
	call	__ZNSt19basic_istringstreamIcSt11char_traitsIcESaIcEED1Ev
	movq	%rbx, -4360(%rbp)
	jmp	L1841
L1827:
LBE162:
	.loc 7 311 0
	movzbl	-1872(%rbp), %eax
	xorl	$1, %eax
	testb	%al, %al
	je	L1838
	movl	$0, -4128(%rbp)
	jmp	L1840
L1838:
	movl	$1, -4128(%rbp)
	jmp	L1840
L1905:
	movq	%rax, -4360(%rbp)
L1841:
	movq	-4360(%rbp), %rbx
	.loc 7 287 0
	leaq	-2928(%rbp), %rdi
	call	__ZNSsD1Ev
	movq	%rbx, -4360(%rbp)
	jmp	L1845
L1840:
	leaq	-2928(%rbp), %rdi
LEHB394:
	call	__ZNSsD1Ev
LEHE394:
	cmpl	$0, -4128(%rbp)
	je	L1843
	jmp	L1842
L1843:
	movl	$0, -4124(%rbp)
	jmp	L1844
L1842:
	movl	$1, -4124(%rbp)
	jmp	L1844
L1906:
	movq	%rax, -4360(%rbp)
L1845:
	movq	-4360(%rbp), %rbx
	leaq	-2912(%rbp), %rdi
	call	__ZNSsD1Ev
	movq	%rbx, -4360(%rbp)
	jmp	L1849
L1844:
	leaq	-2912(%rbp), %rdi
LEHB395:
	call	__ZNSsD1Ev
LEHE395:
	cmpl	$0, -4124(%rbp)
	je	L1847
	jmp	L1846
L1847:
	movl	$0, -4120(%rbp)
	jmp	L1848
L1846:
	movl	$1, -4120(%rbp)
	jmp	L1848
L1907:
	movq	%rax, -4360(%rbp)
L1849:
	movq	-4360(%rbp), %rbx
	leaq	-2896(%rbp), %rdi
	call	__ZNSsD1Ev
	movq	%rbx, -4360(%rbp)
	jmp	L1853
L1848:
	leaq	-2896(%rbp), %rdi
LEHB396:
	call	__ZNSsD1Ev
LEHE396:
	cmpl	$0, -4120(%rbp)
	je	L1851
	jmp	L1850
L1851:
	movl	$0, -4116(%rbp)
	jmp	L1852
L1850:
	movl	$1, -4116(%rbp)
	jmp	L1852
L1908:
	movq	%rax, -4360(%rbp)
L1853:
	movq	-4360(%rbp), %rbx
	leaq	-2880(%rbp), %rdi
	call	__ZNSsD1Ev
	movq	%rbx, -4360(%rbp)
	jmp	L1862
L1852:
	leaq	-2880(%rbp), %rdi
LEHB397:
	call	__ZNSsD1Ev
	cmpl	$0, -4116(%rbp)
	je	L1856
LBE161:
	incl	-1900(%rbp)
L1792:
	movl	-1900(%rbp), %eax
	movslq	%eax,%rbx
	leaq	-3152(%rbp), %rdi
	call	__ZNKSt6vectorISsSaISsEE4sizeEv
	cmpq	%rax, %rbx
	setb	%al
	testb	%al, %al
	jne	L1793
L1856:
LBE160:
	.loc 7 315 0
	movzbl	-1872(%rbp), %eax
	xorl	$1, %eax
	testb	%al, %al
	je	L1857
	.loc 7 316 0
	leaq	-3184(%rbp), %rdi
	movq	_r@GOTPCREL(%rip), %rsi
	call	__ZNSt6vectorIS_ISsSaISsEESaIS1_EE9push_backERKS1_
L1857:
LBE159:
	.loc 7 282 0
	incl	-1896(%rbp)
L1790:
	movl	-1896(%rbp), %eax
	movslq	%eax,%rbx
	leaq	-3360(%rbp), %rax
	leaq	144(%rax), %rdi
	call	__ZNKSt6vectorIS_ISsSaISsEESaIS1_EE4sizeEv
	cmpq	%rax, %rbx
	setb	%al
	testb	%al, %al
	jne	L1791
L1771:
LBE158:
	.loc 7 321 0
	leaq	-3360(%rbp), %rax
	leaq	144(%rax), %rdi
	call	__ZNKSt6vectorIS_ISsSaISsEESaIS1_EE4sizeEv
	movl	%eax, %ebx
	leaq	-3184(%rbp), %rdi
	call	__ZNKSt6vectorIS_ISsSaISsEESaIS1_EE4sizeEv
	movl	%ebx, %edx
	subl	%eax, %edx
	movl	%edx, %eax
	movl	%eax, -1908(%rbp)
	.loc 7 322 0
	movq	_tableName@GOTPCREL(%rip), %rsi
	movq	_tables@GOTPCREL(%rip), %rdi
	call	__ZNSt3mapISs5TableSt4lessISsESaISt4pairIKSsS0_EEEixERS4_
	leaq	144(%rax), %rdi
	leaq	-3184(%rbp), %rsi
	call	__ZNSt6vectorIS_ISsSaISsEESaIS1_EEaSERKS3_
	.loc 7 324 0
	leaq	-3184(%rbp), %rdi
	call	__ZNSt6vectorIS_ISsSaISsEESaIS1_EE5clearEv
	.loc 7 326 0
	leaq	-3104(%rbp), %rdi
	movq	_tableName@GOTPCREL(%rip), %rdx
	leaq	LC30(%rip), %rsi
	call	__ZStplIcSt11char_traitsIcESaIcEESbIT_T0_T1_EPKS3_RKS6_
LEHE397:
	movl	-1908(%rbp), %esi
	movq	__ZSt4cout@GOTPCREL(%rip), %rdi
LEHB398:
	call	__ZNSolsEi
	movq	%rax, %rdi
	leaq	-3104(%rbp), %rsi
	call	__ZStlsIcSt11char_traitsIcESaIcEERSt13basic_ostreamIT_T0_ES7_RKSbIS4_S5_T1_E
	movq	%rax, %rdi
	movq	__ZSt4endlIcSt11char_traitsIcEERSt13basic_ostreamIT_T0_ES6_@GOTPCREL(%rip), %rsi
	call	__ZNSolsEPFRSoS_E
LEHE398:
	leaq	-3104(%rbp), %rdi
LEHB399:
	call	__ZNSsD1Ev
LEHE399:
	jmp	L1859
L1892:
	movq	%rax, -4360(%rbp)
L1860:
	movq	-4360(%rbp), %rbx
	leaq	-3104(%rbp), %rdi
	call	__ZNSsD1Ev
	movq	%rbx, -4360(%rbp)
	jmp	L1862
L1859:
	leaq	-3184(%rbp), %rdi
LEHB400:
	call	__ZNSt6vectorIS_ISsSaISsEESaIS1_EED1Ev
LEHE400:
	jmp	L1861
L1915:
	movq	%rax, -4360(%rbp)
L1862:
	movq	-4360(%rbp), %rbx
	leaq	-3184(%rbp), %rdi
	call	__ZNSt6vectorIS_ISsSaISsEESaIS1_EED1Ev
	movq	%rbx, -4360(%rbp)
	jmp	L1864
L1861:
	leaq	-3152(%rbp), %rdi
LEHB401:
	call	__ZNSt6vectorISsSaISsEED1Ev
LEHE401:
	jmp	L1863
L1916:
	movq	%rax, -4360(%rbp)
L1864:
	movq	-4360(%rbp), %rbx
	leaq	-3152(%rbp), %rdi
	call	__ZNSt6vectorISsSaISsEED1Ev
	movq	%rbx, -4360(%rbp)
	jmp	L1865
L1863:
	leaq	-3360(%rbp), %rdi
LEHB402:
	call	__ZN5TableD1Ev
LEHE402:
	jmp	L1757
L1917:
	movq	%rax, -4360(%rbp)
L1865:
	movq	-4360(%rbp), %rbx
	leaq	-3360(%rbp), %rdi
	call	__ZN5TableD1Ev
	movq	%rbx, -4360(%rbp)
	jmp	L1887
L1757:
LBE157:
	.loc 7 331 0
	movq	_SHUTDOWN_CMD@GOTPCREL(%rip), %rsi
	movq	_cmd@GOTPCREL(%rip), %rdi
LEHB403:
	call	__ZNKSs7compareERKSs
	testl	%eax, %eax
	sete	%al
	testb	%al, %al
	je	L1548
LBB163:
	.loc 7 332 0
	leaq	LC31(%rip), %rsi
	movq	__ZSt4cout@GOTPCREL(%rip), %rdi
	call	__ZStlsISt11char_traitsIcEERSt13basic_ostreamIcT_ES5_PKc
	movq	%rax, %rdi
	movq	__ZSt4endlIcSt11char_traitsIcEERSt13basic_ostreamIT_T0_ES6_@GOTPCREL(%rip), %rsi
	call	__ZNSolsEPFRSoS_E
	.loc 7 333 0
	leaq	-944(%rbp), %rdi
	call	__ZNSt13basic_fstreamIcSt11char_traitsIcEE5closeEv
	.loc 7 335 0
	leaq	-1856(%rbp), %rdi
	call	__ZNSt13basic_fstreamIcSt11char_traitsIcEEC1Ev
LEHE403:
	.loc 7 336 0
	movq	_DB_FILE_PATH@GOTPCREL(%rip), %rax
	movq	(%rax), %rsi
	leaq	-1856(%rbp), %rdi
	movl	$16, %edx
LEHB404:
	call	__ZNSt13basic_fstreamIcSt11char_traitsIcEE4openEPKcSt13_Ios_Openmode
	.loc 7 338 0
	movq	_tables@GOTPCREL(%rip), %rdi
	call	__ZNSt3mapISs5TableSt4lessISsESaISt4pairIKSsS0_EEE5beginEv
	movq	%rax, %rdx
	movq	_it@GOTPCREL(%rip), %rax
	movq	%rdx, (%rax)
	jmp	L1868
L1869:
LBB164:
	.loc 7 339 0
	movq	_it@GOTPCREL(%rip), %rdi
	call	__ZNKSt17_Rb_tree_iteratorISt4pairIKSs5TableEEdeEv
	movq	%rax, -4248(%rbp)
	leaq	-1856(%rbp), %rax
	leaq	16(%rax), %rdi
	leaq	LC21(%rip), %rsi
	call	__ZStlsISt11char_traitsIcEERSt13basic_ostreamIcT_ES5_PKc
	movq	%rax, %rdi
	movq	-4248(%rbp), %rsi
	call	__ZStlsIcSt11char_traitsIcESaIcEERSt13basic_ostreamIT_T0_ES7_RKSbIS4_S5_T1_E
	movq	%rax, %rdi
	leaq	LC22(%rip), %rsi
	call	__ZStlsISt11char_traitsIcEERSt13basic_ostreamIcT_ES5_PKc
	.loc 7 340 0
	movq	_it@GOTPCREL(%rip), %rdi
	call	__ZNKSt17_Rb_tree_iteratorISt4pairIKSs5TableEEdeEv
	leaq	8(%rax), %rsi
	leaq	-3360(%rbp), %rdi
	call	__ZN5TableC1ERKS_
LEHE404:
LBB165:
	.loc 7 342 0
	movl	$0, -1912(%rbp)
	jmp	L1870
L1871:
	.loc 7 343 0
	leaq	-1912(%rbp), %rsi
	leaq	-3360(%rbp), %rax
	leaq	48(%rax), %rdi
LEHB405:
	call	__ZNSt3mapIiSsSt4lessIiESaISt4pairIKiSsEEEixERS3_
	movq	%rax, -4240(%rbp)
	leaq	-1912(%rbp), %rsi
	leaq	-3360(%rbp), %rax
	leaq	96(%rax), %rdi
	call	__ZNSt3mapIiSsSt4lessIiESaISt4pairIKiSsEEEixERS3_
	movq	%rax, %rsi
	leaq	-1856(%rbp), %rax
	leaq	16(%rax), %rdi
	call	__ZStlsIcSt11char_traitsIcESaIcEERSt13basic_ostreamIT_T0_ES7_RKSbIS4_S5_T1_E
	movq	%rax, %rdi
	leaq	LC20(%rip), %rsi
	call	__ZStlsISt11char_traitsIcEERSt13basic_ostreamIcT_ES5_PKc
	movq	%rax, %rdi
	movq	-4240(%rbp), %rsi
	call	__ZStlsIcSt11char_traitsIcESaIcEERSt13basic_ostreamIT_T0_ES7_RKSbIS4_S5_T1_E
	.loc 7 344 0
	movl	-1912(%rbp), %eax
	incl	%eax
	movslq	%eax,%rbx
	leaq	-3360(%rbp), %rax
	leaq	48(%rax), %rdi
	call	__ZNKSt3mapIiSsSt4lessIiESaISt4pairIKiSsEEE4sizeEv
	cmpq	%rax, %rbx
	setne	%al
	testb	%al, %al
	je	L1872
	leaq	LC23(%rip), %rsi
	movq	__ZSt4cout@GOTPCREL(%rip), %rdi
	call	__ZStlsISt11char_traitsIcEERSt13basic_ostreamIcT_ES5_PKc
L1872:
	.loc 7 342 0
	movl	-1912(%rbp), %eax
	incl	%eax
	movl	%eax, -1912(%rbp)
L1870:
	movl	-1912(%rbp), %eax
	movslq	%eax,%rbx
	leaq	-3360(%rbp), %rax
	leaq	48(%rax), %rdi
	call	__ZNKSt3mapIiSsSt4lessIiESaISt4pairIKiSsEEE4sizeEv
	cmpq	%rax, %rbx
	setb	%al
	testb	%al, %al
	jne	L1871
LBE165:
	.loc 7 346 0
	leaq	-1856(%rbp), %rax
	leaq	16(%rax), %rdi
	leaq	LC24(%rip), %rsi
	call	__ZStlsISt11char_traitsIcEERSt13basic_ostreamIcT_ES5_PKc
	movq	%rax, %rdi
	movq	__ZSt4endlIcSt11char_traitsIcEERSt13basic_ostreamIT_T0_ES6_@GOTPCREL(%rip), %rsi
	call	__ZNSolsEPFRSoS_E
LBB166:
	.loc 7 348 0
	movl	$0, -1916(%rbp)
	jmp	L1875
L1876:
	.loc 7 349 0
	movl	-1916(%rbp), %eax
	movslq	%eax,%rsi
	leaq	-3360(%rbp), %rax
	leaq	144(%rax), %rdi
	call	__ZNSt6vectorIS_ISsSaISsEESaIS1_EE2atEm
	movq	%rax, %rsi
	movq	_r@GOTPCREL(%rip), %rdi
	call	__ZNSt6vectorISsSaISsEEaSERKS1_
	.loc 7 351 0
	movq	_it@GOTPCREL(%rip), %rdi
	call	__ZNKSt17_Rb_tree_iteratorISt4pairIKSs5TableEEdeEv
	movq	%rax, -4232(%rbp)
	leaq	-1856(%rbp), %rax
	leaq	16(%rax), %rdi
	leaq	LC25(%rip), %rsi
	call	__ZStlsISt11char_traitsIcEERSt13basic_ostreamIcT_ES5_PKc
	movq	%rax, %rdi
	movq	-4232(%rbp), %rsi
	call	__ZStlsIcSt11char_traitsIcESaIcEERSt13basic_ostreamIT_T0_ES7_RKSbIS4_S5_T1_E
	movq	%rax, %rdi
	leaq	LC26(%rip), %rsi
	call	__ZStlsISt11char_traitsIcEERSt13basic_ostreamIcT_ES5_PKc
LBB167:
	.loc 7 352 0
	movl	$0, -1920(%rbp)
	jmp	L1877
L1878:
	.loc 7 353 0
	movl	-1920(%rbp), %eax
	movslq	%eax,%rsi
	movq	_r@GOTPCREL(%rip), %rdi
	call	__ZNSt6vectorISsSaISsEE2atEm
	movq	%rax, %rsi
	leaq	-1856(%rbp), %rax
	leaq	16(%rax), %rdi
	call	__ZStlsIcSt11char_traitsIcESaIcEERSt13basic_ostreamIT_T0_ES7_RKSbIS4_S5_T1_E
	.loc 7 354 0
	movl	-1920(%rbp), %eax
	incl	%eax
	movslq	%eax,%rbx
	movq	_r@GOTPCREL(%rip), %rdi
	call	__ZNKSt6vectorISsSaISsEE4sizeEv
	cmpq	%rax, %rbx
	setne	%al
	testb	%al, %al
	je	L1879
	leaq	-1856(%rbp), %rax
	leaq	16(%rax), %rdi
	leaq	LC23(%rip), %rsi
	call	__ZStlsISt11char_traitsIcEERSt13basic_ostreamIcT_ES5_PKc
L1879:
	.loc 7 352 0
	incl	-1920(%rbp)
L1877:
	movl	-1920(%rbp), %eax
	movslq	%eax,%rbx
	movq	_r@GOTPCREL(%rip), %rdi
	call	__ZNKSt6vectorISsSaISsEE4sizeEv
	cmpq	%rax, %rbx
	setb	%al
	testb	%al, %al
	jne	L1878
LBE167:
	.loc 7 356 0
	leaq	-1856(%rbp), %rax
	leaq	16(%rax), %rdi
	leaq	LC24(%rip), %rsi
	call	__ZStlsISt11char_traitsIcEERSt13basic_ostreamIcT_ES5_PKc
	movq	%rax, %rdi
	movq	__ZSt4endlIcSt11char_traitsIcEERSt13basic_ostreamIT_T0_ES6_@GOTPCREL(%rip), %rsi
	call	__ZNSolsEPFRSoS_E
LEHE405:
	.loc 7 348 0
	incl	-1916(%rbp)
L1875:
	movl	-1916(%rbp), %eax
	movslq	%eax,%rbx
	leaq	-3360(%rbp), %rax
	leaq	144(%rax), %rdi
	call	__ZNKSt6vectorIS_ISsSaISsEESaIS1_EE4sizeEv
	cmpq	%rax, %rbx
	setb	%al
	testb	%al, %al
	jne	L1876
LBE166:
	.loc 7 338 0
	leaq	-3360(%rbp), %rdi
LEHB406:
	call	__ZN5TableD1Ev
LEHE406:
	jmp	L1883
L1890:
	movq	%rax, -4360(%rbp)
L1884:
	movq	-4360(%rbp), %rbx
	leaq	-3360(%rbp), %rdi
	call	__ZN5TableD1Ev
	movq	%rbx, -4360(%rbp)
	jmp	L1886
L1883:
LBE164:
	movl	$0, %esi
	movq	_it@GOTPCREL(%rip), %rdi
LEHB407:
	call	__ZNSt17_Rb_tree_iteratorISt4pairIKSs5TableEEppEi
L1868:
	movq	_tables@GOTPCREL(%rip), %rdi
	call	__ZNSt3mapISs5TableSt4lessISsESaISt4pairIKSsS0_EEE3endEv
	movq	%rax, -3120(%rbp)
	leaq	-3120(%rbp), %rsi
	movq	_it@GOTPCREL(%rip), %rdi
	call	__ZNKSt17_Rb_tree_iteratorISt4pairIKSs5TableEEneERKS4_
	testb	%al, %al
	jne	L1869
	.loc 7 360 0
	leaq	-1856(%rbp), %rdi
	call	__ZNSt13basic_fstreamIcSt11char_traitsIcEE5closeEv
LEHE407:
	.loc 7 361 0
	movl	$0, %edi
	call	_exit
L1891:
	movq	%rax, -4360(%rbp)
L1886:
	movq	-4360(%rbp), %rbx
	leaq	-1856(%rbp), %rdi
	call	__ZNSt13basic_fstreamIcSt11char_traitsIcEED1Ev
	movq	%rbx, -4360(%rbp)
	jmp	L1887
L1980:
	movq	%rax, -4360(%rbp)
L1887:
	.loc 7 97 0
	movq	-4360(%rbp), %rbx
LBE163:
	.loc 7 367 0
	leaq	-944(%rbp), %rdi
	call	__ZNSt13basic_fstreamIcSt11char_traitsIcEED1Ev
	movq	%rbx, -4360(%rbp)
	movq	-4360(%rbp), %rdi
LEHB408:
	call	__Unwind_Resume
LEHE408:
LBE143:
LFE1994:
	.section __TEXT,__gcc_except_tab
GCC_except_table50:
LLSDA1994:
	.byte	0xff
	.byte	0xff
	.byte	0x3
	.byte	0x83,0x15
	.set L$set$505,LEHB202-LFB1994
	.long L$set$505
	.set L$set$506,LEHE202-LEHB202
	.long L$set$506
	.long	0x0
	.byte	0x0
	.set L$set$507,LEHB203-LFB1994
	.long L$set$507
	.set L$set$508,LEHE203-LEHB203
	.long L$set$508
	.set L$set$509,L1980-LFB1994
	.long L$set$509
	.byte	0x0
	.set L$set$510,LEHB204-LFB1994
	.long L$set$510
	.set L$set$511,LEHE204-LEHB204
	.long L$set$511
	.set L$set$512,L1979-LFB1994
	.long L$set$512
	.byte	0x0
	.set L$set$513,LEHB205-LFB1994
	.long L$set$513
	.set L$set$514,LEHE205-LEHB205
	.long L$set$514
	.set L$set$515,L1980-LFB1994
	.long L$set$515
	.byte	0x0
	.set L$set$516,LEHB206-LFB1994
	.long L$set$516
	.set L$set$517,LEHE206-LEHB206
	.long L$set$517
	.set L$set$518,L1980-LFB1994
	.long L$set$518
	.byte	0x0
	.set L$set$519,LEHB207-LFB1994
	.long L$set$519
	.set L$set$520,LEHE207-LEHB207
	.long L$set$520
	.set L$set$521,L1978-LFB1994
	.long L$set$521
	.byte	0x0
	.set L$set$522,LEHB208-LFB1994
	.long L$set$522
	.set L$set$523,LEHE208-LEHB208
	.long L$set$523
	.set L$set$524,L1977-LFB1994
	.long L$set$524
	.byte	0x0
	.set L$set$525,LEHB209-LFB1994
	.long L$set$525
	.set L$set$526,LEHE209-LEHB209
	.long L$set$526
	.set L$set$527,L1978-LFB1994
	.long L$set$527
	.byte	0x0
	.set L$set$528,LEHB210-LFB1994
	.long L$set$528
	.set L$set$529,LEHE210-LEHB210
	.long L$set$529
	.set L$set$530,L1980-LFB1994
	.long L$set$530
	.byte	0x0
	.set L$set$531,LEHB211-LFB1994
	.long L$set$531
	.set L$set$532,LEHE211-LEHB211
	.long L$set$532
	.set L$set$533,L1976-LFB1994
	.long L$set$533
	.byte	0x0
	.set L$set$534,LEHB212-LFB1994
	.long L$set$534
	.set L$set$535,LEHE212-LEHB212
	.long L$set$535
	.set L$set$536,L1975-LFB1994
	.long L$set$536
	.byte	0x0
	.set L$set$537,LEHB213-LFB1994
	.long L$set$537
	.set L$set$538,LEHE213-LEHB213
	.long L$set$538
	.set L$set$539,L1976-LFB1994
	.long L$set$539
	.byte	0x0
	.set L$set$540,LEHB214-LFB1994
	.long L$set$540
	.set L$set$541,LEHE214-LEHB214
	.long L$set$541
	.set L$set$542,L1976-LFB1994
	.long L$set$542
	.byte	0x0
	.set L$set$543,LEHB215-LFB1994
	.long L$set$543
	.set L$set$544,LEHE215-LEHB215
	.long L$set$544
	.set L$set$545,L1974-LFB1994
	.long L$set$545
	.byte	0x0
	.set L$set$546,LEHB216-LFB1994
	.long L$set$546
	.set L$set$547,LEHE216-LEHB216
	.long L$set$547
	.set L$set$548,L1976-LFB1994
	.long L$set$548
	.byte	0x0
	.set L$set$549,LEHB217-LFB1994
	.long L$set$549
